	.file	"delay.c"
	.text	
.Ltext0:
	.cfi_sections	.debug_frame
	.section .text$delay_us
	.type	.text$delay_us$scode_local_1, @function
	.text$delay_us$scode_local_1:
	.align	1
	.export	delay_us
	.type	delay_us, @function
delay_us:
.LFB1:
.LM1:
	.cfi_startproc
.LVL0:
	SUB	sp,#4
	.cfi_def_cfa_offset 4
	ST.w	[sp],r0
.LM2:
	LD.w	r5,[sp]
.LVL1:
.LBB4:
.LBB5:
.LM3:
	LD	r4,#fac_us
	LD.b	r4,[r4]
	MULS	r5,r4,r5 ;
	NOP
.LVL2:
	LD	r2,#1075839136
	ST.w	[r2+#1],r5
.LM4:
	MOV	r5,#0
	ST.w	[r2+#2],r5
.LM5:
	LD.w	r5,[r2]
	SET	r5,#0
	ST.w	[r2],r5
.LM6:
	LD	r3,#65537
.L2:
.LM7:
	LD	r4,#1075839136
	LD.w	r5,[r2]
.LVL3:
.LM8:
	ANL	r5,r5,r3
.LVL4:
	CMP	r5,#1
	JZ	.L2
.LM9:
	LD.w	r5,[r4]
	CLR	r5,#0
	ST.w	[r4],r5
.LM10:
	MOV	r5,#0
	ST.w	[r4+#2],r5
.LBE5:
.LBE4:
.LM11:
	ADD	sp,#4
	.cfi_def_cfa_offset 0
	JMP	lr
	.cfi_endproc
.LFE1:
	.size	delay_us, .-delay_us
	.section .text$delay_ms
	.type	.text$delay_ms$scode_local_2, @function
	.text$delay_ms$scode_local_2:
	.align	1
	.export	delay_ms
	.type	delay_ms, @function
delay_ms:
.LFB2:
.LM12:
	.cfi_startproc
.LVL5:
	PUSH	{r6, r7, lr}
	.cfi_def_cfa_offset 12
	SUB	sp,#4
	.cfi_def_cfa_offset 16
	ST.w	[sp],r0
.LM13:
	LD.w	r7,[sp]
.LVL6:
.LBB8:
.LBB9:
.LM14:
	LJMP	systick_tick_get
.LVL7:
	MOV	r6,r0
.LVL8:
.L9:
.LM15:
	LJMP	systick_tick_get
.LVL9:
	SUB	r0,r0,r6
	CMP	r7,r0
	JHI	.L9
.LBE9:
.LBE8:
.LM16:
	ADD	sp,#4
	.cfi_def_cfa_offset 12
	POP	{r6, r7}
	.cfi_def_cfa_offset 4
.LVL10:
	POP	lr
	.cfi_def_cfa_offset 0
	JMP	lr
	.cfi_endproc
.LFE2:
	.size	delay_ms, .-delay_ms
	.text	
.Letext0: