	.file	"eeprom.c"
	.text	
.Ltext0:
	.cfi_sections	.debug_frame
	.section .text$ee_format_page
	.type	.text$ee_format_page$scode_local_1, @function
	.text$ee_format_page$scode_local_1:
	.align	1
	.type	ee_format_page, @function
ee_format_page:
.LFB1:
.LM1:
	.cfi_startproc
.LVL0:
	PUSH	{r6, lr}
	.cfi_def_cfa_offset 8
	SUB	sp,#4
	.cfi_def_cfa_offset 12
	MOV	r6,r0
.LM2:
	LD	r5,#-1437221940
	ST.w	[sp],r5
.LVL1:
.LM3:
	LJMP	flash_erase_page
.LVL2:
.LM4:
	MOV	r0,r6
	MOV	r1,sp
	MOV	r2,#4
	LJMP	flash_write_buf
.LVL3:
.LM5:
	ADD	sp,#4
	.cfi_def_cfa_offset 8
	POP	r6
	.cfi_def_cfa_offset 4
.LVL4:
	POP	lr
	.cfi_def_cfa_offset 0
	JMP	lr
	.cfi_endproc
.LFE1:
	.size	ee_format_page, .-ee_format_page
	.section .text$ee_init_section.part.0
	.type	.text$ee_init_section.part.0$scode_local_2, @function
	.text$ee_init_section.part.0$scode_local_2:
	.align	1
	.type	ee_init_section.part.0, @function
ee_init_section.part.0:
.LFB10:
.LM6:
	.cfi_startproc
.LVL5:
	PUSH	{r6, r7, r8, r9, r10, r11, r12, lr}
	.cfi_def_cfa_offset 32
	SUB	sp,#16
	.cfi_def_cfa_offset 48
.LM7:
	MOV	r5,#24
	MULS	r5,r0,r5 ;
	NOP
	ST.w	[sp+#3],r5
	LD	r1,#ee_sec_info
	ADD	r5,r5,r1
	MOV	r8,r5
.LVL6:
.LM8:
	LD	r5,#sec_table
.LVL7:
	LSL	r0,#3
.LVL8:
	ADD	r4,r5,r0
	LD.w	r0,[r5+r0]
	LD.w	r2,[sp+#3]
	ST.w	[r2+r1],r0
.LM9:
	LD.w	r7,[r4+#1]
	MOV	r3,r8
	ST.w	[r3+#1],r7
.LM10:
	LSR	r7,#10
	ST.w	[r3+#2],r7
.LM11:
	MOV	r5,#0
	MOV	r4,r5
	ST.w	[r3+#3],r5
.LM12:
	ST.w	[r3+#4],r5
.LM13:
	MOV	r5,#1
	ST.h	[r3+#10],r5
.LVL9:
.LM14:
	CMP	r7,r4
	JZ	.L3
	MOV	r3,r7
	LSL	r3,#10
	MOV	r9,r3
.LBB7:
.LM15:
	MOV	r11,#1
	LSL	r11,#10
.LM16:
	LD	r4,#-1437221940
	MOV	r12,r4
	JMP	.L18
.LVL10:
.L4:
.LBE7:
.LM17:
	SUB	r7,r7,#1
.LVL11:
	SUB	r9,r11
	CMP	r7,#0
	JZ	.L17
	LD.w	r0,[r8]
.LVL12:
.L18:
.LBB18:
.LM18:
	MOV	r5,r9
.LVL13:
	ADD	r6,r5,r0
	MOV	r1,r6
	SUB	r1,r11
	MOV	r10,r1
.LVL14:
.LM19:
	MOV	r0,r1
	MOV	r1,sp
.LVL15:
	ADD	r1,#8
	MOV	r2,#4
	LJMP	flash_read_buf
.LVL16:
.LM20:
	LD.w	r5,[sp+#2]
	CMP	r5,r12
	JNZ	.L4
.LM21:
	MOV	r4,r10
	MOV	r2,r8
	ST.w	[r2+#3],r4
.LVL17:
.LBB8:
.LBB9:
.LM22:
	LD	r5,#1016
	SUB	r7,r6,r5
.LVL18:
.LM23:
	MOV	r9,#0
.LBB10:
.LM24:
	NOT	r1,r9
	MOV	r10,r1
.LVL19:
.LM25:
	LD	r2,#1437217740
.LVL20:
	MOV	r11,r2
.LM26:
	MOV	r12,r5
.LVL21:
.L25:
.LBE10:
.LM27:
	MOV	r2,#8
	ADD	r5,r7,r2
	CMP	r5,r6
	JHI	.L26
.LVL22:
.L14:
.LBB11:
.LM28:
	MOV	r0,r7
	MOV	r1,sp
	MOV	r2,#8
	LJMP	flash_read_buf
.LVL23:
.LM29:
	LD.w	r5,[sp]
	CMP	r5,r10
	JZ	.L29
.LM30:
	CMP	r5,r11
	JNZ	.L30
.LM31:
	LD.h	r5,[sp+#3]
	CMP	r5,#0
	JZ	.L26
.LM32:
	ADD	r5,r5,#7
	MOV	r1,#7
	NOT	r1,r1
	ANL	r5,r5,r1
	ADD	r5,#8
.LVL24:
.LM33:
	CMP	r5,r12
	JHI	.L11
.LM34:
	ADD	r7,r7,r5
.LVL25:
.LM35:
	CMP	r7,r6
	JHI	.L11
.LM36:
	LD.h	r5,[sp+#2]
.LVL26:
	SUB	r4,r5,#1
	ZXT.h	r4,r4
	LD	r1,#65533
.LVL27:
	CMP	r4,r1
	JHI	.L25
	CMP	r5,r9
	JLS	.L25
	MOV	r9,r5
.LVL28:
.LBE11:
.LM37:
	MOV	r2,#8
	ADD	r5,r7,r2
	CMP	r5,r6
	JLS	.L14
.LVL29:
.L26:
.LM38:
	MOV	r5,r6
.L27:
	MOV	r3,r8
	ST.w	[r3+#4],r5
.LM39:
	MOV	r1,r9
	ADD	r5,r1,#1
	ST.h	[r3+#10],r5
.LBE9:
.LBE8:
.LM40:
	MOV	r0,#0
.LVL30:
.L16:
.LBE18:
.LM41:
	ADD	sp,#16
	.cfi_remember_state
	.cfi_def_cfa_offset 32
	POP	{r6, r7, r8, r9, r10, r11, r12}
	.cfi_def_cfa_offset 4
.LVL31:
	POP	lr
	.cfi_def_cfa_offset 0
	JMP	lr
.LVL32:
.L17:
	.cfi_restore_state
	LD.w	r5,[sp+#3]
.LVL33:
	LD	r1,#ee_sec_info
	LD.w	r0,[r5+r1]
.LVL34:
.L3:
.LM42:
	LJMP	ee_format_page
.LVL35:
	MOV	r5,r0
.LM43:
	MOV	r0,#5
.LM44:
	CMP	r5,#0
	JNZ	.L16
.LM45:
	LD.w	r2,[sp+#3]
	LD	r3,#ee_sec_info
	LD.w	r4,[r2+r3]
	MOV	r1,r8
	ST.w	[r1+#3],r4
.LM46:
	ADD	r4,#8
	ST.w	[r1+#4],r4
.LM47:
	MOV	r4,#1
	ST.h	[r1+#10],r4
.LM48:
	MOV	r0,r5
.LM49:
	ADD	sp,#16
	.cfi_remember_state
	.cfi_def_cfa_offset 32
	POP	{r6, r7, r8, r9, r10, r11, r12}
	.cfi_def_cfa_offset 4
.LVL36:
	POP	lr
	.cfi_def_cfa_offset 0
	JMP	lr
.LVL37:
.L11:
	.cfi_restore_state
.LBB19:
.LBB16:
.LBB14:
.LBB12:
.LM50:
	MOV	r2,r8
	ST.w	[r2+#4],r6
.LM51:
	MOV	r1,r9
	ADD	r5,r1,#1
.LVL38:
	ST.h	[r2+#10],r5
.LBE12:
.LBE14:
.LBE16:
.LM52:
	MOV	r0,#0
	JMP	.L16
.LVL39:
.L29:
.LBB17:
.LBB15:
.LBB13:
.LM53:
	MOV	r5,r7
	JMP	.L27
.L30:
.LM54:
	MOV	r5,r8
	ST.w	[r5+#4],r6
.LM55:
	MOV	r3,r9
	ADD	r5,r3,#1
	MOV	r4,r8
	ST.h	[r4+#10],r5
.LBE13:
.LBE15:
.LBE17:
.LM56:
	MOV	r0,#0
	JMP	.L16
.LBE19:
	.cfi_endproc
.LFE10:
	.size	ee_init_section.part.0, .-ee_init_section.part.0
	.section .text$ee_write_record
	.type	.text$ee_write_record$scode_local_3, @function
	.text$ee_write_record$scode_local_3:
	.align	1
	.type	ee_write_record, @function
ee_write_record:
.LFB4:
.LM57:
	.cfi_startproc
.LVL40:
	PUSH	{r6, r7, r8, lr}
	.cfi_def_cfa_offset 16
	SUB	sp,#8
	.cfi_def_cfa_offset 24
	MOV	r6,r0
	MOV	r7,r2
.LM58:
	LD.w	r4,[r0+#4]
	MOV	r8,r4
.LVL41:
.LM59:
	LD	r5,#1437217740
	ST.w	[sp],r5
.LM60:
	LD.h	r5,[r0+#10]
	ST.h	[sp+#2],r5
.LM61:
	ST.h	[sp+#3],r2
.LM62:
	MOV	r0,r4
.LVL42:
	ADD	r0,#8
	LJMP	flash_write_buf
.LVL43:
	CMP	r0,#0
	JZ	.L32
.L34:
.LM63:
	MOV	r0,#5
.L33:
.LM64:
	ADD	sp,#8
	.cfi_remember_state
	.cfi_def_cfa_offset 16
	POP	{r6, r7, r8}
	.cfi_def_cfa_offset 4
.LVL44:
	POP	lr
	.cfi_def_cfa_offset 0
	JMP	lr
.LVL45:
.L32:
	.cfi_restore_state
.LM65:
	MOV	r0,r8
	MOV	r1,sp
	MOV	r2,#8
	LJMP	flash_write_buf
.LVL46:
	CMP	r0,#0
	JNZ	.L34
.LVL47:
.LBB22:
.LBB23:
.LM66:
	LD.w	r5,[r6+#4]
	ADD	r5,#8
	ADD	r7,r7,#7
.LVL48:
	MOV	r4,#7
	NOT	r4,r4
	ANL	r7,r7,r4
.LVL49:
	ADD	r7,r5,r7
	ST.w	[r6+#4],r7
.LM67:
	LD.h	r4,[r6+#10]
	ADD	r5,r4,#1
	ST.h	[r6+#10],r5
	JMP	.L33
.LBE23:
.LBE22:
	.cfi_endproc
.LFE4:
	.size	ee_write_record, .-ee_write_record
	.section .text$ee_init_boot
	.type	.text$ee_init_boot$scode_local_4, @function
	.text$ee_init_boot$scode_local_4:
	.align	1
	.export	ee_init_boot
	.type	ee_init_boot, @function
ee_init_boot:
.LFB6:
.LM68:
	.cfi_startproc
	PUSH	lr
	.cfi_def_cfa_offset 4
.LVL50:
	MOV	r0,#3
	LJMP	ee_init_section.part.0
.LVL51:
.LM69:
	ZXT.h	r0,r0
.LVL52:
	POP	lr
	.cfi_def_cfa_offset 0
	JMP	lr
	.cfi_endproc
.LFE6:
	.size	ee_init_boot, .-ee_init_boot
	.section .text$ee_init_app
	.type	.text$ee_init_app$scode_local_5, @function
	.text$ee_init_app$scode_local_5:
	.align	1
	.export	ee_init_app
	.type	ee_init_app, @function
ee_init_app:
.LFB7:
.LM70:
	.cfi_startproc
	PUSH	lr
	.cfi_def_cfa_offset 4
.LVL53:
	MOV	r0,#0
	LJMP	ee_init_section.part.0
.LVL54:
.LM71:
	CMP	r0,#0
	JZ	.L38
.LVL55:
.L37:
.LM72:
	POP	lr
	.cfi_remember_state
	.cfi_def_cfa_offset 0
	JMP	lr
.LVL56:
.L38:
	.cfi_restore_state
	MOV	r0,#1
.LVL57:
	LJMP	ee_init_section.part.0
.LVL58:
.LM73:
	CMP	r0,#0
	JNZ	.L37
.LVL59:
	MOV	r0,#2
.LVL60:
	LJMP	ee_init_section.part.0
.LVL61:
.LM74:
	CMP	r0,#0
	JNZ	.L37
.LVL62:
	MOV	r0,#3
.LVL63:
	LJMP	ee_init_section.part.0
.LVL64:
.LM75:
	JMP	.L37
	.cfi_endproc
.LFE7:
	.size	ee_init_app, .-ee_init_app
	.section .text$ee_save
	.type	.text$ee_save$scode_local_6, @function
	.text$ee_save$scode_local_6:
	.align	1
	.export	ee_save
	.type	ee_save, @function
ee_save:
.LFB8:
.LM76:
	.cfi_startproc
.LVL65:
	PUSH	{r6, r7, r8, r9, r10, r11, r12, lr}
	.cfi_def_cfa_offset 32
	SUB	sp,#8
	.cfi_def_cfa_offset 40
	MOV	r7,r1
	ZXT.h	r6,r2
.LM77:
	CMP	r1,#0
	JZ	.L42
.LM78:
	CMP	r6,#0
	JZ	.L42
.LM79:
	MOV	r5,#2
.LM80:
	CMP	r0,#3
	JLS	.L68
.LVL66:
.L41:
.LM81:
	MOV	r0,r5
	ADD	sp,#8
	.cfi_remember_state
	.cfi_def_cfa_offset 32
	POP	{r6, r7, r8, r9, r10, r11, r12}
	.cfi_def_cfa_offset 4
.LVL67:
	POP	lr
	.cfi_def_cfa_offset 0
	JMP	lr
.LVL68:
.L42:
	.cfi_restore_state
.LBB39:
.LBB40:
.LM82:
	MOV	r5,#1
.LBE40:
.LBE39:
.LM83:
	MOV	r0,r5
	ADD	sp,#8
	.cfi_remember_state
	.cfi_def_cfa_offset 32
	POP	{r6, r7, r8, r9, r10, r11, r12}
	.cfi_def_cfa_offset 4
.LVL69:
	POP	lr
	.cfi_def_cfa_offset 0
	JMP	lr
.LVL70:
.L68:
	.cfi_restore_state
.LM84:
	MOV	r5,#24
	MULS	r5,r0,r5 ;
	NOP
	ST.w	[sp+#1],r5
	LD	r1,#ee_sec_info
.LVL71:
	ADD	r5,r5,r1
	MOV	r8,r5
.LVL72:
.LM85:
	MOV	r2,r5
.LVL73:
	LD.w	r5,[r5+#2]
.LVL74:
	CMP	r5,#0
	JZ	.L43
.LM86:
	LD.w	r5,[r2+#3]
	CMP	r5,#0
	JNZ	.L45
.L43:
.LVL75:
	LJMP	ee_init_section.part.0
.LVL76:
.LM87:
	MOV	r5,#5
.LM88:
	CMP	r0,#0
	JNZ	.L41
.LVL77:
.L45:
.LM89:
	ADD	r4,r6,#7
	MOV	r5,#7
	NOT	r5,r5
	ANL	r5,r4,r5
	MOV	r4,#8
	ADD	r3,r5,r4
	LD	r4,#1016
	CMP	r3,r4
	JHI	.L42
.LM90:
	MOV	r1,r8
	LD.w	r4,[r1+#3]
	LD.w	r3,[r1+#4]
	ADD	r3,#8
	ADD	r5,r3,r5
	MOV	r3,#1
	LSL	r3,#10
	ADD	r2,r4,r3
	CMP	r5,r2
	JLS	.L46
.LVL78:
.LM91:
	LD.w	r2,[sp+#1]
	LD	r5,#ee_sec_info
	LD.w	r0,[r2+r5]
	SUB	r4,r4,r0
	MOV	r9,r4
	LSR	r9,#10
	ADD	r9,#1
.LVL79:
	LD.w	r5,[r1+#2]
	CMP	r5,r9
	JLS	.L54
	MOV	r1,r9
.LVL80:
	LSL	r1,#10
	MOV	r10,r1
.LBB42:
.LM92:
	MOV	r2,#0
	NOT	r2,r2
	MOV	r12,r2
	JMP	.L52
.LVL81:
.L48:
.LBE42:
.LM93:
	ADD	r9,#1
.LVL82:
	MOV	r3,#1
	LSL	r3,#10
	ADD	r10,r3
.LM94:
	MOV	r4,r8
	LD.w	r5,[r4+#2]
.LVL83:
	CMP	r5,r9
	JLS	.L69
.LVL84:
	LD.w	r0,[r8]
.LVL85:
.L52:
.LBB43:
.LM95:
	ADD	r0,r10
	MOV	r11,r0
.LVL86:
.LM96:
	MOV	r1,sp
	MOV	r2,#4
	LJMP	flash_read_buf
.LVL87:
.LM97:
	LD.w	r5,[sp]
	CMP	r5,r12
	JNZ	.L48
.LM98:
	MOV	r0,r11
	LJMP	ee_format_page
.LVL88:
.LM99:
	MOV	r5,#5
.LM100:
	CMP	r0,#0
	JNZ	.L41
.LM101:
	MOV	r5,r11
	MOV	r3,r8
	ST.w	[r3+#3],r5
.LM102:
	ADD	r5,#8
	ST.w	[r3+#4],r5
.LBE43:
.LM103:
	LD.w	r5,[r3+#2]
	CMP	r5,r9
	JLS	.L70
.LVL89:
.L46:
.LM104:
	MOV	r0,r8
	MOV	r1,r7
	MOV	r2,r6
	LJMP	ee_write_record
.LVL90:
	MOV	r5,r0
.LVL91:
.LM105:
	JMP	.L41
.LVL92:
.L69:
	LD.w	r5,[sp+#1]
	LD	r1,#ee_sec_info
	LD.w	r0,[r5+r1]
.LVL93:
.L54:
.LBB44:
.LBB41:
.LM106:
	MOV	r4,r8
	LD.w	r4,[r4+#1]
	ADD	r1,r0,r4
	LJMP	flash_erase_range
.LVL94:
.LM107:
	LD.w	r5,[sp+#1]
	LD	r1,#ee_sec_info
	LD.w	r0,[r5+r1]
	LJMP	ee_format_page
.LVL95:
.LM108:
	MOV	r5,#5
.LM109:
	CMP	r0,#0
	JNZ	.L41
.LM110:
	LD.w	r2,[sp+#1]
	LD	r3,#ee_sec_info
	LD.w	r5,[r2+r3]
	MOV	r4,r8
	ST.w	[r4+#3],r5
.LM111:
	ADD	r5,#8
	ST.w	[r4+#4],r5
.LM112:
	MOV	r5,#1
	ST.h	[r4+#10],r5
	JMP	.L46
.LVL96:
.L70:
	LD.w	r2,[sp+#1]
	LD	r3,#ee_sec_info
.LVL97:
	LD.w	r0,[r2+r3]
	JMP	.L54
.LBE41:
.LBE44:
	.cfi_endproc
.LFE8:
	.size	ee_save, .-ee_save
	.section .text$ee_load
	.type	.text$ee_load$scode_local_7, @function
	.text$ee_load$scode_local_7:
	.align	1
	.export	ee_load
	.type	ee_load, @function
ee_load:
.LFB9:
.LM113:
	.cfi_startproc
.LVL98:
	PUSH	{r6, r7, r8, r9, r10, r11, r12, lr}
	.cfi_def_cfa_offset 32
	SUB	sp,#24
	.cfi_def_cfa_offset 56
	ST.w	[sp+#3],r1
	ZXT.h	r10,r2
.LVL99:
.LM114:
	MOV	r5,#1
.LM115:
	CMP	r1,#0
	JZ	.L72
.LM116:
	CMP	r10,#0
	JZ	.L72
.LM117:
	MOV	r5,#2
.LM118:
	CMP	r0,#3
	JLS	.L115
.LVL100:
.L72:
.LM119:
	MOV	r0,r5
	ADD	sp,#24
	.cfi_remember_state
	.cfi_def_cfa_offset 32
	POP	{r6, r7, r8, r9, r10, r11, r12}
	.cfi_def_cfa_offset 4
.LVL101:
	POP	lr
	.cfi_def_cfa_offset 0
	JMP	lr
.LVL102:
.L115:
	.cfi_restore_state
.LM120:
	MOV	r4,#24
	MULS	r4,r0,r4 ;
	NOP
	LD	r5,#ee_sec_info
	ADD	r4,r4,r5
	MOV	r11,r4
.LVL103:
.LM121:
	LD.w	r5,[r4+#2]
	CMP	r5,#0
	JZ	.L73
.LM122:
	LD.w	r5,[r4+#3]
	CMP	r5,#0
	JNZ	.L74
.L73:
.LVL104:
	LJMP	ee_init_section.part.0
.LVL105:
.LM123:
	MOV	r5,#5
.LM124:
	CMP	r0,#0
	JNZ	.L72
.LVL106:
.LM125:
	MOV	r3,r11
	LD.w	r5,[r3+#2]
	CMP	r5,#0
	JZ	.L84
.LVL107:
.L74:
.LM126:
	MOV	r5,#0
	ST.w	[sp+#4],r5
	ST.w	[sp+#5],r5
	MOV	r9,r5
.LBB48:
.LM127:
	LD	r5,#1437217740
	MOV	r12,r5
	JMP	.L83
.LVL108:
.L77:
.LBE48:
.LM128:
	ADD	r9,#1
.LVL109:
	MOV	r4,r11
	LD.w	r5,[r4+#2]
	CMP	r5,r9
	JLS	.L116
.LVL110:
.L83:
.LBB49:
.LM129:
	MOV	r3,r9
	LSL	r3,#10
	MOV	r8,r3
.LM130:
	LD.w	r4,[r11]
	ADD	r8,r4
.LVL111:
.LM131:
	MOV	r0,r8
	MOV	r1,sp
	ADD	r1,#8
	MOV	r2,#4
	LJMP	flash_read_buf
.LVL112:
.LM132:
	LD.w	r5,[sp+#2]
	LD	r3,#-1437221940
	CMP	r5,r3
	JNZ	.L77
.LM133:
	MOV	r6,r8
	ADD	r6,#8
.LVL113:
	MOV	r4,#1
	LSL	r4,#10
	ADD	r8,r4
.LVL114:
.L109:
.LM134:
	MOV	r3,#8
	ADD	r7,r6,r3
	CMP	r7,r8
	JHI	.L77
.LM135:
	MOV	r0,r6
	MOV	r1,sp
	MOV	r2,#8
	LJMP	flash_read_buf
.LVL115:
.LM136:
	LD.w	r5,[sp]
	CMP	r5,r12
	JNZ	.L77
.LM137:
	LD.h	r5,[sp+#3]
.LM138:
	CMP	r5,#0
	JZ	.L77
.LM139:
	ADD	r4,r5,#7
	MOV	r3,#7
	NOT	r3,r3
	ANL	r4,r4,r3
	ADD	r4,#8
.LM140:
	LD	r3,#1016
	CMP	r4,r3
	JHI	.L77
.LM141:
	ADD	r6,r6,r4
.LVL116:
.LM142:
	CMP	r6,r8
	JHI	.L77
.LM143:
	CMP	r10,r5
	JNZ	.L109
.LM144:
	LD.h	r5,[sp+#2]
.LM145:
	CMP	r5,#0
	JZ	.L109
.LM146:
	LD	r4,#65535
	CMP	r5,r4
	JZ	.L109
.LM147:
	LD.w	r3,[sp+#4]
	CMP	r5,r3
	JLS	.L109
	ST.w	[sp+#4],r5
	ST.w	[sp+#5],r7
	JMP	.L109
.LVL117:
.L116:
.LBE49:
.LM148:
	LD.w	r5,[sp+#5]
	CMP	r5,#0
	JNZ	.L117
.LVL118:
.L84:
.LBB50:
.LM149:
	MOV	r5,#3
	JMP	.L72
.LVL119:
.L117:
.LBE50:
.LM150:
	MOV	r0,r5
	LD.w	r1,[sp+#3]
	MOV	r2,r10
	LJMP	flash_read_buf
.LVL120:
.LM151:
	MOV	r5,#0
	JMP	.L72
	.cfi_endproc
.LFE9:
	.size	ee_load, .-ee_load
	.export	sec_table
	.section .rdata$sec_table
	.type	.rdata$sec_table$scode_local_8, @function
	.rdata$sec_table$scode_local_8:
	.align	2
	.type	sec_table, @object
	.size	sec_table, 32
sec_table:
	.long	212992
	.long	43008
	.long	256000
	.long	2048
	.long	258048
	.long	2048
	.long	260096
	.long	2048
	.section .bss$static$ee_sec_info
	.type	.bss$static$ee_sec_info$scode_local_9, @function
	.bss$static$ee_sec_info$scode_local_9:
	.align	2
	.type	ee_sec_info, @object
	.size	ee_sec_info, 96
ee_sec_info:
	.fill 96, 1
	.text	
.Letext0: