	.file	"iap.c"
	.text	
.Ltext0:
	.cfi_sections	.debug_frame
	.section .text$iap_is_app_valid
	.type	.text$iap_is_app_valid$scode_local_1, @function
	.text$iap_is_app_valid$scode_local_1:
	.align	1
	.export	iap_is_app_valid
	.type	iap_is_app_valid, @function
iap_is_app_valid:
.LFB3:
.LM1:
	.cfi_startproc
.LVL0:
.LBB6:
.LBB7:
.LM2:
	LD.w	r5,[r0]
.LBE7:
.LBE6:
.LM3:
	MOV	r3,#1
	LSL	r3,#28
	SUB	r3,r5,r3
.LM4:
	MOV	r0,#0
.LVL1:
.LM5:
	LD	r4,#98304
	CMP	r3,r4
	JHI	.L2
.LM6:
	MOV	r4,#3
	ANL	r5,r5,r4
	MOV	r4,#1
	CMP	r5,r0
	JNZ	.L9
.LM7:
	ZXT.b	r0,r4
.L2:
.LM8:
	JMP	lr
.L9:
.LM9:
	MOV	r4,r0
.LM10:
	ZXT.b	r0,r4
	JMP	.L2
	.cfi_endproc
.LFE3:
	.size	iap_is_app_valid, .-iap_is_app_valid
	.section .text$iap_jump_to_app
	.type	.text$iap_jump_to_app$scode_local_2, @function
	.text$iap_jump_to_app$scode_local_2:
	.align	1
	.export	iap_jump_to_app
	.type	iap_jump_to_app, @function
iap_jump_to_app:
.LFB4:
.LM11:
	.cfi_startproc
.LVL2:
	PUSH	lr
	.cfi_def_cfa_offset 4
.LM12:
	LD	r5,#1075839152
	ST.w	[r5+#3],r0
.LVL3:
.LBB8:
.LBB9:
.LM13:
	LD.w	r5,[r0+#1]
.LVL4:
.LBE9:
.LBE8:
.LM14:
	LJMP	r5
.LVL5:
	.cfi_endproc
.LFE4:
	.size	iap_jump_to_app, .-iap_jump_to_app
	.section .text$iap_app_verify
	.type	.text$iap_app_verify$scode_local_3, @function
	.text$iap_app_verify$scode_local_3:
	.align	1
	.export	iap_app_verify
	.type	iap_app_verify, @function
iap_app_verify:
.LFB5:
.LM15:
	.cfi_startproc
	PUSH	{r6, r7, lr}
	.cfi_def_cfa_offset 12
	SUB	sp,#16
	.cfi_def_cfa_offset 28
.LM16:
	LD	r6,#iap_info
	LD	r0,#15360
	MOV	r1,r6
	MOV	r2,#28
	LJMP	flash_read_nbyte
.LVL6:
.LM17:
	LD.w	r4,[r6]
.LM18:
	MOV	r7,#0
.LM19:
	LD	r5,#1454069419
	CMP	r4,r5
	JZ	.L19
.L12:
.LM20:
	MOV	r0,r7
	ADD	sp,#16
	.cfi_remember_state
	.cfi_def_cfa_offset 12
	POP	{r6, r7}
	.cfi_def_cfa_offset 4
	POP	lr
	.cfi_def_cfa_offset 0
	JMP	lr
.L19:
	.cfi_restore_state
.LM21:
	LD.w	r1,[r6+#1]
	SUB	r4,r1,#1
	LD	r5,#49151
	CMP	r4,r5
	JHI	.L12
.LM22:
	MOV	r0,#1
	LSL	r0,#16
	MOV	r2,sp
	LJMP	md5_flash
.LVL7:
.LM23:
	MOV	r0,sp
	LD	r1,#iap_info+12
	MOV	r2,#16
	LJMP	memcmp
.LVL8:
	MOV	r5,#1
	CMP	r0,r7
	JZ	.L13
	MOV	r5,r7
.L13:
.LM24:
	ZXT.b	r7,r5
.LM25:
	MOV	r0,r7
	ADD	sp,#16
	.cfi_def_cfa_offset 12
	POP	{r6, r7}
	.cfi_def_cfa_offset 4
	POP	lr
	.cfi_def_cfa_offset 0
	JMP	lr
	.cfi_endproc
.LFE5:
	.size	iap_app_verify, .-iap_app_verify
	.section .text$iap_info_clear
	.type	.text$iap_info_clear$scode_local_4, @function
	.text$iap_info_clear$scode_local_4:
	.align	1
	.export	iap_info_clear
	.type	iap_info_clear, @function
iap_info_clear:
.LFB6:
.LM26:
	.cfi_startproc
	PUSH	lr
	.cfi_def_cfa_offset 4
.LM27:
	LD	r0,#15360
	LJMP	flash_erase_page
.LVL9:
.LM28:
	MOV	r4,#0
	LD	r5,#iap_info
	ST.w	[r5],r4
	LD	r5,#iap_info+4
	ST.w	[r5],r4
	LD	r5,#iap_info+8
	ST.w	[r5],r4
	LD	r5,#iap_info+12
	ST.w	[r5],r4
	LD	r5,#iap_info+16
	ST.w	[r5],r4
	LD	r5,#iap_info+20
	ST.w	[r5],r4
	LD	r5,#iap_info+24
	ST.w	[r5],r4
.LM29:
	POP	lr
	.cfi_def_cfa_offset 0
	JMP	lr
	.cfi_endproc
.LFE6:
	.size	iap_info_clear, .-iap_info_clear
	.section .text$iap_app_update
	.type	.text$iap_app_update$scode_local_5, @function
	.text$iap_app_update$scode_local_5:
	.align	1
	.export	iap_app_update
	.type	iap_app_update, @function
iap_app_update:
.LFB7:
.LM30:
	.cfi_startproc
	PUSH	{r6, r7, r8, r9, r10, lr}
	.cfi_def_cfa_offset 24
	MOV	r5,#1
	LSL	r5,#10
	SUB	sp,r5
	.cfi_def_cfa_offset 1048
.LM31:
	LD	r5,#iap_info
	LD.w	r7,[r5+#1]
.LVL10:
.LM32:
	MOV	r0,#1
	LSL	r0,#14
	MOV	r1,#1
	LSL	r1,#16
	LJMP	flash_erase_range
.LVL11:
.LM33:
	CMP	r7,#0
	JZ	.L21
.LM34:
	LD	r5,#1023
	MOV	r9,#1
	LSL	r9,#14
	CMP	r7,r5
	JLS	.L32
	MOV	r4,#1
	LSL	r4,#16
	MOV	r8,r4
.LM35:
	MOV	r6,#1
	LSL	r6,#10
.LM36:
	MOV	r10,r5
	JMP	.L24
.LVL12:
.L26:
	CMP	r7,r10
	JLS	.L28
.LVL13:
.L24:
.LM37:
	MOV	r0,r8
	MOV	r1,sp
	MOV	r2,#1
	LSL	r2,#10
	LJMP	flash_read_nbyte
.LVL14:
.LM38:
	MOV	r0,#0
	LJMP	INT_All_Enable
.LVL15:
.LM39:
	MOV	r0,r9
	MOV	r1,sp
	MOV	r2,#128
	LJMP	flash_write_page
.LVL16:
.LM40:
	MOV	r0,#1
	LJMP	INT_All_Enable
.LVL17:
.LM41:
	SUB	r7,r7,r6
.LVL18:
.LM42:
	ADD	r8,r6
.LVL19:
.LM43:
	ADD	r9,r6
.LVL20:
.LM44:
	CMP	r7,#0
	JNZ	.L26
.LVL21:
.L21:
.LM45:
	MOV	r5,#1
	LSL	r5,#10
	ADD	sp,r5
	.cfi_remember_state
	.cfi_def_cfa_offset 24
	POP	{r6, r7, r8, r9, r10}
	.cfi_def_cfa_offset 4
.LVL22:
	POP	lr
	.cfi_def_cfa_offset 0
	JMP	lr
.LVL23:
.L32:
	.cfi_restore_state
.LM46:
	MOV	r5,#1
	LSL	r5,#16
	MOV	r8,r5
.LVL24:
.L28:
	MOV	r6,sp
.LM47:
	MOV	r4,#1
	LSL	r4,#10
	ADD	r4,sp
.LBB10:
.LM48:
	MOV	r5,#0
	NOT	r5,r5
.LVL25:
.L25:
.LM49:
	ST.w	[r6++],r5
.LM50:
	CMP	r6,r4
	JNZ	.L25
.LBE10:
.LM51:
	MOV	r0,r8
	MOV	r1,sp
	MOV	r2,r7
	LJMP	flash_read_nbyte
.LVL26:
.LM52:
	MOV	r0,#0
	LJMP	INT_All_Enable
.LVL27:
.LM53:
	MOV	r0,r9
	MOV	r1,sp
	MOV	r2,#128
	LJMP	flash_write_page
.LVL28:
.LM54:
	MOV	r0,#1
	LJMP	INT_All_Enable
.LVL29:
.LM55:
	MOV	r5,#1
	LSL	r5,#10
	ADD	sp,r5
	.cfi_def_cfa_offset 24
	POP	{r6, r7, r8, r9, r10}
	.cfi_def_cfa_offset 4
.LVL30:
	POP	lr
	.cfi_def_cfa_offset 0
	JMP	lr
	.cfi_endproc
.LFE7:
	.size	iap_app_update, .-iap_app_update
	.section .bss$static$iap_info
	.type	.bss$static$iap_info$scode_local_6, @function
	.bss$static$iap_info$scode_local_6:
	.align	2
	.type	iap_info, @object
	.size	iap_info, 28
iap_info:
	.fill 28, 1
	.text	
.Letext0: