	.file	"ota_app.c"
	.text	
.Ltext0:
	.cfi_sections	.debug_frame
	.section .rodata.str1.4
	.type	.rodata.str1.4$scode_local_1, @function
	.rodata.str1.4$scode_local_1:
	.align	2
.LC0:
	.string	"ota_app_start\r\n"
	.section .text$ota_app_start
	.type	.text$ota_app_start$scode_local_2, @function
	.text$ota_app_start$scode_local_2:
	.align	1
	.export	ota_app_start
	.type	ota_app_start, @function
ota_app_start:
.LFB1:
.LM1:
	.cfi_startproc
	PUSH	lr
	.cfi_def_cfa_offset 4
.LM2:
	LD	r0,#1073744256
	LD	r1,#.LC0
	LJMP	fprintf
.LVL0:
.LM3:
	LD	r5,#ota
	MOV	r4,#0
	ST.w	[r5+#1],r4
.LM4:
	ST.w	[r5+#2],r4
.LM5:
	ST.w	[r5+#3],r4
.LM6:
	LD	r3,#800
	ST.h	[r5+#8],r3
.LM7:
	ST.b	[r5+#18],r4
.LM8:
	POP	lr
	.cfi_def_cfa_offset 0
	JMP	lr
	.cfi_endproc
.LFE1:
	.size	ota_app_start, .-ota_app_start
	.section .text$ota_app_set_info
	.type	.text$ota_app_set_info$scode_local_3, @function
	.text$ota_app_set_info$scode_local_3:
	.align	1
	.export	ota_app_set_info
	.type	ota_app_set_info, @function
ota_app_set_info:
.LFB2:
.LM9:
	.cfi_startproc
.LVL1:
	PUSH	{r6, r7, lr}
	.cfi_def_cfa_offset 12
	MOV	r7,r0
.LM10:
	MOV	r1,#4
	LJMP	uint8_to_uint32
.LVL2:
.LM11:
	LD	r5,#100352
	CMP	r0,r5
	JHI	.L6
.LM12:
	LD	r6,#ota
	ST.w	[r6+#2],r0
.LM13:
	ADD	r0,r7,#4
.LVL3:
	MOV	r1,#4
	LJMP	uint8_to_uint32
.LVL4:
	ST.w	[r6],r0
.LM14:
	MOV	r5,#1
	ST.b	[r6+#18],r5
.LM15:
	POP	{r6, r7}
	.cfi_remember_state
	.cfi_def_cfa_offset 4
.LVL5:
	POP	lr
	.cfi_def_cfa_offset 0
	JMP	lr
.LVL6:
.L6:
	.cfi_restore_state
.LM16:
	MOV	r0,#22
.LVL7:
	LJMP	ERRLIST_add
.LVL8:
.LM17:
	POP	{r6, r7}
	.cfi_def_cfa_offset 4
.LVL9:
	POP	lr
	.cfi_def_cfa_offset 0
	JMP	lr
	.cfi_endproc
.LFE2:
	.size	ota_app_set_info, .-ota_app_set_info
	.section .rodata.str1.4
	.type	.rodata.str1.4$scode_local_4, @function
	.rodata.str1.4$scode_local_4:
	.align	2
.LC1:
	.string	"firmwareId error!!!\r\n"
	.align	2
.LC2:
	.string	"write data %d\r\n"
	.section .text$ota_app_recvpkg
	.type	.text$ota_app_recvpkg$scode_local_5, @function
	.text$ota_app_recvpkg$scode_local_5:
	.align	1
	.export	ota_app_recvpkg
	.type	ota_app_recvpkg, @function
ota_app_recvpkg:
.LFB3:
.LM18:
	.cfi_startproc
.LVL10:
	PUSH	{r6, r7, r8, r9, lr}
	.cfi_def_cfa_offset 20
.LM19:
	LD	r6,#ota
	LD.b	r5,[r6+#18]
	CMP	r5,#0
	JZ	.L14
.LM20:
	LD.b	r7,[r0+#1]
	LSL	r7,#8
	LD.b	r5,[r0]
	ORL	r7,r7,r5
.LVL11:
.LM21:
	LD	r5,#800
	CMP	r7,r5
	JHI	.L15
.LM22:
	LD.h	r5,[r6+#8]
	CMP	r5,r7
	JZ	.L7
.LM23:
	ST.h	[r6+#8],r7
.LM24:
	ADD	r0,r0,#2
.LVL12:
	MOV	r8,r0
.LVL13:
.LM25:
	LD.w	r5,[r6+#3]
	MOV	r1,#128
	ADD	r3,r5,r1
	LD.w	r4,[r6+#2]
	CMP	r3,r4
	JLS	.L16
.LM26:
	LD.w	r3,[r6+#1]
	MOV	r9,r3
	SUB	r1,r4,r5
	LJMP	CalChecksum
.LVL14:
	ADD	r0,r9
	ST.w	[r6+#1],r0
.LM27:
	LD	r5,#880
	ADD	r7,r7,r5
.LVL15:
	LSL	r7,#7
.LVL16:
.LM28:
	LD	r5,#1023
	ANL	r5,r7,r5
	JZ	.L17
.L13:
.LM29:
	MOV	r0,r7
	MOV	r1,r8
	MOV	r2,#128
	LJMP	flash_write_buf
.LVL17:
.LM30:
	LD	r0,#1073744256
	LD	r1,#.LC2
	LD.h	r2,[r6+#8]
	LJMP	fprintf
.LVL18:
.L7:
.LM31:
	POP	{r6, r7, r8, r9}
	.cfi_remember_state
	.cfi_def_cfa_offset 4
	POP	lr
	.cfi_def_cfa_offset 0
	JMP	lr
.LVL19:
.L16:
	.cfi_restore_state
.LM32:
	ST.w	[r6+#3],r3
.LM33:
	LD.w	r3,[r6+#1]
	MOV	r9,r3
	LJMP	CalChecksum
.LVL20:
	ADD	r0,r9
	ST.w	[r6+#1],r0
.LM34:
	LD	r5,#880
	ADD	r7,r7,r5
.LVL21:
	LSL	r7,#7
.LVL22:
.LM35:
	LD	r5,#1023
	ANL	r5,r7,r5
	JNZ	.L13
.L17:
.LM36:
	MOV	r0,r7
	LJMP	flash_erase_page
.LVL23:
	JMP	.L13
.LVL24:
.L14:
.LM37:
	LD	r0,#1073744256
.LVL25:
	LD	r1,#.LC1
	LJMP	fprintf
.LVL26:
.LM38:
	POP	{r6, r7, r8, r9}
	.cfi_remember_state
	.cfi_def_cfa_offset 4
	POP	lr
	.cfi_def_cfa_offset 0
	JMP	lr
.LVL27:
.L15:
	.cfi_restore_state
.LM39:
	MOV	r0,#20
.LVL28:
	LJMP	ERRLIST_add
.LVL29:
.LM40:
	POP	{r6, r7, r8, r9}
	.cfi_def_cfa_offset 4
.LVL30:
	POP	lr
	.cfi_def_cfa_offset 0
	JMP	lr
	.cfi_endproc
.LFE3:
	.size	ota_app_recvpkg, .-ota_app_recvpkg
	.section .rodata.str1.4
	.type	.rodata.str1.4$scode_local_6, @function
	.rodata.str1.4$scode_local_6:
	.align	2
.LC3:
	.string	"md5:"
	.align	2
.LC4:
	.string	"%02x"
	.align	2
.LC5:
	.string	"\r\n"
	.align	2
.LC6:
	.string	"ota_app_end\r\n"
	.section .text$ota_app_end
	.type	.text$ota_app_end$scode_local_7, @function
	.text$ota_app_end$scode_local_7:
	.align	1
	.export	ota_app_end
	.type	ota_app_end, @function
ota_app_end:
.LFB4:
.LM41:
	.cfi_startproc
	PUSH	{r6, r7, lr}
	.cfi_def_cfa_offset 12
	SUB	sp,#44
	.cfi_def_cfa_offset 56
.LVL31:
.LM42:
	LD	r4,#1454069419
	ST.w	[sp+#10],r4
.LVL32:
.LM43:
	MOV	r5,#0
	MOV	r6,sp
	ST.w	[r6++],r5
	ST.w	[sp+#1],r5
	ADD	r6,r6,#4
	ST.w	[r6++],r5
	ST.w	[r6++],r5
	ST.w	[r6++],r5
	ST.w	[r6],r5
.LM44:
	ST.w	[sp+#6],r5
	ST.w	[sp+#7],r5
	ST.w	[sp+#8],r5
	ST.w	[sp+#9],r5
.LM45:
	LD	r5,#ota
	LD.b	r6,[r5+#18]
	CMP	r6,#0
	JZ	.L24
.LM46:
	LD.w	r3,[r5]
	LD.w	r5,[r5+#1]
.LM47:
	MOV	r0,#21
.LM48:
	CMP	r3,r5
	JZ	.L25
.LVL33:
.L20:
.LM49:
	ADD	sp,#44
	.cfi_remember_state
	.cfi_def_cfa_offset 12
	POP	{r6, r7}
	.cfi_def_cfa_offset 4
	POP	lr
	.cfi_def_cfa_offset 0
	JMP	lr
.LVL34:
.L24:
	.cfi_restore_state
.LM50:
	LD	r0,#1073744256
	LD	r1,#.LC1
	LJMP	fprintf
.LVL35:
.LM51:
	MOV	r0,r6
.LM52:
	ADD	sp,#44
	.cfi_remember_state
	.cfi_def_cfa_offset 12
	POP	{r6, r7}
	.cfi_def_cfa_offset 4
	POP	lr
	.cfi_def_cfa_offset 0
	JMP	lr
.L25:
	.cfi_restore_state
.LM53:
	MOV	r7,sp
	ADD	r7,#40
	ST.w	[sp],r4
.LVL36:
.LM54:
	LD	r5,#ota+8
	LD.w	r1,[r5]
	ST.w	[sp+#1],r1
.LVL37:
.LM55:
	LD	r0,#112640
	MOV	r2,sp
	ADD	r2,#24
	LJMP	md5_flash
.LVL38:
.LM56:
	LD.w	r5,[sp+#6]
	ST.w	[sp+#2],r5
	LD.w	r5,[sp+#7]
	ST.w	[sp+#3],r5
	LD.w	r5,[sp+#8]
	ST.w	[sp+#4],r5
	LD.w	r5,[sp+#9]
	ST.w	[sp+#5],r5
.LVL39:
.LM57:
	LD	r0,#260096
	MOV	r1,sp
	MOV	r2,#24
	LJMP	flash_write_buf
.LVL40:
.LM58:
	LD	r0,#1073744256
	LD	r1,#.LC3
	LJMP	fprintf
.LVL41:
	MOV	r6,sp
	ADD	r6,#24
.LVL42:
.L21:
.LBB2:
.LM59:
	LD	r0,#1073744256
	LD	r1,#.LC4
	LD.b	r2,[r6++]
	LJMP	fprintf
.LVL43:
.LM60:
	CMP	r7,r6
	JNZ	.L21
.LBE2:
.LM61:
	LD	r0,#1073744256
	LD	r1,#.LC5
	LJMP	fprintf
.LVL44:
.LM62:
	LD	r0,#1073744256
	LD	r1,#.LC6
	LJMP	fprintf
.LVL45:
.LM63:
	MOV	r0,#0
	JMP	.L20
	.cfi_endproc
.LFE4:
	.size	ota_app_end, .-ota_app_end
	.section .bss$static$ota
	.type	.bss$static$ota$scode_local_8, @function
	.bss$static$ota$scode_local_8:
	.align	2
	.type	ota, @object
	.size	ota, 20
ota:
	.fill 20, 1
	.text	
.Letext0: