	.file	"ota_boot.c"
	.text	
.Ltext0:
	.cfi_sections	.debug_frame
	.section .text$is_app_valid
	.type	.text$is_app_valid$scode_local_1, @function
	.text$is_app_valid$scode_local_1:
	.align	1
	.export	is_app_valid
	.type	is_app_valid, @function
is_app_valid:
.LFB3:
.LM1:
	.cfi_startproc
.LVL0:
.LBB6:
.LBB7:
.LM2:
	LD.w	r5,[r0]
.LBE7:
.LBE6:
.LM3:
	MOV	r3,#1
	LSL	r3,#28
	SUB	r3,r5,r3
.LM4:
	MOV	r0,#0
.LVL1:
.LM5:
	LD	r4,#98304
	CMP	r3,r4
	JHI	.L2
.LM6:
	MOV	r4,#3
	ANL	r5,r5,r4
	MOV	r4,#1
	CMP	r5,r0
	JNZ	.L9
.LM7:
	ZXT.b	r0,r4
.L2:
.LM8:
	JMP	lr
.L9:
.LM9:
	MOV	r4,r0
.LM10:
	ZXT.b	r0,r4
	JMP	.L2
	.cfi_endproc
.LFE3:
	.size	is_app_valid, .-is_app_valid
	.section .text$jump_to_app
	.type	.text$jump_to_app$scode_local_2, @function
	.text$jump_to_app$scode_local_2:
	.align	1
	.export	jump_to_app
	.type	jump_to_app, @function
jump_to_app:
.LFB4:
.LM11:
	.cfi_startproc
.LVL2:
	PUSH	lr
	.cfi_def_cfa_offset 4
.LM12:
	LD	r5,#1075839152
	ST.w	[r5+#3],r0
.LVL3:
.LBB8:
.LBB9:
.LM13:
	LD.w	r5,[r0+#1]
.LVL4:
.LBE9:
.LBE8:
.LM14:
	LJMP	r5
.LVL5:
	.cfi_endproc
.LFE4:
	.size	jump_to_app, .-jump_to_app
	.section .text$ota_app_verify
	.type	.text$ota_app_verify$scode_local_3, @function
	.text$ota_app_verify$scode_local_3:
	.align	1
	.export	ota_app_verify
	.type	ota_app_verify, @function
ota_app_verify:
.LFB5:
.LM15:
	.cfi_startproc
	PUSH	{r6, lr}
	.cfi_def_cfa_offset 8
	SUB	sp,#16
	.cfi_def_cfa_offset 24
.LVL6:
.LM16:
	LD	r6,#ota_info
	LD	r0,#260096
	MOV	r1,r6
	MOV	r2,#24
	LJMP	flash_read_buf
.LVL7:
.LM17:
	LD.w	r4,[r6]
.LM18:
	MOV	r0,#1
.LM19:
	LD	r5,#1454069419
	CMP	r4,r5
	JZ	.L15
.L12:
.LM20:
	ADD	sp,#16
	.cfi_remember_state
	.cfi_def_cfa_offset 8
	POP	r6
	.cfi_def_cfa_offset 4
	POP	lr
	.cfi_def_cfa_offset 0
	JMP	lr
.L15:
	.cfi_restore_state
.LM21:
	LD.w	r1,[r6+#1]
	SUB	r4,r1,r0
	LD	r5,#100351
	CMP	r4,r5
	JHI	.L12
.LM22:
	LD	r0,#112640
	MOV	r2,sp
	LJMP	md5_flash
.LVL8:
.LM23:
	MOV	r0,sp
	LD	r1,#ota_info+8
	MOV	r2,#16
	LJMP	memcmp
.LVL9:
	MOV	r5,#0
	SUB	r5,r5,r0
	ORL	r0,r5,r0
.LM24:
	LSR	r0,#31
.LM25:
	ADD	sp,#16
	.cfi_def_cfa_offset 8
	POP	r6
	.cfi_def_cfa_offset 4
	POP	lr
	.cfi_def_cfa_offset 0
	JMP	lr
	.cfi_endproc
.LFE5:
	.size	ota_app_verify, .-ota_app_verify
	.section .text$ota_info_clear
	.type	.text$ota_info_clear$scode_local_4, @function
	.text$ota_info_clear$scode_local_4:
	.align	1
	.export	ota_info_clear
	.type	ota_info_clear, @function
ota_info_clear:
.LFB6:
.LM26:
	.cfi_startproc
	PUSH	lr
	.cfi_def_cfa_offset 4
.LM27:
	LD	r0,#260096
	LJMP	flash_erase_page
.LVL10:
.LM28:
	MOV	r4,#0
	LD	r5,#ota_info
	ST.w	[r5],r4
	LD	r5,#ota_info+4
	ST.w	[r5],r4
	LD	r5,#ota_info+8
	ST.w	[r5],r4
	LD	r5,#ota_info+12
	ST.w	[r5],r4
	LD	r5,#ota_info+16
	ST.w	[r5],r4
	LD	r5,#ota_info+20
	ST.w	[r5],r4
.LM29:
	POP	lr
	.cfi_def_cfa_offset 0
	JMP	lr
	.cfi_endproc
.LFE6:
	.size	ota_info_clear, .-ota_info_clear
	.section .text$ota_app_update
	.type	.text$ota_app_update$scode_local_5, @function
	.text$ota_app_update$scode_local_5:
	.align	1
	.export	ota_app_update
	.type	ota_app_update, @function
ota_app_update:
.LFB7:
.LM30:
	.cfi_startproc
	PUSH	{r6, r7, r8, r9, r10, lr}
	.cfi_def_cfa_offset 24
	MOV	r5,#1
	LSL	r5,#10
	SUB	sp,r5
	.cfi_def_cfa_offset 1048
.LM31:
	LD	r5,#ota_info
	LD.w	r6,[r5+#1]
.LVL11:
.LM32:
	LD	r0,#12288
	LD	r1,#112640
	LJMP	flash_erase_range
.LVL12:
.LM33:
	CMP	r6,#0
	JZ	.L17
.LM34:
	LD	r5,#1023
	CMP	r6,r5
	JLS	.L25
	LD	r4,#12288
	MOV	r8,r4
	LD	r7,#112640
.LM35:
	MOV	r9,#1
	LSL	r9,#10
.LM36:
	MOV	r10,r5
	JMP	.L23
.LVL13:
.L21:
	CMP	r6,r10
	JLS	.L20
.LVL14:
.L23:
.LM37:
	MOV	r0,r7
	MOV	r1,sp
	MOV	r2,#1
	LSL	r2,#10
	LJMP	flash_read_buf
.LVL15:
.LM38:
	MOV	r0,r8
	MOV	r1,sp
	LJMP	flash_write_page
.LVL16:
.LM39:
	SUB	r6,r9
.LVL17:
.LM40:
	ADD	r7,r9
.LVL18:
.LM41:
	ADD	r8,r9
.LVL19:
.LM42:
	CMP	r6,#0
	JNZ	.L21
.LVL20:
.L17:
.LM43:
	MOV	r5,#1
	LSL	r5,#10
	ADD	sp,r5
	.cfi_remember_state
	.cfi_def_cfa_offset 24
	POP	{r6, r7, r8, r9, r10}
	.cfi_def_cfa_offset 4
	POP	lr
	.cfi_def_cfa_offset 0
	JMP	lr
.LVL21:
.L25:
	.cfi_restore_state
.LM44:
	LD	r5,#12288
	MOV	r8,r5
.LM45:
	LD	r7,#112640
.LVL22:
.L20:
.LM46:
	MOV	r0,r7
	MOV	r1,sp
	MOV	r2,r6
	LJMP	flash_read_buf
.LVL23:
.LM47:
	MOV	r0,r8
	MOV	r1,sp
	MOV	r2,r6
	LJMP	flash_write_buf
.LVL24:
.LM48:
	MOV	r5,#1
	LSL	r5,#10
	ADD	sp,r5
	.cfi_def_cfa_offset 24
	POP	{r6, r7, r8, r9, r10}
	.cfi_def_cfa_offset 4
	POP	lr
	.cfi_def_cfa_offset 0
	JMP	lr
	.cfi_endproc
.LFE7:
	.size	ota_app_update, .-ota_app_update
	.section .bss$static$ota_info
	.type	.bss$static$ota_info$scode_local_6, @function
	.bss$static$ota_info$scode_local_6:
	.align	2
	.type	ota_info, @object
	.size	ota_info, 24
ota_info:
	.fill 24, 1
	.text	
.Letext0: