	.file	"kf32f_basic_btim.c"
	.text	
.Ltext0:
	.cfi_sections	.debug_frame
	.section .text$TIM_Reset
	.type	.text$TIM_Reset$scode_local_1, @function
	.text$TIM_Reset$scode_local_1:
	.align	1
	.export	TIM_Reset
	.type	TIM_Reset, @function
TIM_Reset:
.LFB1:
.LM1:
	.cfi_startproc
.LVL0:
	PUSH	{r6, lr}
	.cfi_def_cfa_offset 8
	MOV	r6,r0
.LM2:
	LD	r5,#1073744000
	CMP	r0,r5
	JZ	.L18
.LM3:
	LD	r5,#1073742080
	CMP	r0,r5
	JZ	.L19
.LM4:
	LD	r5,#1073742208
	CMP	r0,r5
	JZ	.L20
.LM5:
	LD	r5,#1073742336
	CMP	r0,r5
	JZ	.L21
.LM6:
	LD	r5,#1073742464
	CMP	r0,r5
	JZ	.L22
.LVL1:
.L9:
.LM7:
	LD	r5,#1073742592
	CMP	r6,r5
	JZ	.L23
.L6:
.LM8:
	LD	r5,#1073742848
	CMP	r6,r5
	JZ	.L15
.LM9:
	LD	r5,#1073747968
	CMP	r6,r5
	JZ	.L24
.L8:
.LM10:
	LD	r5,#1073748096
	CMP	r6,r5
	JZ	.L25
.L10:
.LM11:
	LD	r5,#1073748608
	CMP	r6,r5
	JZ	.L26
.L11:
.LM12:
	LD	r5,#1073748736
	CMP	r6,r5
	JZ	.L27
.L12:
.LM13:
	LD	r5,#1073743104
	CMP	r6,r5
	JZ	.L28
.L13:
.LM14:
	LD	r5,#1073741952
	CMP	r6,r5
	JZ	.L29
.L1:
.LM15:
	POP	r6
	.cfi_remember_state
	.cfi_def_cfa_offset 4
.LVL2:
	POP	lr
	.cfi_def_cfa_offset 0
	JMP	lr
.LVL3:
.L29:
	.cfi_restore_state
.LM16:
	MOV	r0,#2
	MOV	r1,#1
	LJMP	RST_CTL1_Peripheral_Reset_Enable
.LVL4:
.LM17:
	MOV	r0,#2
	MOV	r1,#0
	LJMP	RST_CTL1_Peripheral_Reset_Enable
.LVL5:
.LM18:
	MOV	r0,#2
	MOV	r1,#1
	LJMP	PCLK_CTL1_Peripheral_Clock_Enable
.LVL6:
.LM19:
	POP	r6
	.cfi_remember_state
	.cfi_def_cfa_offset 4
.LVL7:
	POP	lr
	.cfi_def_cfa_offset 0
	JMP	lr
.LVL8:
.L18:
	.cfi_restore_state
.LM20:
	MOV	r0,#1
.LVL9:
	LSL	r0,#17
	MOV	r1,#1
	LJMP	RST_CTL1_Peripheral_Reset_Enable
.LVL10:
.LM21:
	MOV	r0,#1
	LSL	r0,#17
	MOV	r1,#0
	LJMP	RST_CTL1_Peripheral_Reset_Enable
.LVL11:
.LM22:
	MOV	r0,#1
	LSL	r0,#17
	MOV	r1,#1
	LJMP	PCLK_CTL1_Peripheral_Clock_Enable
.LVL12:
	JMP	.L9
.LVL13:
.L19:
.LM23:
	MOV	r0,#4
.LVL14:
	MOV	r1,#1
	LJMP	RST_CTL1_Peripheral_Reset_Enable
.LVL15:
.LM24:
	MOV	r0,#4
	MOV	r1,#0
	LJMP	RST_CTL1_Peripheral_Reset_Enable
.LVL16:
.LM25:
	MOV	r0,#4
	MOV	r1,#1
	LJMP	PCLK_CTL1_Peripheral_Clock_Enable
.LVL17:
	JMP	.L9
.LVL18:
.L20:
.LM26:
	MOV	r0,#8
.LVL19:
	MOV	r1,#1
	LJMP	RST_CTL1_Peripheral_Reset_Enable
.LVL20:
.LM27:
	MOV	r0,#8
	MOV	r1,#0
	LJMP	RST_CTL1_Peripheral_Reset_Enable
.LVL21:
.LM28:
	MOV	r0,#8
	MOV	r1,#1
	LJMP	PCLK_CTL1_Peripheral_Clock_Enable
.LVL22:
	JMP	.L6
.LVL23:
.L21:
.LM29:
	MOV	r0,#16
.LVL24:
	MOV	r1,#1
	LJMP	RST_CTL1_Peripheral_Reset_Enable
.LVL25:
.LM30:
	MOV	r0,#16
	MOV	r1,#0
	LJMP	RST_CTL1_Peripheral_Reset_Enable
.LVL26:
.LM31:
	MOV	r0,#16
	MOV	r1,#1
	LJMP	PCLK_CTL1_Peripheral_Clock_Enable
.LVL27:
	JMP	.L8
.LVL28:
.L22:
.LM32:
	MOV	r0,#32
.LVL29:
	MOV	r1,#1
	LJMP	RST_CTL1_Peripheral_Reset_Enable
.LVL30:
.LM33:
	MOV	r0,#32
	MOV	r1,#0
	LJMP	RST_CTL1_Peripheral_Reset_Enable
.LVL31:
.LM34:
	MOV	r0,#32
	MOV	r1,#1
	LJMP	PCLK_CTL1_Peripheral_Clock_Enable
.LVL32:
	JMP	.L10
.L23:
.LM35:
	MOV	r0,#64
	MOV	r1,#1
	LJMP	RST_CTL1_Peripheral_Reset_Enable
.LVL33:
.LM36:
	MOV	r0,#64
	MOV	r1,#0
	LJMP	RST_CTL1_Peripheral_Reset_Enable
.LVL34:
.LM37:
	MOV	r0,#64
	MOV	r1,#1
	LJMP	PCLK_CTL1_Peripheral_Clock_Enable
.LVL35:
.LM38:
	MOV	r0,#64
	MOV	r1,#1
	LJMP	RST_CTL1_Peripheral_Reset_Enable
.LVL36:
.LM39:
	MOV	r0,#64
	MOV	r1,#0
	LJMP	RST_CTL1_Peripheral_Reset_Enable
.LVL37:
.LM40:
	MOV	r0,#64
	MOV	r1,#1
	LJMP	PCLK_CTL1_Peripheral_Clock_Enable
.LVL38:
	JMP	.L11
.L15:
.LM41:
	MOV	r0,#255
	ADD	r0,r0,#1
	MOV	r1,#1
	LJMP	RST_CTL1_Peripheral_Reset_Enable
.LVL39:
.LM42:
	MOV	r0,#255
	ADD	r0,r0,#1
	MOV	r1,#0
	LJMP	RST_CTL1_Peripheral_Reset_Enable
.LVL40:
.LM43:
	MOV	r0,#255
	ADD	r0,r0,#1
	MOV	r1,#1
	LJMP	PCLK_CTL1_Peripheral_Clock_Enable
.LVL41:
.LM44:
	MOV	r0,#255
	ADD	r0,r0,#1
	MOV	r1,#1
	LJMP	RST_CTL1_Peripheral_Reset_Enable
.LVL42:
.LM45:
	MOV	r0,#255
	ADD	r0,r0,#1
	MOV	r1,#0
	LJMP	RST_CTL1_Peripheral_Reset_Enable
.LVL43:
.LM46:
	MOV	r0,#255
	ADD	r0,r0,#1
	MOV	r1,#1
	LJMP	PCLK_CTL1_Peripheral_Clock_Enable
.LVL44:
	JMP	.L12
.L24:
.LM47:
	MOV	r0,#1
	LSL	r0,#16
	MOV	r1,#1
	LJMP	RST_CTL2_Peripheral_Reset_Enable
.LVL45:
.LM48:
	MOV	r0,#1
	LSL	r0,#16
	MOV	r1,#0
	LJMP	RST_CTL2_Peripheral_Reset_Enable
.LVL46:
.LM49:
	MOV	r0,#1
	LSL	r0,#16
	MOV	r1,#1
	LJMP	PCLK_CTL2_Peripheral_Clock_Enable
.LVL47:
	JMP	.L13
.L25:
.LM50:
	MOV	r0,#1
	LSL	r0,#17
	MOV	r1,#1
	LJMP	RST_CTL2_Peripheral_Reset_Enable
.LVL48:
.LM51:
	MOV	r0,#1
	LSL	r0,#17
	MOV	r1,#0
	LJMP	RST_CTL2_Peripheral_Reset_Enable
.LVL49:
.LM52:
	MOV	r0,#1
	LSL	r0,#17
	MOV	r1,#1
	LJMP	PCLK_CTL2_Peripheral_Clock_Enable
.LVL50:
	JMP	.L1
.L26:
.LM53:
	MOV	r0,#1
	LSL	r0,#21
	MOV	r1,#1
	LJMP	RST_CTL2_Peripheral_Reset_Enable
.LVL51:
.LM54:
	MOV	r0,#1
	LSL	r0,#21
	MOV	r1,#0
	LJMP	RST_CTL2_Peripheral_Reset_Enable
.LVL52:
.LM55:
	MOV	r0,#1
	LSL	r0,#21
	MOV	r1,#1
	LJMP	PCLK_CTL2_Peripheral_Clock_Enable
.LVL53:
	JMP	.L1
.L27:
.LM56:
	MOV	r0,#1
	LSL	r0,#22
	MOV	r1,#1
	LJMP	RST_CTL2_Peripheral_Reset_Enable
.LVL54:
.LM57:
	MOV	r0,#1
	LSL	r0,#22
	MOV	r1,#0
	LJMP	RST_CTL2_Peripheral_Reset_Enable
.LVL55:
.LM58:
	MOV	r0,#1
	LSL	r0,#22
	MOV	r1,#1
	LJMP	PCLK_CTL2_Peripheral_Clock_Enable
.LVL56:
	JMP	.L1
.L28:
.LM59:
	MOV	r0,#1
	LSL	r0,#10
	MOV	r1,#1
	LJMP	RST_CTL1_Peripheral_Reset_Enable
.LVL57:
.LM60:
	MOV	r0,#1
	LSL	r0,#10
	MOV	r1,#0
	LJMP	RST_CTL1_Peripheral_Reset_Enable
.LVL58:
.LM61:
	MOV	r0,#1
	LSL	r0,#10
	MOV	r1,#1
	LJMP	PCLK_CTL1_Peripheral_Clock_Enable
.LVL59:
	JMP	.L1
	.cfi_endproc
.LFE1:
	.size	TIM_Reset, .-TIM_Reset
	.section .text$BTIM_Configuration
	.type	.text$BTIM_Configuration$scode_local_2, @function
	.text$BTIM_Configuration$scode_local_2:
	.align	1
	.export	BTIM_Configuration
	.type	BTIM_Configuration, @function
BTIM_Configuration:
.LFB2:
.LM62:
	.cfi_startproc
.LVL60:
.LM63:
	LD.h	r5,[r1]
	ST.w	[r0],r5
.LM64:
	LD.h	r5,[r1+#1]
	ST.w	[r0+#4],r5
.LM65:
	LD.h	r5,[r1+#2]
	ST.w	[r0+#3],r5
.LVL61:
.LM66:
	LD.w	r3,[r0+#1]
.LVL62:
.LM67:
	LD.h	r2,[r1+#4]
	LD.h	r5,[r1+#3]
	ORL	r4,r2,r5
	LD.h	r2,[r1+#5]
	ORL	r4,r4,r2
	LD.h	r5,[r1+#8]
	ORL	r4,r4,r5
.LM68:
	ZXT.h	r4,r4
.LBB16:
.LBB17:
.LM69:
	LD	r5,#-479
	ANL	r5,r3,r5
	ORL	r5,r4,r5
.LBE17:
.LBE16:
.LM70:
	ST.w	[r0+#1],r5
.LVL63:
.LM71:
	LD.w	r3,[r0+#2]
.LVL64:
.LM72:
	LD.h	r2,[r1+#7]
	LD.h	r5,[r1+#6]
	ORL	r4,r2,r5
	ZXT.h	r4,r4
.LM73:
	LD.h	r5,[r1+#9]
	LSL	r5,#11
.LM74:
	ORL	r5,r4,r5
.LBB18:
.LBB19:
.LM75:
	LD	r4,#-2173
	ANL	r4,r3,r4
	ORL	r5,r5,r4
.LBE19:
.LBE18:
.LM76:
	ST.w	[r0+#2],r5
.LM77:
	JMP	lr
	.cfi_endproc
.LFE2:
	.size	BTIM_Configuration, .-BTIM_Configuration
	.section .text$BTIM_Struct_Init
	.type	.text$BTIM_Struct_Init$scode_local_3, @function
	.text$BTIM_Struct_Init$scode_local_3:
	.align	1
	.export	BTIM_Struct_Init
	.type	BTIM_Struct_Init, @function
BTIM_Struct_Init:
.LFB3:
.LM78:
	.cfi_startproc
.LVL65:
.LM79:
	MOV	r5,#0
	ST.h	[r0],r5
.LM80:
	MOV	r4,#0
	NOT	r4,r4
	ST.h	[r0+#1],r4
.LM81:
	ST.h	[r0+#2],r5
.LM82:
	MOV	r4,#255
	ADD	r4,r4,#1
	ST.h	[r0+#3],r4
.LM83:
	ST.h	[r0+#4],r5
.LM84:
	ST.h	[r0+#5],r5
.LM85:
	ST.h	[r0+#6],r5
.LM86:
	ST.h	[r0+#7],r5
.LM87:
	ST.h	[r0+#8],r5
.LM88:
	ST.h	[r0+#9],r5
.LM89:
	JMP	lr
	.cfi_endproc
.LFE3:
	.size	BTIM_Struct_Init, .-BTIM_Struct_Init
	.section .text$BTIM_Cmd
	.type	.text$BTIM_Cmd$scode_local_4, @function
	.text$BTIM_Cmd$scode_local_4:
	.align	1
	.export	BTIM_Cmd
	.type	BTIM_Cmd, @function
BTIM_Cmd:
.LFB4:
.LM90:
	.cfi_startproc
.LVL66:
.LM91:
	ADD	r0,r0,#4
.LVL67:
.LM92:
	CMP	r1,#0
	JNZ	.L35
.LM93:
// inline asm begin
	// 322 "../Peripherals/src/kf32f_basic_btim.c" 1
	CLR [r0], #0
	// 0 "" 2
.LM94:
// inline asm end
	JMP	lr
.L35:
.LM95:
// inline asm begin
	// 317 "../Peripherals/src/kf32f_basic_btim.c" 1
	SET [r0], #0
	// 0 "" 2
.LM96:
// inline asm end
	JMP	lr
	.cfi_endproc
.LFE4:
	.size	BTIM_Cmd, .-BTIM_Cmd
	.section .text$BTIM_Set_Counter
	.type	.text$BTIM_Set_Counter$scode_local_5, @function
	.text$BTIM_Set_Counter$scode_local_5:
	.align	1
	.export	BTIM_Set_Counter
	.type	BTIM_Set_Counter, @function
BTIM_Set_Counter:
.LFB5:
.LM97:
	.cfi_startproc
.LVL68:
	ZXT.h	r1,r1
.LM98:
	ST.w	[r0],r1
.LM99:
	JMP	lr
	.cfi_endproc
.LFE5:
	.size	BTIM_Set_Counter, .-BTIM_Set_Counter
	.section .text$BTIM_Set_Period
	.type	.text$BTIM_Set_Period$scode_local_6, @function
	.text$BTIM_Set_Period$scode_local_6:
	.align	1
	.export	BTIM_Set_Period
	.type	BTIM_Set_Period, @function
BTIM_Set_Period:
.LFB6:
.LM100:
	.cfi_startproc
.LVL69:
	ZXT.h	r1,r1
.LM101:
	ST.w	[r0+#4],r1
.LM102:
	JMP	lr
	.cfi_endproc
.LFE6:
	.size	BTIM_Set_Period, .-BTIM_Set_Period
	.section .text$BTIM_Set_Prescaler
	.type	.text$BTIM_Set_Prescaler$scode_local_7, @function
	.text$BTIM_Set_Prescaler$scode_local_7:
	.align	1
	.export	BTIM_Set_Prescaler
	.type	BTIM_Set_Prescaler, @function
BTIM_Set_Prescaler:
.LFB7:
.LM103:
	.cfi_startproc
.LVL70:
	ZXT.h	r1,r1
.LM104:
	ST.w	[r0+#3],r1
.LM105:
	JMP	lr
	.cfi_endproc
.LFE7:
	.size	BTIM_Set_Prescaler, .-BTIM_Set_Prescaler
	.section .text$BTIM_Counter_Mode_Config
	.type	.text$BTIM_Counter_Mode_Config$scode_local_8, @function
	.text$BTIM_Counter_Mode_Config$scode_local_8:
	.align	1
	.export	BTIM_Counter_Mode_Config
	.type	BTIM_Counter_Mode_Config, @function
BTIM_Counter_Mode_Config:
.LFB8:
.LM106:
	.cfi_startproc
.LVL71:
.LM107:
	LD.w	r4,[r0+#1]
.LVL72:
.LBB20:
.LBB21:
.LM108:
	LD	r5,#-449
	ANL	r5,r4,r5
	ORL	r1,r1,r5
.LVL73:
.LBE21:
.LBE20:
.LM109:
	ST.w	[r0+#1],r1
.LM110:
	JMP	lr
	.cfi_endproc
.LFE8:
	.size	BTIM_Counter_Mode_Config, .-BTIM_Counter_Mode_Config
	.section .text$BTIM_Clock_Config
	.type	.text$BTIM_Clock_Config$scode_local_9, @function
	.text$BTIM_Clock_Config$scode_local_9:
	.align	1
	.export	BTIM_Clock_Config
	.type	BTIM_Clock_Config, @function
BTIM_Clock_Config:
.LFB9:
.LM111:
	.cfi_startproc
.LVL74:
.LM112:
	LD.w	r5,[r0+#1]
.LVL75:
.LBB22:
.LBB23:
.LM113:
	CLR	r5,#3
	CLR	r5,#4
.LVL76:
	ORL	r1,r1,r5
.LVL77:
.LBE23:
.LBE22:
.LM114:
	ST.w	[r0+#1],r1
.LM115:
	JMP	lr
	.cfi_endproc
.LFE9:
	.size	BTIM_Clock_Config, .-BTIM_Clock_Config
	.section .text$BTIM_External_Pulse_Sync_Config
	.type	.text$BTIM_External_Pulse_Sync_Config$scode_local_10, @function
	.text$BTIM_External_Pulse_Sync_Config$scode_local_10:
	.align	1
	.export	BTIM_External_Pulse_Sync_Config
	.type	BTIM_External_Pulse_Sync_Config, @function
BTIM_External_Pulse_Sync_Config:
.LFB10:
.LM116:
	.cfi_startproc
.LVL78:
.LM117:
	ADD	r0,r0,#4
.LVL79:
.LM118:
	CMP	r1,#0
	JNZ	.L44
.LM119:
// inline asm begin
	// 447 "../Peripherals/src/kf32f_basic_btim.c" 1
	CLR [r0], #2
	// 0 "" 2
.LM120:
// inline asm end
	JMP	lr
.L44:
.LM121:
// inline asm begin
	// 442 "../Peripherals/src/kf32f_basic_btim.c" 1
	SET [r0], #2
	// 0 "" 2
.LM122:
// inline asm end
	JMP	lr
	.cfi_endproc
.LFE10:
	.size	BTIM_External_Pulse_Sync_Config, .-BTIM_External_Pulse_Sync_Config
	.section .text$BTIM_Work_Mode_Config
	.type	.text$BTIM_Work_Mode_Config$scode_local_11, @function
	.text$BTIM_Work_Mode_Config$scode_local_11:
	.align	1
	.export	BTIM_Work_Mode_Config
	.type	BTIM_Work_Mode_Config, @function
BTIM_Work_Mode_Config:
.LFB11:
.LM123:
	.cfi_startproc
.LVL80:
.LM124:
	ADD	r0,r0,#4
.LVL81:
.LM125:
	CMP	r1,#0
	JNZ	.L48
.LM126:
// inline asm begin
	// 476 "../Peripherals/src/kf32f_basic_btim.c" 1
	CLR [r0], #1
	// 0 "" 2
.LM127:
// inline asm end
	JMP	lr
.L48:
.LM128:
// inline asm begin
	// 471 "../Peripherals/src/kf32f_basic_btim.c" 1
	SET [r0], #1
	// 0 "" 2
.LM129:
// inline asm end
	JMP	lr
	.cfi_endproc
.LFE11:
	.size	BTIM_Work_Mode_Config, .-BTIM_Work_Mode_Config
	.section .text$BTIM_Generate_Trigger_Config
	.type	.text$BTIM_Generate_Trigger_Config$scode_local_12, @function
	.text$BTIM_Generate_Trigger_Config$scode_local_12:
	.align	1
	.export	BTIM_Generate_Trigger_Config
	.type	BTIM_Generate_Trigger_Config, @function
BTIM_Generate_Trigger_Config:
.LFB12:
.LM130:
	.cfi_startproc
.LVL82:
.LM131:
	ADD	r0,#8
.LVL83:
.LM132:
	CMP	r1,#0
	JNZ	.L52
.LM133:
// inline asm begin
	// 503 "../Peripherals/src/kf32f_basic_btim.c" 1
	CLR [r0], #15
	// 0 "" 2
.LM134:
// inline asm end
	JMP	lr
.L52:
.LM135:
// inline asm begin
	// 498 "../Peripherals/src/kf32f_basic_btim.c" 1
	SET [r0], #15
	// 0 "" 2
.LM136:
// inline asm end
	JMP	lr
	.cfi_endproc
.LFE12:
	.size	BTIM_Generate_Trigger_Config, .-BTIM_Generate_Trigger_Config
	.section .text$BTIM_Single_Pulse_Enable
	.type	.text$BTIM_Single_Pulse_Enable$scode_local_13, @function
	.text$BTIM_Single_Pulse_Enable$scode_local_13:
	.align	1
	.export	BTIM_Single_Pulse_Enable
	.type	BTIM_Single_Pulse_Enable, @function
BTIM_Single_Pulse_Enable:
.LFB13:
.LM137:
	.cfi_startproc
.LVL84:
.LM138:
	ADD	r0,#8
.LVL85:
.LM139:
	CMP	r1,#0
	JNZ	.L56
.LM140:
// inline asm begin
	// 530 "../Peripherals/src/kf32f_basic_btim.c" 1
	CLR [r0], #14
	// 0 "" 2
.LM141:
// inline asm end
	JMP	lr
.L56:
.LM142:
// inline asm begin
	// 525 "../Peripherals/src/kf32f_basic_btim.c" 1
	SET [r0], #14
	// 0 "" 2
.LM143:
// inline asm end
	JMP	lr
	.cfi_endproc
.LFE13:
	.size	BTIM_Single_Pulse_Enable, .-BTIM_Single_Pulse_Enable
	.section .text$BTIM_Single_Pulse_Shut_Enable
	.type	.text$BTIM_Single_Pulse_Shut_Enable$scode_local_14, @function
	.text$BTIM_Single_Pulse_Shut_Enable$scode_local_14:
	.align	1
	.export	BTIM_Single_Pulse_Shut_Enable
	.type	BTIM_Single_Pulse_Shut_Enable, @function
BTIM_Single_Pulse_Shut_Enable:
.LFB14:
.LM144:
	.cfi_startproc
.LVL86:
.LM145:
	ADD	r0,#8
.LVL87:
.LM146:
	CMP	r1,#0
	JNZ	.L60
.LM147:
// inline asm begin
	// 558 "../Peripherals/src/kf32f_basic_btim.c" 1
	CLR [r0], #13
	// 0 "" 2
.LM148:
// inline asm end
	JMP	lr
.L60:
.LM149:
// inline asm begin
	// 553 "../Peripherals/src/kf32f_basic_btim.c" 1
	SET [r0], #13
	// 0 "" 2
.LM150:
// inline asm end
	JMP	lr
	.cfi_endproc
.LFE14:
	.size	BTIM_Single_Pulse_Shut_Enable, .-BTIM_Single_Pulse_Shut_Enable
	.section .text$BTIM_Updata_Immediately_Config
	.type	.text$BTIM_Updata_Immediately_Config$scode_local_15, @function
	.text$BTIM_Updata_Immediately_Config$scode_local_15:
	.align	1
	.export	BTIM_Updata_Immediately_Config
	.type	BTIM_Updata_Immediately_Config, @function
BTIM_Updata_Immediately_Config:
.LFB15:
.LM151:
	.cfi_startproc
.LVL88:
.LM152:
	ADD	r0,#8
.LVL89:
.LM153:
	CMP	r1,#0
	JNZ	.L64
.LM154:
// inline asm begin
	// 586 "../Peripherals/src/kf32f_basic_btim.c" 1
	CLR [r0], #12
	// 0 "" 2
.LM155:
// inline asm end
	JMP	lr
.L64:
.LM156:
// inline asm begin
	// 581 "../Peripherals/src/kf32f_basic_btim.c" 1
	SET [r0], #12
	// 0 "" 2
.LM157:
// inline asm end
	JMP	lr
	.cfi_endproc
.LFE15:
	.size	BTIM_Updata_Immediately_Config, .-BTIM_Updata_Immediately_Config
	.section .text$BTIM_Master_Slave_Snyc_Config
	.type	.text$BTIM_Master_Slave_Snyc_Config$scode_local_16, @function
	.text$BTIM_Master_Slave_Snyc_Config$scode_local_16:
	.align	1
	.export	BTIM_Master_Slave_Snyc_Config
	.type	BTIM_Master_Slave_Snyc_Config, @function
BTIM_Master_Slave_Snyc_Config:
.LFB16:
.LM158:
	.cfi_startproc
.LVL90:
.LM159:
	ADD	r0,#8
.LVL91:
.LM160:
	CMP	r1,#0
	JNZ	.L68
.LM161:
// inline asm begin
	// 614 "../Peripherals/src/kf32f_basic_btim.c" 1
	CLR [r0], #11
	// 0 "" 2
.LM162:
// inline asm end
	JMP	lr
.L68:
.LM163:
// inline asm begin
	// 609 "../Peripherals/src/kf32f_basic_btim.c" 1
	SET [r0], #11
	// 0 "" 2
.LM164:
// inline asm end
	JMP	lr
	.cfi_endproc
.LFE16:
	.size	BTIM_Master_Slave_Snyc_Config, .-BTIM_Master_Slave_Snyc_Config
	.section .text$BTIM_Trigger_Select_Config
	.type	.text$BTIM_Trigger_Select_Config$scode_local_17, @function
	.text$BTIM_Trigger_Select_Config$scode_local_17:
	.align	1
	.export	BTIM_Trigger_Select_Config
	.type	BTIM_Trigger_Select_Config, @function
BTIM_Trigger_Select_Config:
.LFB17:
.LM165:
	.cfi_startproc
.LVL92:
.LM166:
	LD.w	r4,[r0+#2]
.LVL93:
.LBB24:
.LBB25:
.LM167:
	LD	r5,#-1921
	ANL	r5,r4,r5
	ORL	r1,r1,r5
.LVL94:
.LBE25:
.LBE24:
.LM168:
	ST.w	[r0+#2],r1
.LM169:
	JMP	lr
	.cfi_endproc
.LFE17:
	.size	BTIM_Trigger_Select_Config, .-BTIM_Trigger_Select_Config
	.section .text$BTIM_Slave_Mode_Config
	.type	.text$BTIM_Slave_Mode_Config$scode_local_18, @function
	.text$BTIM_Slave_Mode_Config$scode_local_18:
	.align	1
	.export	BTIM_Slave_Mode_Config
	.type	BTIM_Slave_Mode_Config, @function
BTIM_Slave_Mode_Config:
.LFB18:
.LM170:
	.cfi_startproc
.LVL95:
.LM171:
	LD.w	r4,[r0+#2]
.LVL96:
.LBB26:
.LBB27:
.LM172:
	MOV	r5,#112
	NOT	r5,r5
	ANL	r5,r4,r5
	ORL	r1,r1,r5
.LVL97:
.LBE27:
.LBE26:
.LM173:
	ST.w	[r0+#2],r1
.LM174:
	JMP	lr
	.cfi_endproc
.LFE18:
	.size	BTIM_Slave_Mode_Config, .-BTIM_Slave_Mode_Config
	.section .text$BTIM_Master_Mode_Config
	.type	.text$BTIM_Master_Mode_Config$scode_local_19, @function
	.text$BTIM_Master_Mode_Config$scode_local_19:
	.align	1
	.export	BTIM_Master_Mode_Config
	.type	BTIM_Master_Mode_Config, @function
BTIM_Master_Mode_Config:
.LFB19:
.LM175:
	.cfi_startproc
.LVL98:
.LM176:
	LD.w	r5,[r0+#2]
.LVL99:
.LBB28:
.LBB29:
.LM177:
	CLR	r5,#2
	CLR	r5,#3
.LVL100:
	ORL	r1,r1,r5
.LVL101:
.LBE29:
.LBE28:
.LM178:
	ST.w	[r0+#2],r1
.LM179:
	JMP	lr
	.cfi_endproc
.LFE19:
	.size	BTIM_Master_Mode_Config, .-BTIM_Master_Mode_Config
	.section .text$BTIM_Updata_Rising_Edge_Config
	.type	.text$BTIM_Updata_Rising_Edge_Config$scode_local_20, @function
	.text$BTIM_Updata_Rising_Edge_Config$scode_local_20:
	.align	1
	.export	BTIM_Updata_Rising_Edge_Config
	.type	BTIM_Updata_Rising_Edge_Config, @function
BTIM_Updata_Rising_Edge_Config:
.LFB20:
.LM180:
	.cfi_startproc
.LVL102:
.LM181:
	ADD	r0,#8
.LVL103:
.LM182:
	CMP	r1,#0
	JNZ	.L75
.LM183:
// inline asm begin
	// 728 "../Peripherals/src/kf32f_basic_btim.c" 1
	CLR [r0], #1
	// 0 "" 2
.LM184:
// inline asm end
	JMP	lr
.L75:
.LM185:
// inline asm begin
	// 723 "../Peripherals/src/kf32f_basic_btim.c" 1
	SET [r0], #1
	// 0 "" 2
.LM186:
// inline asm end
	JMP	lr
	.cfi_endproc
.LFE20:
	.size	BTIM_Updata_Rising_Edge_Config, .-BTIM_Updata_Rising_Edge_Config
	.section .text$BTIM_Updata_Enable
	.type	.text$BTIM_Updata_Enable$scode_local_21, @function
	.text$BTIM_Updata_Enable$scode_local_21:
	.align	1
	.export	BTIM_Updata_Enable
	.type	BTIM_Updata_Enable, @function
BTIM_Updata_Enable:
.LFB21:
.LM187:
	.cfi_startproc
.LVL104:
.LM188:
	ADD	r0,#8
.LVL105:
.LM189:
	CMP	r1,#0
	JNZ	.L79
.LM190:
// inline asm begin
	// 758 "../Peripherals/src/kf32f_basic_btim.c" 1
	CLR [r0], #0
	// 0 "" 2
.LM191:
// inline asm end
	JMP	lr
.L79:
.LM192:
// inline asm begin
	// 753 "../Peripherals/src/kf32f_basic_btim.c" 1
	SET [r0], #0
	// 0 "" 2
.LM193:
// inline asm end
	JMP	lr
	.cfi_endproc
.LFE21:
	.size	BTIM_Updata_Enable, .-BTIM_Updata_Enable
	.section .text$BTIM_Get_Direction
	.type	.text$BTIM_Get_Direction$scode_local_22, @function
	.text$BTIM_Get_Direction$scode_local_22:
	.align	1
	.export	BTIM_Get_Direction
	.type	BTIM_Get_Direction, @function
BTIM_Get_Direction:
.LFB22:
.LM194:
	.cfi_startproc
.LVL106:
.LM195:
	LD.w	r0,[r0+#1]
.LVL107:
	LSR	r0,#5
.LM196:
	MOV	r5,#1
	ANL	r0,r0,r5
	JMP	lr
	.cfi_endproc
.LFE22:
	.size	BTIM_Get_Direction, .-BTIM_Get_Direction
	.section .text$BTIM_Get_Counter
	.type	.text$BTIM_Get_Counter$scode_local_23, @function
	.text$BTIM_Get_Counter$scode_local_23:
	.align	1
	.export	BTIM_Get_Counter
	.type	BTIM_Get_Counter, @function
BTIM_Get_Counter:
.LFB23:
.LM197:
	.cfi_startproc
.LVL108:
.LM198:
	LD.w	r0,[r0]
.LVL109:
.LM199:
	ZXT.h	r0,r0
	JMP	lr
	.cfi_endproc
.LFE23:
	.size	BTIM_Get_Counter, .-BTIM_Get_Counter
	.section .text$BTIM_Get_Period
	.type	.text$BTIM_Get_Period$scode_local_24, @function
	.text$BTIM_Get_Period$scode_local_24:
	.align	1
	.export	BTIM_Get_Period
	.type	BTIM_Get_Period, @function
BTIM_Get_Period:
.LFB24:
.LM200:
	.cfi_startproc
.LVL110:
.LM201:
	LD.w	r0,[r0+#4]
.LVL111:
.LM202:
	ZXT.h	r0,r0
	JMP	lr
	.cfi_endproc
.LFE24:
	.size	BTIM_Get_Period, .-BTIM_Get_Period
	.section .text$BTIM_Get_Prescaler
	.type	.text$BTIM_Get_Prescaler$scode_local_25, @function
	.text$BTIM_Get_Prescaler$scode_local_25:
	.align	1
	.export	BTIM_Get_Prescaler
	.type	BTIM_Get_Prescaler, @function
BTIM_Get_Prescaler:
.LFB25:
.LM203:
	.cfi_startproc
.LVL112:
.LM204:
	LD.w	r0,[r0+#3]
.LVL113:
.LM205:
	ZXT.h	r0,r0
	JMP	lr
	.cfi_endproc
.LFE25:
	.size	BTIM_Get_Prescaler, .-BTIM_Get_Prescaler
	.section .text$BTIM_Trigger_DMA_Enable
	.type	.text$BTIM_Trigger_DMA_Enable$scode_local_26, @function
	.text$BTIM_Trigger_DMA_Enable$scode_local_26:
	.align	1
	.export	BTIM_Trigger_DMA_Enable
	.type	BTIM_Trigger_DMA_Enable, @function
BTIM_Trigger_DMA_Enable:
.LFB26:
.LM206:
	.cfi_startproc
.LVL114:
.LM207:
	ADD	r0,#20
.LVL115:
.LM208:
	CMP	r1,#0
	JNZ	.L87
.LM209:
// inline asm begin
	// 863 "../Peripherals/src/kf32f_basic_btim.c" 1
	CLR [r0], #4
	// 0 "" 2
.LM210:
// inline asm end
	JMP	lr
.L87:
.LM211:
// inline asm begin
	// 858 "../Peripherals/src/kf32f_basic_btim.c" 1
	SET [r0], #4
	// 0 "" 2
.LM212:
// inline asm end
	JMP	lr
	.cfi_endproc
.LFE26:
	.size	BTIM_Trigger_DMA_Enable, .-BTIM_Trigger_DMA_Enable
	.section .text$BTIM_Updata_DMA_Enable
	.type	.text$BTIM_Updata_DMA_Enable$scode_local_27, @function
	.text$BTIM_Updata_DMA_Enable$scode_local_27:
	.align	1
	.export	BTIM_Updata_DMA_Enable
	.type	BTIM_Updata_DMA_Enable, @function
BTIM_Updata_DMA_Enable:
.LFB27:
.LM213:
	.cfi_startproc
.LVL116:
.LM214:
	ADD	r0,#20
.LVL117:
.LM215:
	CMP	r1,#0
	JNZ	.L91
.LM216:
// inline asm begin
	// 891 "../Peripherals/src/kf32f_basic_btim.c" 1
	CLR [r0], #3
	// 0 "" 2
.LM217:
// inline asm end
	JMP	lr
.L91:
.LM218:
// inline asm begin
	// 886 "../Peripherals/src/kf32f_basic_btim.c" 1
	SET [r0], #3
	// 0 "" 2
.LM219:
// inline asm end
	JMP	lr
	.cfi_endproc
.LFE27:
	.size	BTIM_Updata_DMA_Enable, .-BTIM_Updata_DMA_Enable
	.section .text$BTIM_Overflow_INT_Enable
	.type	.text$BTIM_Overflow_INT_Enable$scode_local_28, @function
	.text$BTIM_Overflow_INT_Enable$scode_local_28:
	.align	1
	.export	BTIM_Overflow_INT_Enable
	.type	BTIM_Overflow_INT_Enable, @function
BTIM_Overflow_INT_Enable:
.LFB28:
.LM220:
	.cfi_startproc
.LVL118:
.LM221:
	ADD	r0,#20
.LVL119:
.LM222:
	CMP	r1,#0
	JNZ	.L95
.LM223:
// inline asm begin
	// 919 "../Peripherals/src/kf32f_basic_btim.c" 1
	CLR [r0], #2
	// 0 "" 2
.LM224:
// inline asm end
	JMP	lr
.L95:
.LM225:
// inline asm begin
	// 914 "../Peripherals/src/kf32f_basic_btim.c" 1
	SET [r0], #2
	// 0 "" 2
.LM226:
// inline asm end
	JMP	lr
	.cfi_endproc
.LFE28:
	.size	BTIM_Overflow_INT_Enable, .-BTIM_Overflow_INT_Enable
	.section .text$BTIM_Trigger_INT_Enable
	.type	.text$BTIM_Trigger_INT_Enable$scode_local_29, @function
	.text$BTIM_Trigger_INT_Enable$scode_local_29:
	.align	1
	.export	BTIM_Trigger_INT_Enable
	.type	BTIM_Trigger_INT_Enable, @function
BTIM_Trigger_INT_Enable:
.LFB29:
.LM227:
	.cfi_startproc
.LVL120:
.LM228:
	ADD	r0,#20
.LVL121:
.LM229:
	CMP	r1,#0
	JNZ	.L99
.LM230:
// inline asm begin
	// 947 "../Peripherals/src/kf32f_basic_btim.c" 1
	CLR [r0], #1
	// 0 "" 2
.LM231:
// inline asm end
	JMP	lr
.L99:
.LM232:
// inline asm begin
	// 942 "../Peripherals/src/kf32f_basic_btim.c" 1
	SET [r0], #1
	// 0 "" 2
.LM233:
// inline asm end
	JMP	lr
	.cfi_endproc
.LFE29:
	.size	BTIM_Trigger_INT_Enable, .-BTIM_Trigger_INT_Enable
	.section .text$BTIM_Updata_INT_Enable
	.type	.text$BTIM_Updata_INT_Enable$scode_local_30, @function
	.text$BTIM_Updata_INT_Enable$scode_local_30:
	.align	1
	.export	BTIM_Updata_INT_Enable
	.type	BTIM_Updata_INT_Enable, @function
BTIM_Updata_INT_Enable:
.LFB30:
.LM234:
	.cfi_startproc
.LVL122:
.LM235:
	ADD	r0,#20
.LVL123:
.LM236:
	CMP	r1,#0
	JNZ	.L103
.LM237:
// inline asm begin
	// 975 "../Peripherals/src/kf32f_basic_btim.c" 1
	CLR [r0], #0
	// 0 "" 2
.LM238:
// inline asm end
	JMP	lr
.L103:
.LM239:
// inline asm begin
	// 970 "../Peripherals/src/kf32f_basic_btim.c" 1
	SET [r0], #0
	// 0 "" 2
.LM240:
// inline asm end
	JMP	lr
	.cfi_endproc
.LFE30:
	.size	BTIM_Updata_INT_Enable, .-BTIM_Updata_INT_Enable
	.section .text$BTIM_Get_Trigger_DMA_INT_Status
	.type	.text$BTIM_Get_Trigger_DMA_INT_Status$scode_local_31, @function
	.text$BTIM_Get_Trigger_DMA_INT_Status$scode_local_31:
	.align	1
	.export	BTIM_Get_Trigger_DMA_INT_Status
	.type	BTIM_Get_Trigger_DMA_INT_Status, @function
BTIM_Get_Trigger_DMA_INT_Status:
.LFB31:
.LM241:
	.cfi_startproc
.LVL124:
.LM242:
	LD.w	r0,[r0+#5]
.LVL125:
	LSR	r0,#4
.LM243:
	MOV	r5,#1
	ANL	r0,r0,r5
	JMP	lr
	.cfi_endproc
.LFE31:
	.size	BTIM_Get_Trigger_DMA_INT_Status, .-BTIM_Get_Trigger_DMA_INT_Status
	.section .text$BTIM_Get_Updata_DMA_INT_Status
	.type	.text$BTIM_Get_Updata_DMA_INT_Status$scode_local_32, @function
	.text$BTIM_Get_Updata_DMA_INT_Status$scode_local_32:
	.align	1
	.export	BTIM_Get_Updata_DMA_INT_Status
	.type	BTIM_Get_Updata_DMA_INT_Status, @function
BTIM_Get_Updata_DMA_INT_Status:
.LFB32:
.LM244:
	.cfi_startproc
.LVL126:
.LM245:
	LD.w	r0,[r0+#5]
.LVL127:
	LSR	r0,#3
.LM246:
	MOV	r5,#1
	ANL	r0,r0,r5
	JMP	lr
	.cfi_endproc
.LFE32:
	.size	BTIM_Get_Updata_DMA_INT_Status, .-BTIM_Get_Updata_DMA_INT_Status
	.section .text$BTIM_Get_Overflow_INT_Status
	.type	.text$BTIM_Get_Overflow_INT_Status$scode_local_33, @function
	.text$BTIM_Get_Overflow_INT_Status$scode_local_33:
	.align	1
	.export	BTIM_Get_Overflow_INT_Status
	.type	BTIM_Get_Overflow_INT_Status, @function
BTIM_Get_Overflow_INT_Status:
.LFB33:
.LM247:
	.cfi_startproc
.LVL128:
.LM248:
	LD.w	r0,[r0+#5]
.LVL129:
	LSR	r0,#2
.LM249:
	MOV	r5,#1
	ANL	r0,r0,r5
	JMP	lr
	.cfi_endproc
.LFE33:
	.size	BTIM_Get_Overflow_INT_Status, .-BTIM_Get_Overflow_INT_Status
	.section .text$BTIM_Get_Trigger_INT_Status
	.type	.text$BTIM_Get_Trigger_INT_Status$scode_local_34, @function
	.text$BTIM_Get_Trigger_INT_Status$scode_local_34:
	.align	1
	.export	BTIM_Get_Trigger_INT_Status
	.type	BTIM_Get_Trigger_INT_Status, @function
BTIM_Get_Trigger_INT_Status:
.LFB34:
.LM250:
	.cfi_startproc
.LVL130:
.LM251:
	LD.w	r0,[r0+#5]
.LVL131:
	LSR	r0,#1
.LM252:
	MOV	r5,#1
	ANL	r0,r0,r5
	JMP	lr
	.cfi_endproc
.LFE34:
	.size	BTIM_Get_Trigger_INT_Status, .-BTIM_Get_Trigger_INT_Status
	.section .text$BTIM_Get_Updata_INT_Status
	.type	.text$BTIM_Get_Updata_INT_Status$scode_local_35, @function
	.text$BTIM_Get_Updata_INT_Status$scode_local_35:
	.align	1
	.export	BTIM_Get_Updata_INT_Status
	.type	BTIM_Get_Updata_INT_Status, @function
BTIM_Get_Updata_INT_Status:
.LFB35:
.LM253:
	.cfi_startproc
.LVL132:
.LM254:
	LD.w	r0,[r0+#5]
.LVL133:
.LM255:
	MOV	r5,#1
	ANL	r0,r0,r5
	JMP	lr
	.cfi_endproc
.LFE35:
	.size	BTIM_Get_Updata_INT_Status, .-BTIM_Get_Updata_INT_Status
	.section .text$BTIM_Get_Trigger_DMA_INT_Flag
	.type	.text$BTIM_Get_Trigger_DMA_INT_Flag$scode_local_36, @function
	.text$BTIM_Get_Trigger_DMA_INT_Flag$scode_local_36:
	.align	1
	.export	BTIM_Get_Trigger_DMA_INT_Flag
	.type	BTIM_Get_Trigger_DMA_INT_Flag, @function
BTIM_Get_Trigger_DMA_INT_Flag:
.LFB36:
.LM256:
	.cfi_startproc
.LVL134:
.LM257:
	LD.w	r0,[r0+#6]
.LVL135:
	LSR	r0,#4
.LM258:
	MOV	r5,#1
	ANL	r0,r0,r5
	JMP	lr
	.cfi_endproc
.LFE36:
	.size	BTIM_Get_Trigger_DMA_INT_Flag, .-BTIM_Get_Trigger_DMA_INT_Flag
	.section .text$BTIM_Get_Updata_DMA_INT_Flag
	.type	.text$BTIM_Get_Updata_DMA_INT_Flag$scode_local_37, @function
	.text$BTIM_Get_Updata_DMA_INT_Flag$scode_local_37:
	.align	1
	.export	BTIM_Get_Updata_DMA_INT_Flag
	.type	BTIM_Get_Updata_DMA_INT_Flag, @function
BTIM_Get_Updata_DMA_INT_Flag:
.LFB37:
.LM259:
	.cfi_startproc
.LVL136:
.LM260:
	LD.w	r0,[r0+#6]
.LVL137:
	LSR	r0,#3
.LM261:
	MOV	r5,#1
	ANL	r0,r0,r5
	JMP	lr
	.cfi_endproc
.LFE37:
	.size	BTIM_Get_Updata_DMA_INT_Flag, .-BTIM_Get_Updata_DMA_INT_Flag
	.section .text$BTIM_Get_Overflow_INT_Flag
	.type	.text$BTIM_Get_Overflow_INT_Flag$scode_local_38, @function
	.text$BTIM_Get_Overflow_INT_Flag$scode_local_38:
	.align	1
	.export	BTIM_Get_Overflow_INT_Flag
	.type	BTIM_Get_Overflow_INT_Flag, @function
BTIM_Get_Overflow_INT_Flag:
.LFB38:
.LM262:
	.cfi_startproc
.LVL138:
.LM263:
	LD.w	r0,[r0+#6]
.LVL139:
	LSR	r0,#2
.LM264:
	MOV	r5,#1
	ANL	r0,r0,r5
	JMP	lr
	.cfi_endproc
.LFE38:
	.size	BTIM_Get_Overflow_INT_Flag, .-BTIM_Get_Overflow_INT_Flag
	.section .text$BTIM_Get_Trigger_INT_Flag
	.type	.text$BTIM_Get_Trigger_INT_Flag$scode_local_39, @function
	.text$BTIM_Get_Trigger_INT_Flag$scode_local_39:
	.align	1
	.export	BTIM_Get_Trigger_INT_Flag
	.type	BTIM_Get_Trigger_INT_Flag, @function
BTIM_Get_Trigger_INT_Flag:
.LFB39:
.LM265:
	.cfi_startproc
.LVL140:
.LM266:
	LD.w	r0,[r0+#6]
.LVL141:
	LSR	r0,#1
.LM267:
	MOV	r5,#1
	ANL	r0,r0,r5
	JMP	lr
	.cfi_endproc
.LFE39:
	.size	BTIM_Get_Trigger_INT_Flag, .-BTIM_Get_Trigger_INT_Flag
	.section .text$BTIM_Get_Updata_INT_Flag
	.type	.text$BTIM_Get_Updata_INT_Flag$scode_local_40, @function
	.text$BTIM_Get_Updata_INT_Flag$scode_local_40:
	.align	1
	.export	BTIM_Get_Updata_INT_Flag
	.type	BTIM_Get_Updata_INT_Flag, @function
BTIM_Get_Updata_INT_Flag:
.LFB40:
.LM268:
	.cfi_startproc
.LVL142:
.LM269:
	LD.w	r0,[r0+#6]
.LVL143:
.LM270:
	MOV	r5,#1
	ANL	r0,r0,r5
	JMP	lr
	.cfi_endproc
.LFE40:
	.size	BTIM_Get_Updata_INT_Flag, .-BTIM_Get_Updata_INT_Flag
	.section .text$BTIM_Clear_Overflow_INT_Flag
	.type	.text$BTIM_Clear_Overflow_INT_Flag$scode_local_41, @function
	.text$BTIM_Clear_Overflow_INT_Flag$scode_local_41:
	.align	1
	.export	BTIM_Clear_Overflow_INT_Flag
	.type	BTIM_Clear_Overflow_INT_Flag, @function
BTIM_Clear_Overflow_INT_Flag:
.LFB41:
.LM271:
	.cfi_startproc
.LVL144:
.LM272:
	MOV	r5,#28
	ADD	r3,r0,r5
// inline asm begin
	// 1231 "../Peripherals/src/kf32f_basic_btim.c" 1
	SET [r3], #2
	// 0 "" 2
.LM273:
// inline asm end
	MOV	r4,#4
.L115:
.LM274:
	LD.w	r5,[r0+#6]
	ANL	r5,r5,r4
	JNZ	.L115
.LM275:
// inline asm begin
	// 1233 "../Peripherals/src/kf32f_basic_btim.c" 1
	CLR [r3], #2
	// 0 "" 2
.LM276:
// inline asm end
	JMP	lr
	.cfi_endproc
.LFE41:
	.size	BTIM_Clear_Overflow_INT_Flag, .-BTIM_Clear_Overflow_INT_Flag
	.section .text$BTIM_Clear_Trigger_INT_Flag
	.type	.text$BTIM_Clear_Trigger_INT_Flag$scode_local_42, @function
	.text$BTIM_Clear_Trigger_INT_Flag$scode_local_42:
	.align	1
	.export	BTIM_Clear_Trigger_INT_Flag
	.type	BTIM_Clear_Trigger_INT_Flag, @function
BTIM_Clear_Trigger_INT_Flag:
.LFB42:
.LM277:
	.cfi_startproc
.LVL145:
.LM278:
	MOV	r5,#28
	ADD	r3,r0,r5
// inline asm begin
	// 1248 "../Peripherals/src/kf32f_basic_btim.c" 1
	SET [r3], #1
	// 0 "" 2
.LM279:
// inline asm end
	MOV	r4,#2
.L118:
.LM280:
	LD.w	r5,[r0+#6]
	ANL	r5,r5,r4
	JNZ	.L118
.LM281:
// inline asm begin
	// 1250 "../Peripherals/src/kf32f_basic_btim.c" 1
	CLR [r3], #1
	// 0 "" 2
.LM282:
// inline asm end
	JMP	lr
	.cfi_endproc
.LFE42:
	.size	BTIM_Clear_Trigger_INT_Flag, .-BTIM_Clear_Trigger_INT_Flag
	.section .text$BTIM_Clear_Updata_INT_Flag
	.type	.text$BTIM_Clear_Updata_INT_Flag$scode_local_43, @function
	.text$BTIM_Clear_Updata_INT_Flag$scode_local_43:
	.align	1
	.export	BTIM_Clear_Updata_INT_Flag
	.type	BTIM_Clear_Updata_INT_Flag, @function
BTIM_Clear_Updata_INT_Flag:
.LFB43:
.LM283:
	.cfi_startproc
.LVL146:
.LM284:
	MOV	r5,#28
	ADD	r3,r0,r5
// inline asm begin
	// 1266 "../Peripherals/src/kf32f_basic_btim.c" 1
	SET [r3], #0
	// 0 "" 2
.LM285:
// inline asm end
	MOV	r4,#1
.L121:
.LM286:
	LD.w	r5,[r0+#6]
	ANL	r5,r5,r4
	JNZ	.L121
.LM287:
// inline asm begin
	// 1268 "../Peripherals/src/kf32f_basic_btim.c" 1
	CLR [r3], #0
	// 0 "" 2
.LM288:
// inline asm end
	JMP	lr
	.cfi_endproc
.LFE43:
	.size	BTIM_Clear_Updata_INT_Flag, .-BTIM_Clear_Updata_INT_Flag
	.text	
.Letext0: