	.file	"kf32f_basic_osc.c"
	.text	
.Ltext0:
	.cfi_sections	.debug_frame
	.section .text$OSC_SCLK_Configuration
	.type	.text$OSC_SCLK_Configuration$scode_local_1, @function
	.text$OSC_SCLK_Configuration$scode_local_1:
	.align	1
	.export	OSC_SCLK_Configuration
	.type	OSC_SCLK_Configuration, @function
OSC_SCLK_Configuration:
.LFB1:
.LM1:
	.cfi_startproc
.LVL0:
	PUSH	{r6, r7}
	.cfi_def_cfa_offset 8
.LVL1:
.LM2:
	LD.w	r5,[r0]
.LM3:
	LD.w	r3,[r0+#1]
	LSL	r3,#16
.LM4:
	ADD	r4,r5,r5
	ORL	r4,r3,r4
.LVL2:
.LM5:
	CMP	r5,#3
	JZ	.L4
	CMP	r5,#4
	JZ	.L5
	CMP	r5,#2
	JZ	.L13
.LM6:
	MOV	r3,#1
	LSL	r3,#30
	LD.w	r1,[r3]
.LVL3:
.LBB62:
.LBB63:
.LM7:
	LD	r2,#-458767
	ANL	r2,r1,r2
	ORL	r4,r4,r2
.LVL4:
.LBE63:
.LBE62:
.LM8:
	ST.w	[r3],r4
.LM9:
	CMP	r5,#3
	JLS	.L10
	MOV	r3,#15
	NOT	r3,r3
	MOV	r2,#0
	JMP	.L6
.LVL5:
.L13:
.LM10:
	LD	r6,#15728640
.LM11:
	MOV	r7,#20
.L3:
.LVL6:
.LM12:
	MOV	r3,#1
	LSL	r3,#30
	LD.w	r1,[r3]
.LVL7:
.LBB67:
.LBB64:
.LM13:
	LD	r2,#-458767
	ANL	r2,r1,r2
	ORL	r4,r4,r2
.LVL8:
.LBE64:
.LBE67:
.LM14:
	ST.w	[r3],r4
.LVL9:
.L7:
.LM15:
	SUB	r5,r5,#2
.LVL10:
.LM16:
	CMP	r5,#1
	JHI	.L1
.LM17:
	MOV	r5,#1
	LSL	r5,#30
	LD.w	r4,[r5+#3]
.LVL11:
	NOT	r6,r6
.LVL12:
.LBB68:
.LBB69:
.LM18:
	ANL	r6,r6,r4
.LVL13:
.LBE69:
.LBE68:
.LM19:
	LD.w	r4,[r0+#3]
.LVL14:
	LSL	r7,r4,r7
.LVL15:
.LBB71:
.LBB70:
.LM20:
	ORL	r7,r6,r7
.LVL16:
.LBE70:
.LBE71:
.LM21:
	ST.w	[r5+#3],r7
.L1:
.LM22:
	POP	{r6, r7}
	.cfi_remember_state
	.cfi_def_cfa_offset 0
	JMP	lr
.LVL17:
.L5:
	.cfi_restore_state
.LM23:
	MOV	r5,#1
	LSL	r5,#30
	LD.w	r2,[r5]
.LVL18:
.LBB72:
.LBB65:
.LM24:
	LD	r3,#-462863
	ANL	r3,r2,r3
.LBE65:
.LBE72:
.LM25:
	LD.w	r2,[r0+#2]
.LVL19:
	LSL	r2,#12
.LM26:
	ORL	r3,r3,r2
.LBB73:
.LBB66:
.LM27:
	ORL	r4,r3,r4
.LVL20:
.LBE66:
.LBE73:
.LM28:
	ST.w	[r5],r4
	LD	r3,#-251658241
	MOV	r2,#24
.LVL21:
.L6:
.LM29:
	MOV	r5,#1
	LSL	r5,#30
	LD.w	r4,[r5+#3]
.LVL22:
.LBB74:
.LBB75:
.LM30:
	ANL	r3,r3,r4
.LVL23:
.LBE75:
.LBE74:
.LM31:
	LD.w	r4,[r0+#3]
.LVL24:
	LSL	r4,r4,r2
.LVL25:
.LBB77:
.LBB76:
.LM32:
	ORL	r4,r3,r4
.LVL26:
.LBE76:
.LBE77:
.LM33:
	ST.w	[r5+#3],r4
.LM34:
	POP	{r6, r7}
	.cfi_remember_state
	.cfi_def_cfa_offset 0
	JMP	lr
.LVL27:
.L4:
	.cfi_restore_state
.LM35:
	LD	r6,#983040
.LM36:
	MOV	r7,#16
	JMP	.L3
.LVL28:
.L10:
.LM37:
	MOV	r6,#0
.LM38:
	MOV	r7,r6
	JMP	.L7
	.cfi_endproc
.LFE1:
	.size	OSC_SCLK_Configuration, .-OSC_SCLK_Configuration
	.section .text$OSC_HFCK_Configuration
	.type	.text$OSC_HFCK_Configuration$scode_local_2, @function
	.text$OSC_HFCK_Configuration$scode_local_2:
	.align	1
	.export	OSC_HFCK_Configuration
	.type	OSC_HFCK_Configuration, @function
OSC_HFCK_Configuration:
.LFB2:
.LM39:
	.cfi_startproc
.LVL29:
	PUSH	r6
	.cfi_def_cfa_offset 4
.LVL30:
.LM40:
	LD.w	r5,[r0]
	CMP	r5,#2
	JZ	.L16
	CMP	r5,#4
	JZ	.L23
.LVL31:
.LM41:
	MOV	r4,#1
	LSL	r4,#30
	LD.w	r1,[r4]
.LVL32:
.LM42:
	LD.w	r2,[r0+#1]
	LSL	r2,#20
.LM43:
	MOV	r6,#9
	LSL	r3,r5,r6
.LM44:
	ORL	r2,r2,r3
.LVL33:
.LBB78:
.LBB79:
.LM45:
	LD	r3,#-15732225
	ANL	r3,r1,r3
	ORL	r3,r2,r3
.LBE79:
.LBE78:
.LM46:
	ST.w	[r4],r3
.LM47:
	CMP	r5,#3
	JHI	.L24
.LM48:
	CMP	r5,#2
	JZ	.L25
.LM49:
	POP	r6
	.cfi_remember_state
	.cfi_def_cfa_offset 0
	JMP	lr
.LVL34:
.L23:
	.cfi_restore_state
.LM50:
	LD.w	r4,[r0+#2]
	LSL	r4,#12
.LVL35:
.LM51:
	MOV	r5,#1
	LSL	r5,#30
	LD.w	r2,[r5]
.LVL36:
.LM52:
	LD.w	r3,[r0+#1]
	LSL	r3,#20
	SET	r3,#11
.LM53:
	ORL	r3,r4,r3
.LBB82:
.LBB80:
.LM54:
	LD	r4,#-15736321
.LVL37:
	ANL	r4,r2,r4
	ORL	r4,r3,r4
.LBE80:
.LBE82:
.LM55:
	ST.w	[r5],r4
.LM56:
	MOV	r4,#24
.LVL38:
.L18:
.LM57:
	MOV	r5,#1
	LSL	r5,#30
	LD.w	r2,[r5+#3]
.LVL39:
.LM58:
	MOV	r3,#15
	LSL	r3,r3,r4
	NOT	r3,r3
.LVL40:
.LBB83:
.LBB84:
.LM59:
	ANL	r3,r3,r2
.LVL41:
.LBE84:
.LBE83:
.LM60:
	LD.w	r2,[r0+#3]
.LVL42:
	LSL	r4,r2,r4
.LVL43:
.LBB86:
.LBB85:
.LM61:
	ORL	r4,r3,r4
.LVL44:
.LBE85:
.LBE86:
.LM62:
	ST.w	[r5+#3],r4
.LM63:
	POP	r6
	.cfi_remember_state
	.cfi_def_cfa_offset 0
	JMP	lr
.LVL45:
.L16:
	.cfi_restore_state
.LM64:
	MOV	r5,#1
	LSL	r5,#30
	LD.w	r2,[r5]
.LVL46:
.LM65:
	LD.w	r3,[r0+#1]
	LSL	r3,#20
	SET	r3,#10
.LVL47:
.LBB87:
.LBB81:
.LM66:
	LD	r4,#-15732225
	ANL	r4,r2,r4
	ORL	r4,r3,r4
.LBE81:
.LBE87:
.LM67:
	ST.w	[r5],r4
.LM68:
	LD	r4,#983040
.LM69:
	MOV	r3,#16
.LVL48:
.L21:
.LM70:
	MOV	r5,#1
	LSL	r5,#30
	LD.w	r2,[r5+#3]
.LVL49:
	NOT	r4,r4
.LVL50:
.LBB88:
.LBB89:
.LM71:
	ANL	r4,r4,r2
.LVL51:
.LBE89:
.LBE88:
.LM72:
	LD.w	r2,[r0+#3]
.LVL52:
	LSL	r3,r2,r3
.LVL53:
.LBB91:
.LBB90:
.LM73:
	ORL	r3,r4,r3
.LVL54:
.LBE90:
.LBE91:
.LM74:
	ST.w	[r5+#3],r3
.LM75:
	POP	r6
	.cfi_remember_state
	.cfi_def_cfa_offset 0
	JMP	lr
.LVL55:
.L24:
	.cfi_restore_state
.LM76:
	MOV	r4,#0
	JMP	.L18
.L25:
.LM77:
	MOV	r4,#0
.LM78:
	MOV	r3,r4
	JMP	.L21
	.cfi_endproc
.LFE2:
	.size	OSC_HFCK_Configuration, .-OSC_HFCK_Configuration
	.section .text$OSC_LFCK_Configuration
	.type	.text$OSC_LFCK_Configuration$scode_local_3, @function
	.text$OSC_LFCK_Configuration$scode_local_3:
	.align	1
	.export	OSC_LFCK_Configuration
	.type	OSC_LFCK_Configuration, @function
OSC_LFCK_Configuration:
.LFB3:
.LM79:
	.cfi_startproc
.LVL56:
	PUSH	r6
	.cfi_def_cfa_offset 4
.LVL57:
.LM80:
	LD.w	r4,[r0]
.LVL58:
.LM81:
	MOV	r5,#1
	LSL	r5,#30
	LD.w	r1,[r5]
.LVL59:
.LM82:
	LD.w	r2,[r0+#1]
	LSL	r2,#24
.LM83:
	MOV	r6,#6
	LSL	r3,r4,r6
	ORL	r2,r2,r3
.LVL60:
.LBB92:
.LBB93:
.LM84:
	LD	r3,#-117440577
	ANL	r3,r1,r3
	ORL	r3,r2,r3
.LBE93:
.LBE92:
.LM85:
	ST.w	[r5],r3
.LM86:
	CMP	r4,#1
	JNZ	.L26
.LVL61:
.LM87:
	LD.w	r3,[r5+#3]
.LVL62:
.LBB94:
.LBB95:
.LM88:
	LD	r4,#-983041
	ANL	r4,r3,r4
.LBE95:
.LBE94:
.LM89:
	LD.w	r3,[r0+#3]
.LVL63:
	LSL	r3,#16
.LVL64:
.LBB97:
.LBB96:
.LM90:
	ORL	r4,r4,r3
.LBE96:
.LBE97:
.LM91:
	ST.w	[r5+#3],r4
.LVL65:
.L26:
.LM92:
	POP	r6
	.cfi_def_cfa_offset 0
	JMP	lr
	.cfi_endproc
.LFE3:
	.size	OSC_LFCK_Configuration, .-OSC_LFCK_Configuration
	.section .text$OSC_CK48M_Configuration
	.type	.text$OSC_CK48M_Configuration$scode_local_4, @function
	.text$OSC_CK48M_Configuration$scode_local_4:
	.align	1
	.export	OSC_CK48M_Configuration
	.type	OSC_CK48M_Configuration, @function
OSC_CK48M_Configuration:
.LFB4:
.LM93:
	.cfi_startproc
.LVL66:
	PUSH	{r6, r7}
	.cfi_def_cfa_offset 8
.LVL67:
.LM94:
	LD.w	r5,[r0]
	CMP	r5,#2
	JZ	.L35
	CMP	r5,#4
	JZ	.L37
.LM95:
	CMP	r5,#3
	JHI	.L38
.LM96:
	CMP	r5,#2
	JZ	.L39
.LVL68:
.L34:
.LM97:
	MOV	r4,#1
	LSL	r4,#30
	LD.w	r2,[r4+#1]
.LVL69:
.LM98:
	LD.w	r3,[r0+#1]
	LSL	r3,#4
.LM99:
	ADD	r5,r5,r5
.LVL70:
	ORL	r5,r3,r5
.LBB98:
.LBB99:
.LM100:
	MOV	r3,#62
	NOT	r3,r3
	ANL	r3,r2,r3
	ORL	r5,r5,r3
.LBE99:
.LBE98:
.LM101:
	ST.w	[r4+#1],r5
.LM102:
	POP	{r6, r7}
	.cfi_remember_state
	.cfi_def_cfa_offset 0
	JMP	lr
.LVL71:
.L37:
	.cfi_restore_state
.LM103:
	LD.w	r2,[r0+#2]
	LSL	r2,#12
.LVL72:
	LD	r7,#-251658241
	MOV	r3,#24
	LD	r1,#-4097
.LVL73:
.L32:
.LM104:
	MOV	r4,#1
	LSL	r4,#30
	LD.w	r6,[r4]
.LVL74:
.LBB100:
.LBB101:
.LM105:
	ANL	r1,r1,r6
.LVL75:
	ORL	r1,r1,r2
.LBE101:
.LBE100:
.LM106:
	ST.w	[r4],r1
.LM107:
	LD.w	r2,[r4+#3]
.LVL76:
.LBB102:
.LBB103:
.LM108:
	ANL	r2,r7,r2
.LVL77:
.LBE103:
.LBE102:
.LM109:
	LD.w	r1,[r0+#3]
	LSL	r3,r1,r3
.LVL78:
.LBB105:
.LBB104:
.LM110:
	ORL	r3,r2,r3
.LVL79:
.LBE104:
.LBE105:
.LM111:
	ST.w	[r4+#3],r3
	JMP	.L34
.LVL80:
.L35:
.LM112:
	MOV	r3,#16
	LD	r2,#-983041
.L30:
.LM113:
	MOV	r4,#1
	LSL	r4,#30
	LD.w	r1,[r4+#3]
.LVL81:
.LBB106:
.LBB107:
.LM114:
	ANL	r2,r2,r1
.LVL82:
.LBE107:
.LBE106:
.LM115:
	LD.w	r1,[r0+#3]
.LVL83:
	LSL	r3,r1,r3
.LVL84:
.LBB109:
.LBB108:
.LM116:
	ORL	r3,r2,r3
.LVL85:
.LBE108:
.LBE109:
.LM117:
	ST.w	[r4+#3],r3
	JMP	.L34
.L38:
.LM118:
	MOV	r7,#15
	NOT	r7,r7
	MOV	r3,#0
	MOV	r1,#0
	NOT	r1,r1
.LM119:
	MOV	r2,r3
	JMP	.L32
.L39:
.LM120:
	MOV	r3,#0
	MOV	r2,#0
	NOT	r2,r2
	JMP	.L30
	.cfi_endproc
.LFE4:
	.size	OSC_CK48M_Configuration, .-OSC_CK48M_Configuration
	.section .text$OSC_Struct_Init
	.type	.text$OSC_Struct_Init$scode_local_5, @function
	.text$OSC_Struct_Init$scode_local_5:
	.align	1
	.export	OSC_Struct_Init
	.type	OSC_Struct_Init, @function
OSC_Struct_Init:
.LFB5:
.LM121:
	.cfi_startproc
.LVL86:
.LM122:
	MOV	r5,#0
	ST.w	[r0],r5
.LM123:
	MOV	r4,#7
	ST.w	[r0+#1],r4
.LM124:
	ST.w	[r0+#2],r5
.LM125:
	ST.w	[r0+#3],r5
.LM126:
	JMP	lr
	.cfi_endproc
.LFE5:
	.size	OSC_Struct_Init, .-OSC_Struct_Init
	.section .text$OSC_LFCK_Division_Config
	.type	.text$OSC_LFCK_Division_Config$scode_local_6, @function
	.text$OSC_LFCK_Division_Config$scode_local_6:
	.align	1
	.export	OSC_LFCK_Division_Config
	.type	OSC_LFCK_Division_Config, @function
OSC_LFCK_Division_Config:
.LFB6:
.LM127:
	.cfi_startproc
.LVL87:
.LM128:
	MOV	r5,#1
	LSL	r5,#30
	LD.w	r4,[r5]
.LVL88:
.LM129:
	LSL	r0,#24
.LVL89:
.LBB110:
.LBB111:
.LM130:
	LD	r3,#-117440513
	ANL	r4,r4,r3
.LVL90:
	ORL	r4,r0,r4
.LBE111:
.LBE110:
.LM131:
	ST.w	[r5],r4
.LM132:
	JMP	lr
	.cfi_endproc
.LFE6:
	.size	OSC_LFCK_Division_Config, .-OSC_LFCK_Division_Config
	.section .text$OSC_HFCK_Division_Config
	.type	.text$OSC_HFCK_Division_Config$scode_local_7, @function
	.text$OSC_HFCK_Division_Config$scode_local_7:
	.align	1
	.export	OSC_HFCK_Division_Config
	.type	OSC_HFCK_Division_Config, @function
OSC_HFCK_Division_Config:
.LFB7:
.LM133:
	.cfi_startproc
.LVL91:
.LM134:
	MOV	r5,#1
	LSL	r5,#30
	LD.w	r4,[r5]
.LVL92:
.LM135:
	LSL	r0,#20
.LVL93:
.LBB112:
.LBB113:
.LM136:
	LD	r3,#-15728641
	ANL	r4,r4,r3
.LVL94:
	ORL	r4,r0,r4
.LBE113:
.LBE112:
.LM137:
	ST.w	[r5],r4
.LM138:
	JMP	lr
	.cfi_endproc
.LFE7:
	.size	OSC_HFCK_Division_Config, .-OSC_HFCK_Division_Config
	.section .text$OSC_SCK_Division_Config
	.type	.text$OSC_SCK_Division_Config$scode_local_8, @function
	.text$OSC_SCK_Division_Config$scode_local_8:
	.align	1
	.export	OSC_SCK_Division_Config
	.type	OSC_SCK_Division_Config, @function
OSC_SCK_Division_Config:
.LFB8:
.LM139:
	.cfi_startproc
.LVL95:
.LM140:
	MOV	r5,#1
	LSL	r5,#30
	LD.w	r4,[r5]
.LVL96:
.LM141:
	LSL	r0,#16
.LVL97:
.LBB114:
.LBB115:
.LM142:
	LD	r3,#-458753
	ANL	r4,r4,r3
.LVL98:
	ORL	r4,r0,r4
.LBE115:
.LBE114:
.LM143:
	ST.w	[r5],r4
.LM144:
	JMP	lr
	.cfi_endproc
.LFE8:
	.size	OSC_SCK_Division_Config, .-OSC_SCK_Division_Config
	.section .text$OSC_PLL_Input_Source_Config
	.type	.text$OSC_PLL_Input_Source_Config$scode_local_9, @function
	.text$OSC_PLL_Input_Source_Config$scode_local_9:
	.align	1
	.export	OSC_PLL_Input_Source_Config
	.type	OSC_PLL_Input_Source_Config, @function
OSC_PLL_Input_Source_Config:
.LFB9:
.LM145:
	.cfi_startproc
.LVL99:
.LM146:
	MOV	r5,#1
	LSL	r5,#30
.LM147:
	CMP	r0,#0
	JNZ	.L47
.LM148:
// inline asm begin
	// 458 "../Peripherals/src/kf32f_basic_osc.c" 1
	CLR [r5], #12
	// 0 "" 2
.LM149:
// inline asm end
	JMP	lr
.L47:
.LM150:
// inline asm begin
	// 453 "../Peripherals/src/kf32f_basic_osc.c" 1
	SET [r5], #12
	// 0 "" 2
.LM151:
// inline asm end
	JMP	lr
	.cfi_endproc
.LFE9:
	.size	OSC_PLL_Input_Source_Config, .-OSC_PLL_Input_Source_Config
	.section .text$OSC_HFCK_Source_Config
	.type	.text$OSC_HFCK_Source_Config$scode_local_10, @function
	.text$OSC_HFCK_Source_Config$scode_local_10:
	.align	1
	.export	OSC_HFCK_Source_Config
	.type	OSC_HFCK_Source_Config, @function
OSC_HFCK_Source_Config:
.LFB10:
.LM152:
	.cfi_startproc
.LVL100:
.LM153:
	MOV	r5,#1
	LSL	r5,#30
	LD.w	r4,[r5]
.LVL101:
.LM154:
	LSL	r0,#9
.LVL102:
.LBB116:
.LBB117:
.LM155:
	LD	r3,#-3585
	ANL	r4,r4,r3
.LVL103:
	ORL	r4,r0,r4
.LBE117:
.LBE116:
.LM156:
	ST.w	[r5],r4
.LM157:
	JMP	lr
	.cfi_endproc
.LFE10:
	.size	OSC_HFCK_Source_Config, .-OSC_HFCK_Source_Config
	.section .text$OSC_HFCK_Enable
	.type	.text$OSC_HFCK_Enable$scode_local_11, @function
	.text$OSC_HFCK_Enable$scode_local_11:
	.align	1
	.export	OSC_HFCK_Enable
	.type	OSC_HFCK_Enable, @function
OSC_HFCK_Enable:
.LFB11:
.LM158:
	.cfi_startproc
.LVL104:
.LM159:
	MOV	r5,#1
	LSL	r5,#30
.LM160:
	CMP	r0,#0
	JNZ	.L52
.LM161:
// inline asm begin
	// 506 "../Peripherals/src/kf32f_basic_osc.c" 1
	CLR [r5], #8
	// 0 "" 2
.LM162:
// inline asm end
	JMP	lr
.L52:
.LM163:
// inline asm begin
	// 501 "../Peripherals/src/kf32f_basic_osc.c" 1
	SET [r5], #8
	// 0 "" 2
.LM164:
// inline asm end
	JMP	lr
	.cfi_endproc
.LFE11:
	.size	OSC_HFCK_Enable, .-OSC_HFCK_Enable
	.section .text$OSC_LFCK_Source_Config
	.type	.text$OSC_LFCK_Source_Config$scode_local_12, @function
	.text$OSC_LFCK_Source_Config$scode_local_12:
	.align	1
	.export	OSC_LFCK_Source_Config
	.type	OSC_LFCK_Source_Config, @function
OSC_LFCK_Source_Config:
.LFB12:
.LM165:
	.cfi_startproc
.LVL105:
.LM166:
	MOV	r5,#1
	LSL	r5,#30
.LM167:
	CMP	r0,#0
	JNZ	.L56
.LM168:
// inline asm begin
	// 532 "../Peripherals/src/kf32f_basic_osc.c" 1
	CLR [r5], #6
	// 0 "" 2
.LM169:
// inline asm end
	JMP	lr
.L56:
.LM170:
// inline asm begin
	// 527 "../Peripherals/src/kf32f_basic_osc.c" 1
	SET [r5], #6
	// 0 "" 2
.LM171:
// inline asm end
	JMP	lr
	.cfi_endproc
.LFE12:
	.size	OSC_LFCK_Source_Config, .-OSC_LFCK_Source_Config
	.section .text$OSC_LFCK_Enable
	.type	.text$OSC_LFCK_Enable$scode_local_13, @function
	.text$OSC_LFCK_Enable$scode_local_13:
	.align	1
	.export	OSC_LFCK_Enable
	.type	OSC_LFCK_Enable, @function
OSC_LFCK_Enable:
.LFB13:
.LM172:
	.cfi_startproc
.LVL106:
.LM173:
	MOV	r5,#1
	LSL	r5,#30
.LM174:
	CMP	r0,#0
	JNZ	.L60
.LM175:
// inline asm begin
	// 557 "../Peripherals/src/kf32f_basic_osc.c" 1
	CLR [r5], #4
	// 0 "" 2
.LM176:
// inline asm end
	JMP	lr
.L60:
.LM177:
// inline asm begin
	// 552 "../Peripherals/src/kf32f_basic_osc.c" 1
	SET [r5], #4
	// 0 "" 2
.LM178:
// inline asm end
	JMP	lr
	.cfi_endproc
.LFE13:
	.size	OSC_LFCK_Enable, .-OSC_LFCK_Enable
	.section .text$OSC_SCK_Source_Config
	.type	.text$OSC_SCK_Source_Config$scode_local_14, @function
	.text$OSC_SCK_Source_Config$scode_local_14:
	.align	1
	.export	OSC_SCK_Source_Config
	.type	OSC_SCK_Source_Config, @function
OSC_SCK_Source_Config:
.LFB14:
.LM179:
	.cfi_startproc
.LVL107:
.LM180:
	MOV	r5,#1
	LSL	r5,#30
	LD.w	r4,[r5]
.LVL108:
.LM181:
	ADD	r0,r0,r0
.LVL109:
.LBB118:
.LBB119:
.LM182:
	MOV	r3,#14
	NOT	r3,r3
	ANL	r4,r4,r3
.LVL110:
	ORL	r4,r0,r4
.LBE119:
.LBE118:
.LM183:
	ST.w	[r5],r4
.LM184:
	JMP	lr
	.cfi_endproc
.LFE14:
	.size	OSC_SCK_Source_Config, .-OSC_SCK_Source_Config
	.section .text$OSC_Backup_Write_Read_Enable
	.type	.text$OSC_Backup_Write_Read_Enable$scode_local_15, @function
	.text$OSC_Backup_Write_Read_Enable$scode_local_15:
	.align	1
	.export	OSC_Backup_Write_Read_Enable
	.type	OSC_Backup_Write_Read_Enable, @function
OSC_Backup_Write_Read_Enable:
.LFB15:
.LM185:
	.cfi_startproc
.LVL111:
.LM186:
	MOV	r5,#1
	LSL	r5,#30
.LM187:
	CMP	r0,#0
	JNZ	.L65
.LM188:
// inline asm begin
	// 605 "../Peripherals/src/kf32f_basic_osc.c" 1
	CLR [r5], #0
	// 0 "" 2
.LM189:
// inline asm end
	JMP	lr
.L65:
.LM190:
// inline asm begin
	// 600 "../Peripherals/src/kf32f_basic_osc.c" 1
	SET [r5], #0
	// 0 "" 2
.LM191:
// inline asm end
	JMP	lr
	.cfi_endproc
.LFE15:
	.size	OSC_Backup_Write_Read_Enable, .-OSC_Backup_Write_Read_Enable
	.section .text$OSC_SCLK_Output_Enable
	.type	.text$OSC_SCLK_Output_Enable$scode_local_16, @function
	.text$OSC_SCLK_Output_Enable$scode_local_16:
	.align	1
	.export	OSC_SCLK_Output_Enable
	.type	OSC_SCLK_Output_Enable, @function
OSC_SCLK_Output_Enable:
.LFB16:
.LM192:
	.cfi_startproc
.LVL112:
.LM193:
	LD	r5,#1073741828
.LM194:
	CMP	r0,#0
	JNZ	.L69
.LM195:
// inline asm begin
	// 630 "../Peripherals/src/kf32f_basic_osc.c" 1
	CLR [r5], #28
	// 0 "" 2
.LM196:
// inline asm end
	JMP	lr
.L69:
.LM197:
// inline asm begin
	// 625 "../Peripherals/src/kf32f_basic_osc.c" 1
	SET [r5], #28
	// 0 "" 2
.LM198:
// inline asm end
	JMP	lr
	.cfi_endproc
.LFE16:
	.size	OSC_SCLK_Output_Enable, .-OSC_SCLK_Output_Enable
	.section .text$OSC_SCLK_Output_Select
	.type	.text$OSC_SCLK_Output_Select$scode_local_17, @function
	.text$OSC_SCLK_Output_Select$scode_local_17:
	.align	1
	.export	OSC_SCLK_Output_Select
	.type	OSC_SCLK_Output_Select, @function
OSC_SCLK_Output_Select:
.LFB17:
.LM199:
	.cfi_startproc
.LVL113:
.LM200:
	MOV	r5,#1
	LSL	r5,#30
	LD.w	r4,[r5+#1]
.LVL114:
.LM201:
	LSL	r0,#25
.LVL115:
.LBB120:
.LBB121:
.LM202:
	LD	r3,#-234881025
	ANL	r4,r4,r3
.LVL116:
	ORL	r4,r0,r4
.LBE121:
.LBE120:
.LM203:
	ST.w	[r5+#1],r4
.LM204:
	JMP	lr
	.cfi_endproc
.LFE17:
	.size	OSC_SCLK_Output_Select, .-OSC_SCLK_Output_Select
	.section .text$OSC_SCLK_Output_Division_Config
	.type	.text$OSC_SCLK_Output_Division_Config$scode_local_18, @function
	.text$OSC_SCLK_Output_Division_Config$scode_local_18:
	.align	1
	.export	OSC_SCLK_Output_Division_Config
	.type	OSC_SCLK_Output_Division_Config, @function
OSC_SCLK_Output_Division_Config:
.LFB18:
.LM205:
	.cfi_startproc
.LVL117:
.LM206:
	MOV	r5,#1
	LSL	r5,#30
	LD.w	r4,[r5+#1]
.LVL118:
.LM207:
	LSL	r0,#29
.LVL119:
.LBB122:
.LBB123:
.LM208:
	LD	r3,#536870911
	ANL	r4,r4,r3
.LVL120:
	ORL	r4,r0,r4
.LBE123:
.LBE122:
.LM209:
	ST.w	[r5+#1],r4
.LM210:
	JMP	lr
	.cfi_endproc
.LFE18:
	.size	OSC_SCLK_Output_Division_Config, .-OSC_SCLK_Output_Division_Config
	.section .text$OSC_Clock_Failure_Check_Enable
	.type	.text$OSC_Clock_Failure_Check_Enable$scode_local_19, @function
	.text$OSC_Clock_Failure_Check_Enable$scode_local_19:
	.align	1
	.export	OSC_Clock_Failure_Check_Enable
	.type	OSC_Clock_Failure_Check_Enable, @function
OSC_Clock_Failure_Check_Enable:
.LFB19:
.LM211:
	.cfi_startproc
.LVL121:
.LM212:
	LD	r5,#1073741828
.LM213:
	CMP	r0,#0
	JNZ	.L75
.LM214:
// inline asm begin
	// 702 "../Peripherals/src/kf32f_basic_osc.c" 1
	CLR [r5], #16
	// 0 "" 2
.LM215:
// inline asm end
	JMP	lr
.L75:
.LM216:
// inline asm begin
	// 697 "../Peripherals/src/kf32f_basic_osc.c" 1
	SET [r5], #16
	// 0 "" 2
.LM217:
// inline asm end
	JMP	lr
	.cfi_endproc
.LFE19:
	.size	OSC_Clock_Failure_Check_Enable, .-OSC_Clock_Failure_Check_Enable
	.section .text$OSC_CK48M_Division_Config
	.type	.text$OSC_CK48M_Division_Config$scode_local_20, @function
	.text$OSC_CK48M_Division_Config$scode_local_20:
	.align	1
	.export	OSC_CK48M_Division_Config
	.type	OSC_CK48M_Division_Config, @function
OSC_CK48M_Division_Config:
.LFB20:
.LM218:
	.cfi_startproc
.LVL122:
.LM219:
	MOV	r5,#1
	LSL	r5,#30
	LD.w	r4,[r5+#1]
.LVL123:
.LM220:
	LSL	r0,#4
.LVL124:
.LBB124:
.LBB125:
.LM221:
	CLR	r4,#4
	CLR	r4,#5
.LVL125:
	ORL	r4,r0,r4
.LBE125:
.LBE124:
.LM222:
	ST.w	[r5+#1],r4
.LM223:
	JMP	lr
	.cfi_endproc
.LFE20:
	.size	OSC_CK48M_Division_Config, .-OSC_CK48M_Division_Config
	.section .text$OSC_CK48M_Source_Config
	.type	.text$OSC_CK48M_Source_Config$scode_local_21, @function
	.text$OSC_CK48M_Source_Config$scode_local_21:
	.align	1
	.export	OSC_CK48M_Source_Config
	.type	OSC_CK48M_Source_Config, @function
OSC_CK48M_Source_Config:
.LFB21:
.LM224:
	.cfi_startproc
.LVL126:
.LM225:
	MOV	r5,#1
	LSL	r5,#30
	LD.w	r4,[r5+#1]
.LVL127:
.LM226:
	ADD	r0,r0,r0
.LVL128:
.LBB126:
.LBB127:
.LM227:
	MOV	r3,#14
	NOT	r3,r3
	ANL	r4,r4,r3
.LVL129:
	ORL	r4,r0,r4
.LBE127:
.LBE126:
.LM228:
	ST.w	[r5+#1],r4
.LM229:
	JMP	lr
	.cfi_endproc
.LFE21:
	.size	OSC_CK48M_Source_Config, .-OSC_CK48M_Source_Config
	.section .text$OSC_CK48M_Enable
	.type	.text$OSC_CK48M_Enable$scode_local_22, @function
	.text$OSC_CK48M_Enable$scode_local_22:
	.align	1
	.export	OSC_CK48M_Enable
	.type	OSC_CK48M_Enable, @function
OSC_CK48M_Enable:
.LFB22:
.LM230:
	.cfi_startproc
.LVL130:
.LM231:
	LD	r5,#1073741828
.LM232:
	CMP	r0,#0
	JNZ	.L81
.LM233:
// inline asm begin
	// 769 "../Peripherals/src/kf32f_basic_osc.c" 1
	CLR [r5], #0
	// 0 "" 2
.LM234:
// inline asm end
	JMP	lr
.L81:
.LM235:
// inline asm begin
	// 764 "../Peripherals/src/kf32f_basic_osc.c" 1
	SET [r5], #0
	// 0 "" 2
.LM236:
// inline asm end
	JMP	lr
	.cfi_endproc
.LFE22:
	.size	OSC_CK48M_Enable, .-OSC_CK48M_Enable
	.section .text$OSC_PLL_Multiple_Value_Select
	.type	.text$OSC_PLL_Multiple_Value_Select$scode_local_23, @function
	.text$OSC_PLL_Multiple_Value_Select$scode_local_23:
	.align	1
	.export	OSC_PLL_Multiple_Value_Select
	.type	OSC_PLL_Multiple_Value_Select, @function
OSC_PLL_Multiple_Value_Select:
.LFB23:
.LM237:
	.cfi_startproc
.LVL131:
.LM238:
	LD	r5,#1073751424
	LD.w	r4,[r5]
.LVL132:
.LM239:
	LSL	r0,#2
.LVL133:
.LBB128:
.LBB129:
.LM240:
	LD	r3,#-65533
	ANL	r4,r4,r3
.LVL134:
	ORL	r4,r0,r4
.LBE129:
.LBE128:
.LM241:
	ST.w	[r5],r4
.LVL135:
.LM242:
	LD.w	r4,[r5]
.LVL136:
.LM243:
	LSL	r1,#16
.LVL137:
.LBB130:
.LBB131:
.LM244:
	LD	r3,#-983041
	ANL	r4,r4,r3
.LVL138:
	ORL	r4,r1,r4
.LBE131:
.LBE130:
.LM245:
	ST.w	[r5],r4
.LM246:
	CMP	r2,#8
	JZ	.L84
.LM247:
	CMP	r2,#4
	JZ	.L85
.LM248:
	CMP	r2,#2
	JZ	.L86
.LM249:
	MOV	r4,#0
	CMP	r2,#1
	JZ	.L83
	MOV	r5,#20
	LSL	r4,r2,r5
.L83:
.LVL139:
.LM250:
	LD	r5,#1073751424
	LD.w	r3,[r5]
.LVL140:
.LBB132:
.LBB133:
.LM251:
	CLR	r3,#20
	CLR	r3,#21
.LVL141:
	ORL	r4,r4,r3
.LVL142:
.LBE133:
.LBE132:
.LM252:
	ST.w	[r5],r4
.LM253:
	JMP	lr
.LVL143:
.L84:
.LM254:
	LD	r4,#3145728
.LVL144:
.LM255:
	LD	r5,#1073751424
	LD.w	r3,[r5]
.LVL145:
.LBB137:
.LBB134:
.LM256:
	CLR	r3,#20
	CLR	r3,#21
.LVL146:
	ORL	r4,r4,r3
.LVL147:
.LBE134:
.LBE137:
.LM257:
	ST.w	[r5],r4
.LM258:
	JMP	lr
.LVL148:
.L85:
.LM259:
	MOV	r4,#1
	LSL	r4,#21
.LVL149:
.LM260:
	LD	r5,#1073751424
	LD.w	r3,[r5]
.LVL150:
.LBB138:
.LBB135:
.LM261:
	CLR	r3,#20
	CLR	r3,#21
.LVL151:
	ORL	r4,r4,r3
.LVL152:
.LBE135:
.LBE138:
.LM262:
	ST.w	[r5],r4
.LM263:
	JMP	lr
.LVL153:
.L86:
.LM264:
	MOV	r4,#1
	LSL	r4,#20
.LVL154:
.LM265:
	LD	r5,#1073751424
	LD.w	r3,[r5]
.LVL155:
.LBB139:
.LBB136:
.LM266:
	CLR	r3,#20
	CLR	r3,#21
.LVL156:
	ORL	r4,r4,r3
.LVL157:
.LBE136:
.LBE139:
.LM267:
	ST.w	[r5],r4
.LM268:
	JMP	lr
	.cfi_endproc
.LFE23:
	.size	OSC_PLL_Multiple_Value_Select, .-OSC_PLL_Multiple_Value_Select
	.section .text$OSC_PLL_RST
	.type	.text$OSC_PLL_RST$scode_local_24, @function
	.text$OSC_PLL_RST$scode_local_24:
	.align	1
	.export	OSC_PLL_RST
	.type	OSC_PLL_RST, @function
OSC_PLL_RST:
.LFB24:
.LM269:
	.cfi_startproc
.LM270:
	LD	r5,#1073751424
// inline asm begin
	// 818 "../Peripherals/src/kf32f_basic_osc.c" 1
	SET [r5], #0
	// 0 "" 2
.LM271:
// inline asm end
	JMP	lr
	.cfi_endproc
.LFE24:
	.size	OSC_PLL_RST, .-OSC_PLL_RST
	.section .text$OSC_PLL_Start_Delay_Config
	.type	.text$OSC_PLL_Start_Delay_Config$scode_local_25, @function
	.text$OSC_PLL_Start_Delay_Config$scode_local_25:
	.align	1
	.export	OSC_PLL_Start_Delay_Config
	.type	OSC_PLL_Start_Delay_Config, @function
OSC_PLL_Start_Delay_Config:
.LFB25:
.LM272:
	.cfi_startproc
.LVL158:
.LM273:
	MOV	r5,#1
	LSL	r5,#30
	LD.w	r4,[r5+#3]
.LVL159:
.LM274:
	LSL	r0,#24
.LVL160:
.LBB140:
.LBB141:
.LM275:
	LD	r3,#-251658241
	ANL	r4,r4,r3
.LVL161:
	ORL	r4,r0,r4
.LBE141:
.LBE140:
.LM276:
	ST.w	[r5+#3],r4
.LM277:
	JMP	lr
	.cfi_endproc
.LFE25:
	.size	OSC_PLL_Start_Delay_Config, .-OSC_PLL_Start_Delay_Config
	.section .text$OSC_EXTHF_Start_Delay_Config
	.type	.text$OSC_EXTHF_Start_Delay_Config$scode_local_26, @function
	.text$OSC_EXTHF_Start_Delay_Config$scode_local_26:
	.align	1
	.export	OSC_EXTHF_Start_Delay_Config
	.type	OSC_EXTHF_Start_Delay_Config, @function
OSC_EXTHF_Start_Delay_Config:
.LFB26:
.LM278:
	.cfi_startproc
.LVL162:
.LM279:
	MOV	r5,#1
	LSL	r5,#30
	LD.w	r4,[r5+#3]
.LVL163:
.LM280:
	LSL	r0,#20
.LVL164:
.LBB142:
.LBB143:
.LM281:
	LD	r3,#-15728641
	ANL	r4,r4,r3
.LVL165:
	ORL	r4,r0,r4
.LBE143:
.LBE142:
.LM282:
	ST.w	[r5+#3],r4
.LM283:
	JMP	lr
	.cfi_endproc
.LFE26:
	.size	OSC_EXTHF_Start_Delay_Config, .-OSC_EXTHF_Start_Delay_Config
	.section .text$OSC_EXTLF_Start_Delay_Config
	.type	.text$OSC_EXTLF_Start_Delay_Config$scode_local_27, @function
	.text$OSC_EXTLF_Start_Delay_Config$scode_local_27:
	.align	1
	.export	OSC_EXTLF_Start_Delay_Config
	.type	OSC_EXTLF_Start_Delay_Config, @function
OSC_EXTLF_Start_Delay_Config:
.LFB27:
.LM284:
	.cfi_startproc
.LVL166:
.LM285:
	MOV	r5,#1
	LSL	r5,#30
	LD.w	r4,[r5+#3]
.LVL167:
.LM286:
	LSL	r0,#16
.LVL168:
.LBB144:
.LBB145:
.LM287:
	LD	r3,#-983041
	ANL	r4,r4,r3
.LVL169:
	ORL	r4,r0,r4
.LBE145:
.LBE144:
.LM288:
	ST.w	[r5+#3],r4
.LM289:
	JMP	lr
	.cfi_endproc
.LFE27:
	.size	OSC_EXTLF_Start_Delay_Config, .-OSC_EXTLF_Start_Delay_Config
	.section .text$OSC_PLL_Software_Enable
	.type	.text$OSC_PLL_Software_Enable$scode_local_28, @function
	.text$OSC_PLL_Software_Enable$scode_local_28:
	.align	1
	.export	OSC_PLL_Software_Enable
	.type	OSC_PLL_Software_Enable, @function
OSC_PLL_Software_Enable:
.LFB28:
.LM290:
	.cfi_startproc
.LVL170:
.LM291:
	LD	r5,#1073741836
.LM292:
	CMP	r0,#0
	JNZ	.L96
.LM293:
// inline asm begin
	// 924 "../Peripherals/src/kf32f_basic_osc.c" 1
	CLR [r5], #4
	// 0 "" 2
.LM294:
// inline asm end
	JMP	lr
.L96:
.LM295:
// inline asm begin
	// 919 "../Peripherals/src/kf32f_basic_osc.c" 1
	SET [r5], #4
	// 0 "" 2
.LM296:
// inline asm end
	JMP	lr
	.cfi_endproc
.LFE28:
	.size	OSC_PLL_Software_Enable, .-OSC_PLL_Software_Enable
	.section .text$OSC_EXTHF_Software_Enable
	.type	.text$OSC_EXTHF_Software_Enable$scode_local_29, @function
	.text$OSC_EXTHF_Software_Enable$scode_local_29:
	.align	1
	.export	OSC_EXTHF_Software_Enable
	.type	OSC_EXTHF_Software_Enable, @function
OSC_EXTHF_Software_Enable:
.LFB29:
.LM297:
	.cfi_startproc
.LVL171:
.LM298:
	LD	r5,#1073741836
.LM299:
	CMP	r0,#0
	JNZ	.L100
.LM300:
// inline asm begin
	// 948 "../Peripherals/src/kf32f_basic_osc.c" 1
	CLR [r5], #3
	// 0 "" 2
.LM301:
// inline asm end
	JMP	lr
.L100:
.LM302:
// inline asm begin
	// 943 "../Peripherals/src/kf32f_basic_osc.c" 1
	SET [r5], #3
	// 0 "" 2
.LM303:
// inline asm end
	JMP	lr
	.cfi_endproc
.LFE29:
	.size	OSC_EXTHF_Software_Enable, .-OSC_EXTHF_Software_Enable
	.section .text$OSC_EXTLF_Software_Enable
	.type	.text$OSC_EXTLF_Software_Enable$scode_local_30, @function
	.text$OSC_EXTLF_Software_Enable$scode_local_30:
	.align	1
	.export	OSC_EXTLF_Software_Enable
	.type	OSC_EXTLF_Software_Enable, @function
OSC_EXTLF_Software_Enable:
.LFB30:
.LM304:
	.cfi_startproc
.LVL172:
.LM305:
	LD	r5,#1073741836
.LM306:
	CMP	r0,#0
	JNZ	.L104
.LM307:
// inline asm begin
	// 972 "../Peripherals/src/kf32f_basic_osc.c" 1
	CLR [r5], #2
	// 0 "" 2
.LM308:
// inline asm end
	JMP	lr
.L104:
.LM309:
// inline asm begin
	// 967 "../Peripherals/src/kf32f_basic_osc.c" 1
	SET [r5], #2
	// 0 "" 2
.LM310:
// inline asm end
	JMP	lr
	.cfi_endproc
.LFE30:
	.size	OSC_EXTLF_Software_Enable, .-OSC_EXTLF_Software_Enable
	.section .text$OSC_INTHF_Software_Enable
	.type	.text$OSC_INTHF_Software_Enable$scode_local_31, @function
	.text$OSC_INTHF_Software_Enable$scode_local_31:
	.align	1
	.export	OSC_INTHF_Software_Enable
	.type	OSC_INTHF_Software_Enable, @function
OSC_INTHF_Software_Enable:
.LFB31:
.LM311:
	.cfi_startproc
.LVL173:
.LM312:
	LD	r5,#1073741836
.LM313:
	CMP	r0,#0
	JNZ	.L108
.LM314:
// inline asm begin
	// 996 "../Peripherals/src/kf32f_basic_osc.c" 1
	CLR [r5], #1
	// 0 "" 2
.LM315:
// inline asm end
	JMP	lr
.L108:
.LM316:
// inline asm begin
	// 991 "../Peripherals/src/kf32f_basic_osc.c" 1
	SET [r5], #1
	// 0 "" 2
.LM317:
// inline asm end
	JMP	lr
	.cfi_endproc
.LFE31:
	.size	OSC_INTHF_Software_Enable, .-OSC_INTHF_Software_Enable
	.section .text$OSC_INTLF_Software_Enable
	.type	.text$OSC_INTLF_Software_Enable$scode_local_32, @function
	.text$OSC_INTLF_Software_Enable$scode_local_32:
	.align	1
	.export	OSC_INTLF_Software_Enable
	.type	OSC_INTLF_Software_Enable, @function
OSC_INTLF_Software_Enable:
.LFB32:
.LM318:
	.cfi_startproc
.LVL174:
.LM319:
	LD	r5,#1073741836
.LM320:
	CMP	r0,#0
	JNZ	.L112
.LM321:
// inline asm begin
	// 1020 "../Peripherals/src/kf32f_basic_osc.c" 1
	CLR [r5], #0
	// 0 "" 2
.LM322:
// inline asm end
	JMP	lr
.L112:
.LM323:
// inline asm begin
	// 1015 "../Peripherals/src/kf32f_basic_osc.c" 1
	SET [r5], #0
	// 0 "" 2
.LM324:
// inline asm end
	JMP	lr
	.cfi_endproc
.LFE32:
	.size	OSC_INTLF_Software_Enable, .-OSC_INTLF_Software_Enable
	.section .text$OSC_Zero_Drift_Config
	.type	.text$OSC_Zero_Drift_Config$scode_local_33, @function
	.text$OSC_Zero_Drift_Config$scode_local_33:
	.align	1
	.export	OSC_Zero_Drift_Config
	.type	OSC_Zero_Drift_Config, @function
OSC_Zero_Drift_Config:
.LFB33:
.LM325:
	.cfi_startproc
.LVL175:
.LM326:
	MOV	r5,#1
	LSL	r5,#30
	LD.w	r4,[r5+#4]
.LM327:
	CMP	r1,#0
	JNZ	.L116
.LM328:
	NOT	r0,r0
.LVL176:
	ANL	r0,r0,r4
.LVL177:
	ST.w	[r5+#4],r0
.LM329:
	JMP	lr
.LVL178:
.L116:
.LM330:
	ORL	r0,r0,r4
.LVL179:
	ST.w	[r5+#4],r0
.LM331:
	JMP	lr
	.cfi_endproc
.LFE33:
	.size	OSC_Zero_Drift_Config, .-OSC_Zero_Drift_Config
	.section .text$OSC_Positive_Drift_Config
	.type	.text$OSC_Positive_Drift_Config$scode_local_34, @function
	.text$OSC_Positive_Drift_Config$scode_local_34:
	.align	1
	.export	OSC_Positive_Drift_Config
	.type	OSC_Positive_Drift_Config, @function
OSC_Positive_Drift_Config:
.LFB34:
.LM332:
	.cfi_startproc
.LVL180:
.LM333:
	MOV	r5,#1
	LSL	r5,#30
	LD.w	r4,[r5+#4]
.LVL181:
.LM334:
	LSL	r0,#5
.LVL182:
.LBB146:
.LBB147:
.LM335:
	LD	r3,#-993
	ANL	r4,r4,r3
.LVL183:
	ORL	r4,r0,r4
.LBE147:
.LBE146:
.LM336:
	ST.w	[r5+#4],r4
.LM337:
	JMP	lr
	.cfi_endproc
.LFE34:
	.size	OSC_Positive_Drift_Config, .-OSC_Positive_Drift_Config
	.section .text$OSC_Negative_Drift_Config
	.type	.text$OSC_Negative_Drift_Config$scode_local_35, @function
	.text$OSC_Negative_Drift_Config$scode_local_35:
	.align	1
	.export	OSC_Negative_Drift_Config
	.type	OSC_Negative_Drift_Config, @function
OSC_Negative_Drift_Config:
.LFB35:
.LM338:
	.cfi_startproc
.LVL184:
.LM339:
	MOV	r5,#1
	LSL	r5,#30
	LD.w	r3,[r5+#4]
.LVL185:
.LBB148:
.LBB149:
.LM340:
	MOV	r4,#31
	NOT	r4,r4
	ANL	r4,r3,r4
	ORL	r0,r0,r4
.LVL186:
.LBE149:
.LBE148:
.LM341:
	ST.w	[r5+#4],r0
.LM342:
	JMP	lr
	.cfi_endproc
.LFE35:
	.size	OSC_Negative_Drift_Config, .-OSC_Negative_Drift_Config
	.section .text$OSC_Current_Gain_Config
	.type	.text$OSC_Current_Gain_Config$scode_local_36, @function
	.text$OSC_Current_Gain_Config$scode_local_36:
	.align	1
	.export	OSC_Current_Gain_Config
	.type	OSC_Current_Gain_Config, @function
OSC_Current_Gain_Config:
.LFB36:
.LM343:
	.cfi_startproc
.LVL187:
.LM344:
	MOV	r5,#1
	LSL	r5,#30
	LD.w	r4,[r5+#5]
.LVL188:
.LM345:
	LSL	r0,#3
.LVL189:
.LBB150:
.LBB151:
.LM346:
	CLR	r4,#3
	CLR	r4,#4
.LVL190:
	ORL	r4,r0,r4
.LBE151:
.LBE150:
.LM347:
	ST.w	[r5+#5],r4
.LM348:
	JMP	lr
	.cfi_endproc
.LFE36:
	.size	OSC_Current_Gain_Config, .-OSC_Current_Gain_Config
	.section .text$OSC_High_Speed_Enable
	.type	.text$OSC_High_Speed_Enable$scode_local_37, @function
	.text$OSC_High_Speed_Enable$scode_local_37:
	.align	1
	.export	OSC_High_Speed_Enable
	.type	OSC_High_Speed_Enable, @function
OSC_High_Speed_Enable:
.LFB37:
.LM349:
	.cfi_startproc
.LVL191:
.LM350:
	LD	r5,#1073741844
.LM351:
	CMP	r0,#0
	JNZ	.L123
.LM352:
// inline asm begin
	// 1139 "../Peripherals/src/kf32f_basic_osc.c" 1
	CLR [r5], #2
	// 0 "" 2
.LM353:
// inline asm end
	JMP	lr
.L123:
.LM354:
// inline asm begin
	// 1134 "../Peripherals/src/kf32f_basic_osc.c" 1
	SET [r5], #2
	// 0 "" 2
.LM355:
// inline asm end
	JMP	lr
	.cfi_endproc
.LFE37:
	.size	OSC_High_Speed_Enable, .-OSC_High_Speed_Enable
	.section .text$OSC_External_Input_Enable
	.type	.text$OSC_External_Input_Enable$scode_local_38, @function
	.text$OSC_External_Input_Enable$scode_local_38:
	.align	1
	.export	OSC_External_Input_Enable
	.type	OSC_External_Input_Enable, @function
OSC_External_Input_Enable:
.LFB38:
.LM356:
	.cfi_startproc
.LVL192:
.LM357:
	LD	r5,#1073741844
.LM358:
	CMP	r0,#0
	JNZ	.L127
.LM359:
// inline asm begin
	// 1163 "../Peripherals/src/kf32f_basic_osc.c" 1
	CLR [r5], #1
	// 0 "" 2
.LM360:
// inline asm end
	JMP	lr
.L127:
.LM361:
// inline asm begin
	// 1158 "../Peripherals/src/kf32f_basic_osc.c" 1
	SET [r5], #1
	// 0 "" 2
.LM362:
// inline asm end
	JMP	lr
	.cfi_endproc
.LFE38:
	.size	OSC_External_Input_Enable, .-OSC_External_Input_Enable
	.section .text$OSC_Feedback_Resistance_Config
	.type	.text$OSC_Feedback_Resistance_Config$scode_local_39, @function
	.text$OSC_Feedback_Resistance_Config$scode_local_39:
	.align	1
	.export	OSC_Feedback_Resistance_Config
	.type	OSC_Feedback_Resistance_Config, @function
OSC_Feedback_Resistance_Config:
.LFB39:
.LM363:
	.cfi_startproc
.LVL193:
.LM364:
	LD	r5,#1073741844
.LM365:
	CMP	r0,#0
	JNZ	.L131
.LM366:
// inline asm begin
	// 1189 "../Peripherals/src/kf32f_basic_osc.c" 1
	CLR [r5], #0
	// 0 "" 2
.LM367:
// inline asm end
	JMP	lr
.L131:
.LM368:
// inline asm begin
	// 1184 "../Peripherals/src/kf32f_basic_osc.c" 1
	SET [r5], #0
	// 0 "" 2
.LM369:
// inline asm end
	JMP	lr
	.cfi_endproc
.LFE39:
	.size	OSC_Feedback_Resistance_Config, .-OSC_Feedback_Resistance_Config
	.section .text$OSC_PLL_Zero_Source_Enable
	.type	.text$OSC_PLL_Zero_Source_Enable$scode_local_40, @function
	.text$OSC_PLL_Zero_Source_Enable$scode_local_40:
	.align	1
	.export	OSC_PLL_Zero_Source_Enable
	.type	OSC_PLL_Zero_Source_Enable, @function
OSC_PLL_Zero_Source_Enable:
.LFB40:
.LM370:
	.cfi_startproc
.LVL194:
.LM371:
	LD	r5,#1073751424
.LM372:
	CMP	r0,#0
	JNZ	.L135
.LM373:
// inline asm begin
	// 1213 "../Peripherals/src/kf32f_basic_osc.c" 1
	CLR [r5], #24
	// 0 "" 2
.LM374:
// inline asm end
	JMP	lr
.L135:
.LM375:
// inline asm begin
	// 1208 "../Peripherals/src/kf32f_basic_osc.c" 1
	SET [r5], #24
	// 0 "" 2
.LM376:
// inline asm end
	JMP	lr
	.cfi_endproc
.LFE40:
	.size	OSC_PLL_Zero_Source_Enable, .-OSC_PLL_Zero_Source_Enable
	.section .text$OSC_PLL_Vref2_Enable
	.type	.text$OSC_PLL_Vref2_Enable$scode_local_41, @function
	.text$OSC_PLL_Vref2_Enable$scode_local_41:
	.align	1
	.export	OSC_PLL_Vref2_Enable
	.type	OSC_PLL_Vref2_Enable, @function
OSC_PLL_Vref2_Enable:
.LFB41:
.LM377:
	.cfi_startproc
.LVL195:
.LM378:
	LD	r5,#1073751424
.LM379:
	CMP	r0,#0
	JNZ	.L139
.LM380:
// inline asm begin
	// 1238 "../Peripherals/src/kf32f_basic_osc.c" 1
	CLR [r5], #25
	// 0 "" 2
.LM381:
// inline asm end
	JMP	lr
.L139:
.LM382:
// inline asm begin
	// 1233 "../Peripherals/src/kf32f_basic_osc.c" 1
	SET [r5], #25
	// 0 "" 2
.LM383:
// inline asm end
	JMP	lr
	.cfi_endproc
.LFE41:
	.size	OSC_PLL_Vref2_Enable, .-OSC_PLL_Vref2_Enable
	.section .text$OSC_PLL_Vref0p5_Enable
	.type	.text$OSC_PLL_Vref0p5_Enable$scode_local_42, @function
	.text$OSC_PLL_Vref0p5_Enable$scode_local_42:
	.align	1
	.export	OSC_PLL_Vref0p5_Enable
	.type	OSC_PLL_Vref0p5_Enable, @function
OSC_PLL_Vref0p5_Enable:
.LFB42:
.LM384:
	.cfi_startproc
.LVL196:
.LM385:
	LD	r5,#1073751424
.LM386:
	CMP	r0,#0
	JNZ	.L143
.LM387:
// inline asm begin
	// 1263 "../Peripherals/src/kf32f_basic_osc.c" 1
	CLR [r5], #26
	// 0 "" 2
.LM388:
// inline asm end
	JMP	lr
.L143:
.LM389:
// inline asm begin
	// 1258 "../Peripherals/src/kf32f_basic_osc.c" 1
	SET [r5], #26
	// 0 "" 2
.LM390:
// inline asm end
	JMP	lr
	.cfi_endproc
.LFE42:
	.size	OSC_PLL_Vref0p5_Enable, .-OSC_PLL_Vref0p5_Enable
	.section .text$OSC_PLL_Vref1p2_Enable
	.type	.text$OSC_PLL_Vref1p2_Enable$scode_local_43, @function
	.text$OSC_PLL_Vref1p2_Enable$scode_local_43:
	.align	1
	.export	OSC_PLL_Vref1p2_Enable
	.type	OSC_PLL_Vref1p2_Enable, @function
OSC_PLL_Vref1p2_Enable:
.LFB43:
.LM391:
	.cfi_startproc
.LVL197:
.LM392:
	LD	r5,#1073751424
.LM393:
	CMP	r0,#0
	JNZ	.L147
.LM394:
// inline asm begin
	// 1288 "../Peripherals/src/kf32f_basic_osc.c" 1
	CLR [r5], #27
	// 0 "" 2
.LM395:
// inline asm end
	JMP	lr
.L147:
.LM396:
// inline asm begin
	// 1283 "../Peripherals/src/kf32f_basic_osc.c" 1
	SET [r5], #27
	// 0 "" 2
.LM397:
// inline asm end
	JMP	lr
	.cfi_endproc
.LFE43:
	.size	OSC_PLL_Vref1p2_Enable, .-OSC_PLL_Vref1p2_Enable
	.section .text$OSC_PLL_Low_Power_20nA_Enable
	.type	.text$OSC_PLL_Low_Power_20nA_Enable$scode_local_44, @function
	.text$OSC_PLL_Low_Power_20nA_Enable$scode_local_44:
	.align	1
	.export	OSC_PLL_Low_Power_20nA_Enable
	.type	OSC_PLL_Low_Power_20nA_Enable, @function
OSC_PLL_Low_Power_20nA_Enable:
.LFB44:
.LM398:
	.cfi_startproc
.LVL198:
.LM399:
	LD	r5,#1073751424
.LM400:
	CMP	r0,#0
	JNZ	.L151
.LM401:
// inline asm begin
	// 1313 "../Peripherals/src/kf32f_basic_osc.c" 1
	CLR [r5], #28
	// 0 "" 2
.LM402:
// inline asm end
	JMP	lr
.L151:
.LM403:
// inline asm begin
	// 1308 "../Peripherals/src/kf32f_basic_osc.c" 1
	SET [r5], #28
	// 0 "" 2
.LM404:
// inline asm end
	JMP	lr
	.cfi_endproc
.LFE44:
	.size	OSC_PLL_Low_Power_20nA_Enable, .-OSC_PLL_Low_Power_20nA_Enable
	.section .text$OSC_PLL_Vref1p14_Enable
	.type	.text$OSC_PLL_Vref1p14_Enable$scode_local_45, @function
	.text$OSC_PLL_Vref1p14_Enable$scode_local_45:
	.align	1
	.export	OSC_PLL_Vref1p14_Enable
	.type	OSC_PLL_Vref1p14_Enable, @function
OSC_PLL_Vref1p14_Enable:
.LFB45:
.LM405:
	.cfi_startproc
.LVL199:
.LM406:
	LD	r5,#1073751424
.LM407:
	CMP	r0,#0
	JNZ	.L155
.LM408:
// inline asm begin
	// 1338 "../Peripherals/src/kf32f_basic_osc.c" 1
	CLR [r5], #29
	// 0 "" 2
.LM409:
// inline asm end
	JMP	lr
.L155:
.LM410:
// inline asm begin
	// 1333 "../Peripherals/src/kf32f_basic_osc.c" 1
	SET [r5], #29
	// 0 "" 2
.LM411:
// inline asm end
	JMP	lr
	.cfi_endproc
.LFE45:
	.size	OSC_PLL_Vref1p14_Enable, .-OSC_PLL_Vref1p14_Enable
	.section .text$OSC_PLL_Low_Power_100nA_Enable
	.type	.text$OSC_PLL_Low_Power_100nA_Enable$scode_local_46, @function
	.text$OSC_PLL_Low_Power_100nA_Enable$scode_local_46:
	.align	1
	.export	OSC_PLL_Low_Power_100nA_Enable
	.type	OSC_PLL_Low_Power_100nA_Enable, @function
OSC_PLL_Low_Power_100nA_Enable:
.LFB46:
.LM412:
	.cfi_startproc
.LVL200:
.LM413:
	LD	r5,#1073751424
.LM414:
	CMP	r0,#0
	JNZ	.L159
.LM415:
// inline asm begin
	// 1363 "../Peripherals/src/kf32f_basic_osc.c" 1
	CLR [r5], #30
	// 0 "" 2
.LM416:
// inline asm end
	JMP	lr
.L159:
.LM417:
// inline asm begin
	// 1358 "../Peripherals/src/kf32f_basic_osc.c" 1
	SET [r5], #30
	// 0 "" 2
.LM418:
// inline asm end
	JMP	lr
	.cfi_endproc
.LFE46:
	.size	OSC_PLL_Low_Power_100nA_Enable, .-OSC_PLL_Low_Power_100nA_Enable
	.section .text$OSC_PLL_LDO_Enable
	.type	.text$OSC_PLL_LDO_Enable$scode_local_47, @function
	.text$OSC_PLL_LDO_Enable$scode_local_47:
	.align	1
	.export	OSC_PLL_LDO_Enable
	.type	OSC_PLL_LDO_Enable, @function
OSC_PLL_LDO_Enable:
.LFB47:
.LM419:
	.cfi_startproc
.LVL201:
.LM420:
	LD	r5,#1073751424
.LM421:
	CMP	r0,#0
	JNZ	.L163
.LM422:
// inline asm begin
	// 1388 "../Peripherals/src/kf32f_basic_osc.c" 1
	CLR [r5], #31
	// 0 "" 2
.LM423:
// inline asm end
	JMP	lr
.L163:
.LM424:
// inline asm begin
	// 1383 "../Peripherals/src/kf32f_basic_osc.c" 1
	SET [r5], #31
	// 0 "" 2
.LM425:
// inline asm end
	JMP	lr
	.cfi_endproc
.LFE47:
	.size	OSC_PLL_LDO_Enable, .-OSC_PLL_LDO_Enable
	.section .text$OSC_PLL_INT_Enable
	.type	.text$OSC_PLL_INT_Enable$scode_local_48, @function
	.text$OSC_PLL_INT_Enable$scode_local_48:
	.align	1
	.export	OSC_PLL_INT_Enable
	.type	OSC_PLL_INT_Enable, @function
OSC_PLL_INT_Enable:
.LFB48:
.LM426:
	.cfi_startproc
.LVL202:
.LM427:
	LD	r5,#1073741832
.LM428:
	CMP	r0,#0
	JNZ	.L167
.LM429:
// inline asm begin
	// 1412 "../Peripherals/src/kf32f_basic_osc.c" 1
	CLR [r5], #12
	// 0 "" 2
.LM430:
// inline asm end
	JMP	lr
.L167:
.LM431:
// inline asm begin
	// 1407 "../Peripherals/src/kf32f_basic_osc.c" 1
	SET [r5], #12
	// 0 "" 2
.LM432:
// inline asm end
	JMP	lr
	.cfi_endproc
.LFE48:
	.size	OSC_PLL_INT_Enable, .-OSC_PLL_INT_Enable
	.section .text$OSC_EXTHF_INT_Enable
	.type	.text$OSC_EXTHF_INT_Enable$scode_local_49, @function
	.text$OSC_EXTHF_INT_Enable$scode_local_49:
	.align	1
	.export	OSC_EXTHF_INT_Enable
	.type	OSC_EXTHF_INT_Enable, @function
OSC_EXTHF_INT_Enable:
.LFB49:
.LM433:
	.cfi_startproc
.LVL203:
.LM434:
	LD	r5,#1073741832
.LM435:
	CMP	r0,#0
	JNZ	.L171
.LM436:
// inline asm begin
	// 1436 "../Peripherals/src/kf32f_basic_osc.c" 1
	CLR [r5], #11
	// 0 "" 2
.LM437:
// inline asm end
	JMP	lr
.L171:
.LM438:
// inline asm begin
	// 1431 "../Peripherals/src/kf32f_basic_osc.c" 1
	SET [r5], #11
	// 0 "" 2
.LM439:
// inline asm end
	JMP	lr
	.cfi_endproc
.LFE49:
	.size	OSC_EXTHF_INT_Enable, .-OSC_EXTHF_INT_Enable
	.section .text$OSC_EXTLF_INT_Enable
	.type	.text$OSC_EXTLF_INT_Enable$scode_local_50, @function
	.text$OSC_EXTLF_INT_Enable$scode_local_50:
	.align	1
	.export	OSC_EXTLF_INT_Enable
	.type	OSC_EXTLF_INT_Enable, @function
OSC_EXTLF_INT_Enable:
.LFB50:
.LM440:
	.cfi_startproc
.LVL204:
.LM441:
	LD	r5,#1073741832
.LM442:
	CMP	r0,#0
	JNZ	.L175
.LM443:
// inline asm begin
	// 1460 "../Peripherals/src/kf32f_basic_osc.c" 1
	CLR [r5], #10
	// 0 "" 2
.LM444:
// inline asm end
	JMP	lr
.L175:
.LM445:
// inline asm begin
	// 1455 "../Peripherals/src/kf32f_basic_osc.c" 1
	SET [r5], #10
	// 0 "" 2
.LM446:
// inline asm end
	JMP	lr
	.cfi_endproc
.LFE50:
	.size	OSC_EXTLF_INT_Enable, .-OSC_EXTLF_INT_Enable
	.section .text$OSC_INTHF_INT_Enable
	.type	.text$OSC_INTHF_INT_Enable$scode_local_51, @function
	.text$OSC_INTHF_INT_Enable$scode_local_51:
	.align	1
	.export	OSC_INTHF_INT_Enable
	.type	OSC_INTHF_INT_Enable, @function
OSC_INTHF_INT_Enable:
.LFB51:
.LM447:
	.cfi_startproc
.LVL205:
.LM448:
	LD	r5,#1073741832
.LM449:
	CMP	r0,#0
	JNZ	.L179
.LM450:
// inline asm begin
	// 1484 "../Peripherals/src/kf32f_basic_osc.c" 1
	CLR [r5], #9
	// 0 "" 2
.LM451:
// inline asm end
	JMP	lr
.L179:
.LM452:
// inline asm begin
	// 1479 "../Peripherals/src/kf32f_basic_osc.c" 1
	SET [r5], #9
	// 0 "" 2
.LM453:
// inline asm end
	JMP	lr
	.cfi_endproc
.LFE51:
	.size	OSC_INTHF_INT_Enable, .-OSC_INTHF_INT_Enable
	.section .text$OSC_LP4M_INT_Enable
	.type	.text$OSC_LP4M_INT_Enable$scode_local_52, @function
	.text$OSC_LP4M_INT_Enable$scode_local_52:
	.align	1
	.export	OSC_LP4M_INT_Enable
	.type	OSC_LP4M_INT_Enable, @function
OSC_LP4M_INT_Enable:
.LFB52:
.LM454:
	.cfi_startproc
.LVL206:
.LM455:
	LD	r5,#1073741832
.LM456:
	CMP	r0,#0
	JNZ	.L183
.LM457:
// inline asm begin
	// 1508 "../Peripherals/src/kf32f_basic_osc.c" 1
	CLR [r5], #14
	// 0 "" 2
.LM458:
// inline asm end
	JMP	lr
.L183:
.LM459:
// inline asm begin
	// 1503 "../Peripherals/src/kf32f_basic_osc.c" 1
	SET [r5], #14
	// 0 "" 2
.LM460:
// inline asm end
	JMP	lr
	.cfi_endproc
.LFE52:
	.size	OSC_LP4M_INT_Enable, .-OSC_LP4M_INT_Enable
	.section .text$OSC_INTLF_INT_Enable
	.type	.text$OSC_INTLF_INT_Enable$scode_local_53, @function
	.text$OSC_INTLF_INT_Enable$scode_local_53:
	.align	1
	.export	OSC_INTLF_INT_Enable
	.type	OSC_INTLF_INT_Enable, @function
OSC_INTLF_INT_Enable:
.LFB53:
.LM461:
	.cfi_startproc
.LVL207:
.LM462:
	LD	r5,#1073741832
.LM463:
	CMP	r0,#0
	JNZ	.L187
.LM464:
// inline asm begin
	// 1533 "../Peripherals/src/kf32f_basic_osc.c" 1
	CLR [r5], #8
	// 0 "" 2
.LM465:
// inline asm end
	JMP	lr
.L187:
.LM466:
// inline asm begin
	// 1528 "../Peripherals/src/kf32f_basic_osc.c" 1
	SET [r5], #8
	// 0 "" 2
.LM467:
// inline asm end
	JMP	lr
	.cfi_endproc
.LFE53:
	.size	OSC_INTLF_INT_Enable, .-OSC_INTLF_INT_Enable
	.section .text$OSC_Get_Clock_Failure_INT_Flag
	.type	.text$OSC_Get_Clock_Failure_INT_Flag$scode_local_54, @function
	.text$OSC_Get_Clock_Failure_INT_Flag$scode_local_54:
	.align	1
	.export	OSC_Get_Clock_Failure_INT_Flag
	.type	OSC_Get_Clock_Failure_INT_Flag, @function
OSC_Get_Clock_Failure_INT_Flag:
.LFB54:
.LM468:
	.cfi_startproc
.LM469:
	MOV	r5,#1
	LSL	r5,#30
	LD.w	r0,[r5+#2]
	LSR	r0,#7
.LM470:
	MOV	r5,#1
	ANL	r0,r0,r5
	JMP	lr
	.cfi_endproc
.LFE54:
	.size	OSC_Get_Clock_Failure_INT_Flag, .-OSC_Get_Clock_Failure_INT_Flag
	.section .text$OSC_Get_PLL_INT_Flag
	.type	.text$OSC_Get_PLL_INT_Flag$scode_local_55, @function
	.text$OSC_Get_PLL_INT_Flag$scode_local_55:
	.align	1
	.export	OSC_Get_PLL_INT_Flag
	.type	OSC_Get_PLL_INT_Flag, @function
OSC_Get_PLL_INT_Flag:
.LFB55:
.LM471:
	.cfi_startproc
.LM472:
	MOV	r5,#1
	LSL	r5,#30
	LD.w	r0,[r5+#2]
	LSR	r0,#4
.LM473:
	MOV	r5,#1
	ANL	r0,r0,r5
	JMP	lr
	.cfi_endproc
.LFE55:
	.size	OSC_Get_PLL_INT_Flag, .-OSC_Get_PLL_INT_Flag
	.section .text$OSC_Get_EXTHF_INT_Flag
	.type	.text$OSC_Get_EXTHF_INT_Flag$scode_local_56, @function
	.text$OSC_Get_EXTHF_INT_Flag$scode_local_56:
	.align	1
	.export	OSC_Get_EXTHF_INT_Flag
	.type	OSC_Get_EXTHF_INT_Flag, @function
OSC_Get_EXTHF_INT_Flag:
.LFB56:
.LM474:
	.cfi_startproc
.LM475:
	MOV	r5,#1
	LSL	r5,#30
	LD.w	r0,[r5+#2]
	LSR	r0,#3
.LM476:
	MOV	r5,#1
	ANL	r0,r0,r5
	JMP	lr
	.cfi_endproc
.LFE56:
	.size	OSC_Get_EXTHF_INT_Flag, .-OSC_Get_EXTHF_INT_Flag
	.section .text$OSC_Get_EXTLF_INT_Flag
	.type	.text$OSC_Get_EXTLF_INT_Flag$scode_local_57, @function
	.text$OSC_Get_EXTLF_INT_Flag$scode_local_57:
	.align	1
	.export	OSC_Get_EXTLF_INT_Flag
	.type	OSC_Get_EXTLF_INT_Flag, @function
OSC_Get_EXTLF_INT_Flag:
.LFB57:
.LM477:
	.cfi_startproc
.LM478:
	MOV	r5,#1
	LSL	r5,#30
	LD.w	r0,[r5+#2]
	LSR	r0,#2
.LM479:
	MOV	r5,#1
	ANL	r0,r0,r5
	JMP	lr
	.cfi_endproc
.LFE57:
	.size	OSC_Get_EXTLF_INT_Flag, .-OSC_Get_EXTLF_INT_Flag
	.section .text$OSC_Get_INTHF_INT_Flag
	.type	.text$OSC_Get_INTHF_INT_Flag$scode_local_58, @function
	.text$OSC_Get_INTHF_INT_Flag$scode_local_58:
	.align	1
	.export	OSC_Get_INTHF_INT_Flag
	.type	OSC_Get_INTHF_INT_Flag, @function
OSC_Get_INTHF_INT_Flag:
.LFB58:
.LM480:
	.cfi_startproc
.LM481:
	MOV	r5,#1
	LSL	r5,#30
	LD.w	r0,[r5+#2]
	LSR	r0,#1
.LM482:
	MOV	r5,#1
	ANL	r0,r0,r5
	JMP	lr
	.cfi_endproc
.LFE58:
	.size	OSC_Get_INTHF_INT_Flag, .-OSC_Get_INTHF_INT_Flag
	.section .text$OSC_Get_INTLF_INT_Flag
	.type	.text$OSC_Get_INTLF_INT_Flag$scode_local_59, @function
	.text$OSC_Get_INTLF_INT_Flag$scode_local_59:
	.align	1
	.export	OSC_Get_INTLF_INT_Flag
	.type	OSC_Get_INTLF_INT_Flag, @function
OSC_Get_INTLF_INT_Flag:
.LFB59:
.LM483:
	.cfi_startproc
.LM484:
	MOV	r5,#1
	LSL	r5,#30
	LD.w	r0,[r5+#2]
.LM485:
	MOV	r5,#1
	ANL	r0,r0,r5
	JMP	lr
	.cfi_endproc
.LFE59:
	.size	OSC_Get_INTLF_INT_Flag, .-OSC_Get_INTLF_INT_Flag
	.section .text$OSC_Get_LP4MIF_INT_Flag
	.type	.text$OSC_Get_LP4MIF_INT_Flag$scode_local_60, @function
	.text$OSC_Get_LP4MIF_INT_Flag$scode_local_60:
	.align	1
	.export	OSC_Get_LP4MIF_INT_Flag
	.type	OSC_Get_LP4MIF_INT_Flag, @function
OSC_Get_LP4MIF_INT_Flag:
.LFB60:
.LM486:
	.cfi_startproc
.LM487:
	MOV	r5,#1
	LSL	r5,#30
	LD.w	r0,[r5+#2]
	LSR	r0,#6
.LM488:
	MOV	r5,#1
	ANL	r0,r0,r5
	JMP	lr
	.cfi_endproc
.LFE60:
	.size	OSC_Get_LP4MIF_INT_Flag, .-OSC_Get_LP4MIF_INT_Flag
	.text	
.Letext0: