	.file	"kf32f_basic_i2c.c"
	.text	
.Ltext0:
	.cfi_sections	.debug_frame
	.section .text$I2C_Reset
	.type	.text$I2C_Reset$scode_local_1, @function
	.text$I2C_Reset$scode_local_1:
	.align	1
	.export	I2C_Reset
	.type	I2C_Reset, @function
I2C_Reset:
.LFB1:
.LM1:
	.cfi_startproc
.LVL0:
	PUSH	lr
	.cfi_def_cfa_offset 4
.LM2:
	LD	r5,#1073745152
	CMP	r0,r5
	JZ	.L5
.LM3:
	LD	r5,#1073745280
	CMP	r0,r5
	JZ	.L6
.LVL1:
.L1:
.LM4:
	POP	lr
	.cfi_remember_state
	.cfi_def_cfa_offset 0
	JMP	lr
.LVL2:
.L6:
	.cfi_restore_state
.LM5:
	MOV	r0,#1
.LVL3:
	LSL	r0,#27
	MOV	r1,#1
	LJMP	RST_CTL1_Peripheral_Reset_Enable
.LVL4:
.LM6:
	MOV	r0,#1
	LSL	r0,#27
	MOV	r1,#0
	LJMP	RST_CTL1_Peripheral_Reset_Enable
.LVL5:
.LM7:
	MOV	r0,#1
	LSL	r0,#27
	MOV	r1,#1
	LJMP	PCLK_CTL1_Peripheral_Clock_Enable
.LVL6:
.LM8:
	POP	lr
	.cfi_remember_state
	.cfi_def_cfa_offset 0
	JMP	lr
.LVL7:
.L5:
	.cfi_restore_state
.LM9:
	MOV	r0,#1
.LVL8:
	LSL	r0,#26
	MOV	r1,#1
	LJMP	RST_CTL1_Peripheral_Reset_Enable
.LVL9:
.LM10:
	MOV	r0,#1
	LSL	r0,#26
	MOV	r1,#0
	LJMP	RST_CTL1_Peripheral_Reset_Enable
.LVL10:
.LM11:
	MOV	r0,#1
	LSL	r0,#26
	MOV	r1,#1
	LJMP	PCLK_CTL1_Peripheral_Clock_Enable
.LVL11:
	JMP	.L1
	.cfi_endproc
.LFE1:
	.size	I2C_Reset, .-I2C_Reset
	.section .text$I2C_Configuration
	.type	.text$I2C_Configuration$scode_local_2, @function
	.text$I2C_Configuration$scode_local_2:
	.align	1
	.export	I2C_Configuration
	.type	I2C_Configuration, @function
I2C_Configuration:
.LFB2:
.LM12:
	.cfi_startproc
.LVL12:
.LM13:
	LD.w	r3,[r0]
.LVL13:
.LM14:
	LD.w	r2,[r1+#1]
	LD.w	r4,[r1]
	ORL	r5,r2,r4
.LM15:
	LD.w	r2,[r1+#2]
	ORL	r5,r5,r2
.LM16:
	LD.w	r4,[r1+#3]
	ORL	r5,r5,r4
.LM17:
	LD.w	r2,[r1+#6]
	ORL	r5,r5,r2
	LD.w	r4,[r1+#5]
	LSL	r4,#12
.LM18:
	ORL	r5,r5,r4
.LBB16:
.LBB17:
.LM19:
	LD	r4,#-50540547
	ANL	r4,r3,r4
	ORL	r5,r5,r4
.LBE17:
.LBE16:
.LM20:
	ST.w	[r0],r5
.LM21:
	LD.h	r5,[r1+#8]
	LSL	r5,#16
.LM22:
	LD.h	r4,[r1+#9]
	ORL	r5,r5,r4
.LVL14:
.LM23:
	LD.w	r4,[r0+#4]
.LVL15:
	ST.w	[r0+#4],r5
.LM24:
	JMP	lr
	.cfi_endproc
.LFE2:
	.size	I2C_Configuration, .-I2C_Configuration
	.section .text$I2C_Struct_Init
	.type	.text$I2C_Struct_Init$scode_local_3, @function
	.text$I2C_Struct_Init$scode_local_3:
	.align	1
	.export	I2C_Struct_Init
	.type	I2C_Struct_Init, @function
I2C_Struct_Init:
.LFB3:
.LM25:
	.cfi_startproc
.LVL16:
.LM26:
	MOV	r5,#0
	ST.w	[r0],r5
.LM27:
	ST.w	[r0+#1],r5
.LM28:
	ST.w	[r0+#2],r5
.LM29:
	ST.w	[r0+#3],r5
.LM30:
	MOV	r4,#4
	ST.h	[r0+#8],r4
.LM31:
	ST.h	[r0+#9],r4
.LM32:
	ST.w	[r0+#5],r5
.LM33:
	ST.w	[r0+#6],r5
.LM34:
	JMP	lr
	.cfi_endproc
.LFE3:
	.size	I2C_Struct_Init, .-I2C_Struct_Init
	.section .text$I2C_Cmd
	.type	.text$I2C_Cmd$scode_local_4, @function
	.text$I2C_Cmd$scode_local_4:
	.align	1
	.export	I2C_Cmd
	.type	I2C_Cmd, @function
I2C_Cmd:
.LFB4:
.LM35:
	.cfi_startproc
.LVL17:
.LM36:
	CMP	r1,#0
	JNZ	.L12
.LM37:
// inline asm begin
	// 184 "../Peripherals/src/kf32f_basic_i2c.c" 1
	CLR [r0], #0
	// 0 "" 2
.LM38:
// inline asm end
	JMP	lr
.L12:
.LM39:
// inline asm begin
	// 179 "../Peripherals/src/kf32f_basic_i2c.c" 1
	SET [r0], #0
	// 0 "" 2
.LM40:
// inline asm end
	JMP	lr
	.cfi_endproc
.LFE4:
	.size	I2C_Cmd, .-I2C_Cmd
	.section .text$I2C_Bufr_Address_Config
	.type	.text$I2C_Bufr_Address_Config$scode_local_5, @function
	.text$I2C_Bufr_Address_Config$scode_local_5:
	.align	1
	.export	I2C_Bufr_Address_Config
	.type	I2C_Bufr_Address_Config, @function
I2C_Bufr_Address_Config:
.LFB5:
.LM41:
	.cfi_startproc
.LVL18:
.LM42:
	CMP	r1,#0
	JNZ	.L16
.LM43:
// inline asm begin
	// 211 "../Peripherals/src/kf32f_basic_i2c.c" 1
	CLR [r0], #1
	// 0 "" 2
.LM44:
// inline asm end
	JMP	lr
.L16:
.LM45:
// inline asm begin
	// 206 "../Peripherals/src/kf32f_basic_i2c.c" 1
	SET [r0], #1
	// 0 "" 2
.LM46:
// inline asm end
	JMP	lr
	.cfi_endproc
.LFE5:
	.size	I2C_Bufr_Address_Config, .-I2C_Bufr_Address_Config
	.section .text$I2C_Generate_START
	.type	.text$I2C_Generate_START$scode_local_6, @function
	.text$I2C_Generate_START$scode_local_6:
	.align	1
	.export	I2C_Generate_START
	.type	I2C_Generate_START, @function
I2C_Generate_START:
.LFB6:
.LM47:
	.cfi_startproc
.LVL19:
.LM48:
	CMP	r1,#0
	JNZ	.L20
.LM49:
// inline asm begin
	// 237 "../Peripherals/src/kf32f_basic_i2c.c" 1
	CLR [r0], #8
	// 0 "" 2
.LM50:
// inline asm end
	JMP	lr
.L20:
.LM51:
// inline asm begin
	// 232 "../Peripherals/src/kf32f_basic_i2c.c" 1
	SET [r0], #8
	// 0 "" 2
.LM52:
// inline asm end
	JMP	lr
	.cfi_endproc
.LFE6:
	.size	I2C_Generate_START, .-I2C_Generate_START
	.section .text$I2C_Generate_STOP
	.type	.text$I2C_Generate_STOP$scode_local_7, @function
	.text$I2C_Generate_STOP$scode_local_7:
	.align	1
	.export	I2C_Generate_STOP
	.type	I2C_Generate_STOP, @function
I2C_Generate_STOP:
.LFB7:
.LM53:
	.cfi_startproc
.LVL20:
.LM54:
	CMP	r1,#0
	JNZ	.L24
.LM55:
// inline asm begin
	// 263 "../Peripherals/src/kf32f_basic_i2c.c" 1
	CLR [r0], #10
	// 0 "" 2
.LM56:
// inline asm end
	JMP	lr
.L24:
.LM57:
// inline asm begin
	// 258 "../Peripherals/src/kf32f_basic_i2c.c" 1
	SET [r0], #10
	// 0 "" 2
.LM58:
// inline asm end
	JMP	lr
	.cfi_endproc
.LFE7:
	.size	I2C_Generate_STOP, .-I2C_Generate_STOP
	.section .text$I2C_Ack_Config
	.type	.text$I2C_Ack_Config$scode_local_8, @function
	.text$I2C_Ack_Config$scode_local_8:
	.align	1
	.export	I2C_Ack_Config
	.type	I2C_Ack_Config, @function
I2C_Ack_Config:
.LFB8:
.LM59:
	.cfi_startproc
.LVL21:
.LM60:
	CMP	r1,#0
	JNZ	.L28
.LM61:
// inline asm begin
	// 289 "../Peripherals/src/kf32f_basic_i2c.c" 1
	CLR [r0], #12
	// 0 "" 2
.LM62:
// inline asm end
	JMP	lr
.L28:
.LM63:
// inline asm begin
	// 284 "../Peripherals/src/kf32f_basic_i2c.c" 1
	SET [r0], #12
	// 0 "" 2
.LM64:
// inline asm end
	JMP	lr
	.cfi_endproc
.LFE8:
	.size	I2C_Ack_Config, .-I2C_Ack_Config
	.section .text$I2C_Ack_DATA_Config
	.type	.text$I2C_Ack_DATA_Config$scode_local_9, @function
	.text$I2C_Ack_DATA_Config$scode_local_9:
	.align	1
	.export	I2C_Ack_DATA_Config
	.type	I2C_Ack_DATA_Config, @function
I2C_Ack_DATA_Config:
.LFB9:
.LM65:
	.cfi_startproc
.LVL22:
.LM66:
	CMP	r1,#0
	JNZ	.L32
.LM67:
// inline asm begin
	// 317 "../Peripherals/src/kf32f_basic_i2c.c" 1
	CLR [r0], #13
	// 0 "" 2
.LM68:
// inline asm end
	JMP	lr
.L32:
.LM69:
// inline asm begin
	// 312 "../Peripherals/src/kf32f_basic_i2c.c" 1
	SET [r0], #13
	// 0 "" 2
.LM70:
// inline asm end
	JMP	lr
	.cfi_endproc
.LFE9:
	.size	I2C_Ack_DATA_Config, .-I2C_Ack_DATA_Config
	.section .text$I2C_Call_Cmd
	.type	.text$I2C_Call_Cmd$scode_local_10, @function
	.text$I2C_Call_Cmd$scode_local_10:
	.align	1
	.export	I2C_Call_Cmd
	.type	I2C_Call_Cmd, @function
I2C_Call_Cmd:
.LFB10:
.LM71:
	.cfi_startproc
.LVL23:
.LM72:
	CMP	r1,#0
	JNZ	.L36
.LM73:
// inline asm begin
	// 343 "../Peripherals/src/kf32f_basic_i2c.c" 1
	CLR [r0], #14
	// 0 "" 2
.LM74:
// inline asm end
	JMP	lr
.L36:
.LM75:
// inline asm begin
	// 338 "../Peripherals/src/kf32f_basic_i2c.c" 1
	SET [r0], #14
	// 0 "" 2
.LM76:
// inline asm end
	JMP	lr
	.cfi_endproc
.LFE10:
	.size	I2C_Call_Cmd, .-I2C_Call_Cmd
	.section .text$I2C_Clock_Config
	.type	.text$I2C_Clock_Config$scode_local_11, @function
	.text$I2C_Clock_Config$scode_local_11:
	.align	1
	.export	I2C_Clock_Config
	.type	I2C_Clock_Config, @function
I2C_Clock_Config:
.LFB11:
.LM77:
	.cfi_startproc
.LVL24:
.LM78:
	LD.w	r5,[r0]
.LVL25:
.LBB18:
.LBB19:
.LM79:
	CLR	r5,#16
	CLR	r5,#17
.LVL26:
	ORL	r1,r1,r5
.LVL27:
.LBE19:
.LBE18:
.LM80:
	ST.w	[r0],r1
.LM81:
	JMP	lr
	.cfi_endproc
.LFE11:
	.size	I2C_Clock_Config, .-I2C_Clock_Config
	.section .text$I2C_MATCH_ADDRESS_Config
	.type	.text$I2C_MATCH_ADDRESS_Config$scode_local_12, @function
	.text$I2C_MATCH_ADDRESS_Config$scode_local_12:
	.align	1
	.export	I2C_MATCH_ADDRESS_Config
	.type	I2C_MATCH_ADDRESS_Config, @function
I2C_MATCH_ADDRESS_Config:
.LFB12:
.LM82:
	.cfi_startproc
.LVL28:
.LM83:
	CMP	r1,#0
	JNZ	.L41
.LM84:
// inline asm begin
	// 388 "../Peripherals/src/kf32f_basic_i2c.c" 1
	CLR [r0], #20
	// 0 "" 2
.LM85:
// inline asm end
	JMP	lr
.L41:
.LM86:
// inline asm begin
	// 383 "../Peripherals/src/kf32f_basic_i2c.c" 1
	SET [r0], #20
	// 0 "" 2
.LM87:
// inline asm end
	JMP	lr
	.cfi_endproc
.LFE12:
	.size	I2C_MATCH_ADDRESS_Config, .-I2C_MATCH_ADDRESS_Config
	.section .text$I2C_SCL_Enable
	.type	.text$I2C_SCL_Enable$scode_local_13, @function
	.text$I2C_SCL_Enable$scode_local_13:
	.align	1
	.export	I2C_SCL_Enable
	.type	I2C_SCL_Enable, @function
I2C_SCL_Enable:
.LFB13:
.LM88:
	.cfi_startproc
.LVL29:
.LM89:
	CMP	r1,#0
	JNZ	.L45
.LM90:
// inline asm begin
	// 414 "../Peripherals/src/kf32f_basic_i2c.c" 1
	CLR [r0], #21
	// 0 "" 2
.LM91:
// inline asm end
	JMP	lr
.L45:
.LM92:
// inline asm begin
	// 409 "../Peripherals/src/kf32f_basic_i2c.c" 1
	SET [r0], #21
	// 0 "" 2
.LM93:
// inline asm end
	JMP	lr
	.cfi_endproc
.LFE13:
	.size	I2C_SCL_Enable, .-I2C_SCL_Enable
	.section .text$I2C_NMENA_Enable
	.type	.text$I2C_NMENA_Enable$scode_local_14, @function
	.text$I2C_NMENA_Enable$scode_local_14:
	.align	1
	.export	I2C_NMENA_Enable
	.type	I2C_NMENA_Enable, @function
I2C_NMENA_Enable:
.LFB14:
.LM94:
	.cfi_startproc
.LVL30:
.LM95:
	CMP	r1,#0
	JNZ	.L49
.LM96:
// inline asm begin
	// 440 "../Peripherals/src/kf32f_basic_i2c.c" 1
	CLR [r0], #22
	// 0 "" 2
.LM97:
// inline asm end
	JMP	lr
.L49:
.LM98:
// inline asm begin
	// 435 "../Peripherals/src/kf32f_basic_i2c.c" 1
	SET [r0], #22
	// 0 "" 2
.LM99:
// inline asm end
	JMP	lr
	.cfi_endproc
.LFE14:
	.size	I2C_NMENA_Enable, .-I2C_NMENA_Enable
	.section .text$I2C_SMBUS_Enable
	.type	.text$I2C_SMBUS_Enable$scode_local_15, @function
	.text$I2C_SMBUS_Enable$scode_local_15:
	.align	1
	.export	I2C_SMBUS_Enable
	.type	I2C_SMBUS_Enable, @function
I2C_SMBUS_Enable:
.LFB15:
.LM100:
	.cfi_startproc
.LVL31:
.LM101:
	CMP	r1,#0
	JNZ	.L53
.LM102:
// inline asm begin
	// 468 "../Peripherals/src/kf32f_basic_i2c.c" 1
	CLR [r0], #24
	// 0 "" 2
.LM103:
// inline asm end
	JMP	lr
.L53:
.LM104:
// inline asm begin
	// 463 "../Peripherals/src/kf32f_basic_i2c.c" 1
	SET [r0], #24
	// 0 "" 2
.LM105:
// inline asm end
	JMP	lr
	.cfi_endproc
.LFE15:
	.size	I2C_SMBUS_Enable, .-I2C_SMBUS_Enable
	.section .text$I2C_SMBT_Config
	.type	.text$I2C_SMBT_Config$scode_local_16, @function
	.text$I2C_SMBT_Config$scode_local_16:
	.align	1
	.export	I2C_SMBT_Config
	.type	I2C_SMBT_Config, @function
I2C_SMBT_Config:
.LFB16:
.LM106:
	.cfi_startproc
.LVL32:
.LM107:
	CMP	r1,#0
	JNZ	.L57
.LM108:
// inline asm begin
	// 496 "../Peripherals/src/kf32f_basic_i2c.c" 1
	CLR [r0], #25
	// 0 "" 2
.LM109:
// inline asm end
	JMP	lr
.L57:
.LM110:
// inline asm begin
	// 491 "../Peripherals/src/kf32f_basic_i2c.c" 1
	SET [r0], #25
	// 0 "" 2
.LM111:
// inline asm end
	JMP	lr
	.cfi_endproc
.LFE16:
	.size	I2C_SMBT_Config, .-I2C_SMBT_Config
	.section .text$I2C_SMBus_ALERT_Config
	.type	.text$I2C_SMBus_ALERT_Config$scode_local_17, @function
	.text$I2C_SMBus_ALERT_Config$scode_local_17:
	.align	1
	.export	I2C_SMBus_ALERT_Config
	.type	I2C_SMBus_ALERT_Config, @function
I2C_SMBus_ALERT_Config:
.LFB17:
.LM112:
	.cfi_startproc
.LVL33:
.LM113:
	CMP	r1,#0
	JNZ	.L61
.LM114:
// inline asm begin
	// 522 "../Peripherals/src/kf32f_basic_i2c.c" 1
	CLR [r0], #27
	// 0 "" 2
.LM115:
// inline asm end
	JMP	lr
.L61:
.LM116:
// inline asm begin
	// 517 "../Peripherals/src/kf32f_basic_i2c.c" 1
	SET [r0], #27
	// 0 "" 2
.LM117:
// inline asm end
	JMP	lr
	.cfi_endproc
.LFE17:
	.size	I2C_SMBus_ALERT_Config, .-I2C_SMBus_ALERT_Config
	.section .text$I2C_SendData
	.type	.text$I2C_SendData$scode_local_18, @function
	.text$I2C_SendData$scode_local_18:
	.align	1
	.export	I2C_SendData
	.type	I2C_SendData, @function
I2C_SendData:
.LFB18:
.LM118:
	.cfi_startproc
.LVL34:
.LM119:
	ST.w	[r0+#2],r1
.LM120:
	JMP	lr
	.cfi_endproc
.LFE18:
	.size	I2C_SendData, .-I2C_SendData
	.section .text$I2C_SendData8
	.type	.text$I2C_SendData8$scode_local_19, @function
	.text$I2C_SendData8$scode_local_19:
	.align	1
	.export	I2C_SendData8
	.type	I2C_SendData8, @function
I2C_SendData8:
.LFB19:
.LM121:
	.cfi_startproc
.LVL35:
	ZXT.b	r1,r1
.LM122:
	ST.w	[r0+#2],r1
.LM123:
	JMP	lr
	.cfi_endproc
.LFE19:
	.size	I2C_SendData8, .-I2C_SendData8
	.section .text$I2C_ReceiveData
	.type	.text$I2C_ReceiveData$scode_local_20, @function
	.text$I2C_ReceiveData$scode_local_20:
	.align	1
	.export	I2C_ReceiveData
	.type	I2C_ReceiveData, @function
I2C_ReceiveData:
.LFB20:
.LM124:
	.cfi_startproc
.LVL36:
.LM125:
	LD.w	r0,[r0+#2]
.LVL37:
.LM126:
	LD	r5,#1023
	ANL	r0,r0,r5
.LVL38:
	JMP	lr
	.cfi_endproc
.LFE20:
	.size	I2C_ReceiveData, .-I2C_ReceiveData
	.section .text$I2C_ARP_Enable
	.type	.text$I2C_ARP_Enable$scode_local_21, @function
	.text$I2C_ARP_Enable$scode_local_21:
	.align	1
	.export	I2C_ARP_Enable
	.type	I2C_ARP_Enable, @function
I2C_ARP_Enable:
.LFB21:
.LM127:
	.cfi_startproc
.LVL39:
.LM128:
	CMP	r1,#0
	JNZ	.L68
.LM129:
// inline asm begin
	// 602 "../Peripherals/src/kf32f_basic_i2c.c" 1
	CLR [r0], #26
	// 0 "" 2
.LM130:
// inline asm end
	JMP	lr
.L68:
.LM131:
// inline asm begin
	// 597 "../Peripherals/src/kf32f_basic_i2c.c" 1
	SET [r0], #26
	// 0 "" 2
.LM132:
// inline asm end
	JMP	lr
	.cfi_endproc
.LFE21:
	.size	I2C_ARP_Enable, .-I2C_ARP_Enable
	.section .text$I2C_ADDR_Config
	.type	.text$I2C_ADDR_Config$scode_local_22, @function
	.text$I2C_ADDR_Config$scode_local_22:
	.align	1
	.export	I2C_ADDR_Config
	.type	I2C_ADDR_Config, @function
I2C_ADDR_Config:
.LFB22:
.LM133:
	.cfi_startproc
.LVL40:
.LM134:
	CMP	r1,#0
	JZ	.L72
.LM135:
	ADD	r0,#16
.LVL41:
	LSL	r1,#2
.LVL42:
	ADD	r0,r0,r1
.LVL43:
.LM136:
	LD.w	r4,[r0]
.LVL44:
.LBB20:
.LBB21:
.LM137:
	LD	r5,#-1024
	ANL	r5,r4,r5
	ORL	r2,r5,r2
.LVL45:
.LBE21:
.LBE20:
.LM138:
	ST.w	[r0],r2
.LM139:
	JMP	lr
.LVL46:
.L72:
.LM140:
	ADD	r0,#12
.LVL47:
.LM141:
	LD.w	r4,[r0]
.LVL48:
.LBB23:
.LBB22:
.LM142:
	LD	r5,#-1024
	ANL	r5,r4,r5
	ORL	r2,r5,r2
.LVL49:
.LBE22:
.LBE23:
.LM143:
	ST.w	[r0],r2
.LM144:
	JMP	lr
	.cfi_endproc
.LFE22:
	.size	I2C_ADDR_Config, .-I2C_ADDR_Config
	.section .text$I2C_MSK_Config
	.type	.text$I2C_MSK_Config$scode_local_23, @function
	.text$I2C_MSK_Config$scode_local_23:
	.align	1
	.export	I2C_MSK_Config
	.type	I2C_MSK_Config, @function
I2C_MSK_Config:
.LFB23:
.LM145:
	.cfi_startproc
.LVL50:
.LM146:
	LSL	r2,#16
.LVL51:
.LM147:
	CMP	r1,#0
	JZ	.L76
.LM148:
	ADD	r0,#16
.LVL52:
	LSL	r1,#2
.LVL53:
	ADD	r0,r0,r1
.LVL54:
.LM149:
	LD.w	r4,[r0]
.LVL55:
.LBB24:
.LBB25:
.LM150:
	LD	r5,#-67043329
	ANL	r5,r4,r5
	ORL	r2,r5,r2
.LVL56:
.LBE25:
.LBE24:
.LM151:
	ST.w	[r0],r2
.LM152:
	JMP	lr
.LVL57:
.L76:
.LM153:
	ADD	r0,#12
.LVL58:
.LM154:
	LD.w	r4,[r0]
.LVL59:
.LBB27:
.LBB26:
.LM155:
	LD	r5,#-67043329
	ANL	r5,r4,r5
	ORL	r2,r5,r2
.LVL60:
.LBE26:
.LBE27:
.LM156:
	ST.w	[r0],r2
.LM157:
	JMP	lr
	.cfi_endproc
.LFE23:
	.size	I2C_MSK_Config, .-I2C_MSK_Config
	.section .text$I2C_BRGH_Config
	.type	.text$I2C_BRGH_Config$scode_local_24, @function
	.text$I2C_BRGH_Config$scode_local_24:
	.align	1
	.export	I2C_BRGH_Config
	.type	I2C_BRGH_Config, @function
I2C_BRGH_Config:
.LFB24:
.LM158:
	.cfi_startproc
.LVL61:
	ZXT.h	r1,r1
.LVL62:
.LM159:
	LD.w	r4,[r0+#4]
.LVL63:
.LBB28:
.LBB29:
.LM160:
	LD	r5,#-65536
	ANL	r5,r4,r5
	ORL	r1,r1,r5
.LVL64:
.LBE29:
.LBE28:
.LM161:
	ST.w	[r0+#4],r1
.LM162:
	JMP	lr
	.cfi_endproc
.LFE24:
	.size	I2C_BRGH_Config, .-I2C_BRGH_Config
	.section .text$I2C_BRGL_Config
	.type	.text$I2C_BRGL_Config$scode_local_25, @function
	.text$I2C_BRGL_Config$scode_local_25:
	.align	1
	.export	I2C_BRGL_Config
	.type	I2C_BRGL_Config, @function
I2C_BRGL_Config:
.LFB25:
.LM163:
	.cfi_startproc
.LVL65:
.LM164:
	LD.w	r5,[r0+#4]
.LVL66:
.LM165:
	LSL	r1,#16
.LVL67:
.LBB30:
.LBB31:
.LM166:
	ZXT.h	r5,r5
.LVL68:
	ORL	r5,r1,r5
.LBE31:
.LBE30:
.LM167:
	ST.w	[r0+#4],r5
.LM168:
	JMP	lr
	.cfi_endproc
.LFE25:
	.size	I2C_BRGL_Config, .-I2C_BRGL_Config
	.section .text$I2C_Start_INT_Enable
	.type	.text$I2C_Start_INT_Enable$scode_local_26, @function
	.text$I2C_Start_INT_Enable$scode_local_26:
	.align	1
	.export	I2C_Start_INT_Enable
	.type	I2C_Start_INT_Enable, @function
I2C_Start_INT_Enable:
.LFB26:
.LM169:
	.cfi_startproc
.LVL69:
.LM170:
	ADD	r0,#32
.LVL70:
.LM171:
	CMP	r1,#0
	JNZ	.L82
.LM172:
// inline asm begin
	// 742 "../Peripherals/src/kf32f_basic_i2c.c" 1
	CLR [r0], #0
	// 0 "" 2
.LM173:
// inline asm end
	JMP	lr
.L82:
.LM174:
// inline asm begin
	// 737 "../Peripherals/src/kf32f_basic_i2c.c" 1
	SET [r0], #0
	// 0 "" 2
.LM175:
// inline asm end
	JMP	lr
	.cfi_endproc
.LFE26:
	.size	I2C_Start_INT_Enable, .-I2C_Start_INT_Enable
	.section .text$I2C_Stop_INT_Enable
	.type	.text$I2C_Stop_INT_Enable$scode_local_27, @function
	.text$I2C_Stop_INT_Enable$scode_local_27:
	.align	1
	.export	I2C_Stop_INT_Enable
	.type	I2C_Stop_INT_Enable, @function
I2C_Stop_INT_Enable:
.LFB27:
.LM176:
	.cfi_startproc
.LVL71:
.LM177:
	ADD	r0,#32
.LVL72:
.LM178:
	CMP	r1,#0
	JNZ	.L86
.LM179:
// inline asm begin
	// 768 "../Peripherals/src/kf32f_basic_i2c.c" 1
	CLR [r0], #1
	// 0 "" 2
.LM180:
// inline asm end
	JMP	lr
.L86:
.LM181:
// inline asm begin
	// 763 "../Peripherals/src/kf32f_basic_i2c.c" 1
	SET [r0], #1
	// 0 "" 2
.LM182:
// inline asm end
	JMP	lr
	.cfi_endproc
.LFE27:
	.size	I2C_Stop_INT_Enable, .-I2C_Stop_INT_Enable
	.section .text$I2C_Ack_Fail_INT_Enable
	.type	.text$I2C_Ack_Fail_INT_Enable$scode_local_28, @function
	.text$I2C_Ack_Fail_INT_Enable$scode_local_28:
	.align	1
	.export	I2C_Ack_Fail_INT_Enable
	.type	I2C_Ack_Fail_INT_Enable, @function
I2C_Ack_Fail_INT_Enable:
.LFB28:
.LM183:
	.cfi_startproc
.LVL73:
.LM184:
	ADD	r0,#32
.LVL74:
.LM185:
	CMP	r1,#0
	JNZ	.L90
.LM186:
// inline asm begin
	// 794 "../Peripherals/src/kf32f_basic_i2c.c" 1
	CLR [r0], #5
	// 0 "" 2
.LM187:
// inline asm end
	JMP	lr
.L90:
.LM188:
// inline asm begin
	// 789 "../Peripherals/src/kf32f_basic_i2c.c" 1
	SET [r0], #5
	// 0 "" 2
.LM189:
// inline asm end
	JMP	lr
	.cfi_endproc
.LFE28:
	.size	I2C_Ack_Fail_INT_Enable, .-I2C_Ack_Fail_INT_Enable
	.section .text$I2C_Arbitration_Lost_INT_Enable
	.type	.text$I2C_Arbitration_Lost_INT_Enable$scode_local_29, @function
	.text$I2C_Arbitration_Lost_INT_Enable$scode_local_29:
	.align	1
	.export	I2C_Arbitration_Lost_INT_Enable
	.type	I2C_Arbitration_Lost_INT_Enable, @function
I2C_Arbitration_Lost_INT_Enable:
.LFB29:
.LM190:
	.cfi_startproc
.LVL75:
.LM191:
	ADD	r0,#32
.LVL76:
.LM192:
	CMP	r1,#0
	JNZ	.L94
.LM193:
// inline asm begin
	// 820 "../Peripherals/src/kf32f_basic_i2c.c" 1
	CLR [r0], #6
	// 0 "" 2
.LM194:
// inline asm end
	JMP	lr
.L94:
.LM195:
// inline asm begin
	// 815 "../Peripherals/src/kf32f_basic_i2c.c" 1
	SET [r0], #6
	// 0 "" 2
.LM196:
// inline asm end
	JMP	lr
	.cfi_endproc
.LFE29:
	.size	I2C_Arbitration_Lost_INT_Enable, .-I2C_Arbitration_Lost_INT_Enable
	.section .text$I2C_SMBus_Alert_INT_Enable
	.type	.text$I2C_SMBus_Alert_INT_Enable$scode_local_30, @function
	.text$I2C_SMBus_Alert_INT_Enable$scode_local_30:
	.align	1
	.export	I2C_SMBus_Alert_INT_Enable
	.type	I2C_SMBus_Alert_INT_Enable, @function
I2C_SMBus_Alert_INT_Enable:
.LFB30:
.LM197:
	.cfi_startproc
.LVL77:
.LM198:
	ADD	r0,#32
.LVL78:
.LM199:
	CMP	r1,#0
	JNZ	.L98
.LM200:
// inline asm begin
	// 846 "../Peripherals/src/kf32f_basic_i2c.c" 1
	CLR [r0], #8
	// 0 "" 2
.LM201:
// inline asm end
	JMP	lr
.L98:
.LM202:
// inline asm begin
	// 841 "../Peripherals/src/kf32f_basic_i2c.c" 1
	SET [r0], #8
	// 0 "" 2
.LM203:
// inline asm end
	JMP	lr
	.cfi_endproc
.LFE30:
	.size	I2C_SMBus_Alert_INT_Enable, .-I2C_SMBus_Alert_INT_Enable
	.section .text$I2C_SMBus_HostHead_INT_Enable
	.type	.text$I2C_SMBus_HostHead_INT_Enable$scode_local_31, @function
	.text$I2C_SMBus_HostHead_INT_Enable$scode_local_31:
	.align	1
	.export	I2C_SMBus_HostHead_INT_Enable
	.type	I2C_SMBus_HostHead_INT_Enable, @function
I2C_SMBus_HostHead_INT_Enable:
.LFB31:
.LM204:
	.cfi_startproc
.LVL79:
.LM205:
	ADD	r0,#32
.LVL80:
.LM206:
	CMP	r1,#0
	JNZ	.L102
.LM207:
// inline asm begin
	// 872 "../Peripherals/src/kf32f_basic_i2c.c" 1
	CLR [r0], #9
	// 0 "" 2
.LM208:
// inline asm end
	JMP	lr
.L102:
.LM209:
// inline asm begin
	// 867 "../Peripherals/src/kf32f_basic_i2c.c" 1
	SET [r0], #9
	// 0 "" 2
.LM210:
// inline asm end
	JMP	lr
	.cfi_endproc
.LFE31:
	.size	I2C_SMBus_HostHead_INT_Enable, .-I2C_SMBus_HostHead_INT_Enable
	.section .text$I2C_SMBus_Device_Defaultaddress_INT_Enable
	.type	.text$I2C_SMBus_Device_Defaultaddress_INT_Enable$scode_local_32, @function
	.text$I2C_SMBus_Device_Defaultaddress_INT_Enable$scode_local_32:
	.align	1
	.export	I2C_SMBus_Device_Defaultaddress_INT_Enable
	.type	I2C_SMBus_Device_Defaultaddress_INT_Enable, @function
I2C_SMBus_Device_Defaultaddress_INT_Enable:
.LFB32:
.LM211:
	.cfi_startproc
.LVL81:
.LM212:
	ADD	r0,#32
.LVL82:
.LM213:
	CMP	r1,#0
	JNZ	.L106
.LM214:
// inline asm begin
	// 899 "../Peripherals/src/kf32f_basic_i2c.c" 1
	CLR [r0], #10
	// 0 "" 2
.LM215:
// inline asm end
	JMP	lr
.L106:
.LM216:
// inline asm begin
	// 894 "../Peripherals/src/kf32f_basic_i2c.c" 1
	SET [r0], #10
	// 0 "" 2
.LM217:
// inline asm end
	JMP	lr
	.cfi_endproc
.LFE32:
	.size	I2C_SMBus_Device_Defaultaddress_INT_Enable, .-I2C_SMBus_Device_Defaultaddress_INT_Enable
	.section .text$I2C_ISIE_INT_Enable
	.type	.text$I2C_ISIE_INT_Enable$scode_local_33, @function
	.text$I2C_ISIE_INT_Enable$scode_local_33:
	.align	1
	.export	I2C_ISIE_INT_Enable
	.type	I2C_ISIE_INT_Enable, @function
I2C_ISIE_INT_Enable:
.LFB33:
.LM218:
	.cfi_startproc
.LVL83:
.LM219:
	ADD	r0,#32
.LVL84:
.LM220:
	CMP	r1,#0
	JNZ	.L110
.LM221:
// inline asm begin
	// 925 "../Peripherals/src/kf32f_basic_i2c.c" 1
	CLR [r0], #11
	// 0 "" 2
.LM222:
// inline asm end
	JMP	lr
.L110:
.LM223:
// inline asm begin
	// 920 "../Peripherals/src/kf32f_basic_i2c.c" 1
	SET [r0], #11
	// 0 "" 2
.LM224:
// inline asm end
	JMP	lr
	.cfi_endproc
.LFE33:
	.size	I2C_ISIE_INT_Enable, .-I2C_ISIE_INT_Enable
	.section .text$I2C_Receive_DMA_INT_Enable
	.type	.text$I2C_Receive_DMA_INT_Enable$scode_local_34, @function
	.text$I2C_Receive_DMA_INT_Enable$scode_local_34:
	.align	1
	.export	I2C_Receive_DMA_INT_Enable
	.type	I2C_Receive_DMA_INT_Enable, @function
I2C_Receive_DMA_INT_Enable:
.LFB34:
.LM225:
	.cfi_startproc
.LVL85:
.LM226:
	ADD	r0,#32
.LVL86:
.LM227:
	CMP	r1,#0
	JNZ	.L114
.LM228:
// inline asm begin
	// 951 "../Peripherals/src/kf32f_basic_i2c.c" 1
	CLR [r0], #16
	// 0 "" 2
.LM229:
// inline asm end
	JMP	lr
.L114:
.LM230:
// inline asm begin
	// 946 "../Peripherals/src/kf32f_basic_i2c.c" 1
	SET [r0], #16
	// 0 "" 2
.LM231:
// inline asm end
	JMP	lr
	.cfi_endproc
.LFE34:
	.size	I2C_Receive_DMA_INT_Enable, .-I2C_Receive_DMA_INT_Enable
	.section .text$I2C_Transmit_DMA_INT_Enable
	.type	.text$I2C_Transmit_DMA_INT_Enable$scode_local_35, @function
	.text$I2C_Transmit_DMA_INT_Enable$scode_local_35:
	.align	1
	.export	I2C_Transmit_DMA_INT_Enable
	.type	I2C_Transmit_DMA_INT_Enable, @function
I2C_Transmit_DMA_INT_Enable:
.LFB35:
.LM232:
	.cfi_startproc
.LVL87:
.LM233:
	ADD	r0,#32
.LVL88:
.LM234:
	CMP	r1,#0
	JNZ	.L118
.LM235:
// inline asm begin
	// 977 "../Peripherals/src/kf32f_basic_i2c.c" 1
	CLR [r0], #17
	// 0 "" 2
.LM236:
// inline asm end
	JMP	lr
.L118:
.LM237:
// inline asm begin
	// 972 "../Peripherals/src/kf32f_basic_i2c.c" 1
	SET [r0], #17
	// 0 "" 2
.LM238:
// inline asm end
	JMP	lr
	.cfi_endproc
.LFE35:
	.size	I2C_Transmit_DMA_INT_Enable, .-I2C_Transmit_DMA_INT_Enable
	.section .text$I2C_Bus_Error_INT_Enable
	.type	.text$I2C_Bus_Error_INT_Enable$scode_local_36, @function
	.text$I2C_Bus_Error_INT_Enable$scode_local_36:
	.align	1
	.export	I2C_Bus_Error_INT_Enable
	.type	I2C_Bus_Error_INT_Enable, @function
I2C_Bus_Error_INT_Enable:
.LFB36:
.LM239:
	.cfi_startproc
.LVL89:
.LM240:
	ADD	r0,#32
.LVL90:
.LM241:
	CMP	r1,#0
	JNZ	.L122
.LM242:
// inline asm begin
	// 1003 "../Peripherals/src/kf32f_basic_i2c.c" 1
	CLR [r0], #18
	// 0 "" 2
.LM243:
// inline asm end
	JMP	lr
.L122:
.LM244:
// inline asm begin
	// 998 "../Peripherals/src/kf32f_basic_i2c.c" 1
	SET [r0], #18
	// 0 "" 2
.LM245:
// inline asm end
	JMP	lr
	.cfi_endproc
.LFE36:
	.size	I2C_Bus_Error_INT_Enable, .-I2C_Bus_Error_INT_Enable
	.section .text$I2C_Get_Start_Flag
	.type	.text$I2C_Get_Start_Flag$scode_local_37, @function
	.text$I2C_Get_Start_Flag$scode_local_37:
	.align	1
	.export	I2C_Get_Start_Flag
	.type	I2C_Get_Start_Flag, @function
I2C_Get_Start_Flag:
.LFB37:
.LM246:
	.cfi_startproc
.LVL91:
.LM247:
	LD.w	r0,[r0+#1]
.LVL92:
.LM248:
	MOV	r5,#1
	ANL	r0,r0,r5
	JMP	lr
	.cfi_endproc
.LFE37:
	.size	I2C_Get_Start_Flag, .-I2C_Get_Start_Flag
	.section .text$I2C_Clear_Start_Flag
	.type	.text$I2C_Clear_Start_Flag$scode_local_38, @function
	.text$I2C_Clear_Start_Flag$scode_local_38:
	.align	1
	.export	I2C_Clear_Start_Flag
	.type	I2C_Clear_Start_Flag, @function
I2C_Clear_Start_Flag:
.LFB38:
.LM249:
	.cfi_startproc
.LVL93:
.LM250:
	LD.w	r5,[r0+#1]
	MOV	r4,#1
	ANL	r5,r5,r4
	JZ	.L124
	ADD	r3,r0,#4
.L126:
.LM251:
// inline asm begin
	// 1046 "../Peripherals/src/kf32f_basic_i2c.c" 1
	CLR [r3], #0
	// 0 "" 2
.LM252:
// inline asm end
	LD.w	r5,[r0+#1]
	ANL	r5,r5,r4
	JNZ	.L126
.L124:
.LM253:
	JMP	lr
	.cfi_endproc
.LFE38:
	.size	I2C_Clear_Start_Flag, .-I2C_Clear_Start_Flag
	.section .text$I2C_Get_Stop_Flag
	.type	.text$I2C_Get_Stop_Flag$scode_local_39, @function
	.text$I2C_Get_Stop_Flag$scode_local_39:
	.align	1
	.export	I2C_Get_Stop_Flag
	.type	I2C_Get_Stop_Flag, @function
I2C_Get_Stop_Flag:
.LFB39:
.LM254:
	.cfi_startproc
.LVL94:
.LM255:
	LD.w	r0,[r0+#1]
.LVL95:
	LSR	r0,#1
.LM256:
	MOV	r5,#1
	ANL	r0,r0,r5
	JMP	lr
	.cfi_endproc
.LFE39:
	.size	I2C_Get_Stop_Flag, .-I2C_Get_Stop_Flag
	.section .text$I2C_Clear_Stop_Flag
	.type	.text$I2C_Clear_Stop_Flag$scode_local_40, @function
	.text$I2C_Clear_Stop_Flag$scode_local_40:
	.align	1
	.export	I2C_Clear_Stop_Flag
	.type	I2C_Clear_Stop_Flag, @function
I2C_Clear_Stop_Flag:
.LFB40:
.LM257:
	.cfi_startproc
.LVL96:
.LM258:
	LD.w	r5,[r0+#1]
	MOV	r4,#2
	ANL	r5,r5,r4
	JZ	.L132
	ADD	r3,r0,#4
.L134:
.LM259:
// inline asm begin
	// 1089 "../Peripherals/src/kf32f_basic_i2c.c" 1
	CLR [r3], #1
	// 0 "" 2
.LM260:
// inline asm end
	LD.w	r5,[r0+#1]
	ANL	r5,r5,r4
	JNZ	.L134
.L132:
.LM261:
	JMP	lr
	.cfi_endproc
.LFE40:
	.size	I2C_Clear_Stop_Flag, .-I2C_Clear_Stop_Flag
	.section .text$I2C_Get_Address_Match_Flag
	.type	.text$I2C_Get_Address_Match_Flag$scode_local_41, @function
	.text$I2C_Get_Address_Match_Flag$scode_local_41:
	.align	1
	.export	I2C_Get_Address_Match_Flag
	.type	I2C_Get_Address_Match_Flag, @function
I2C_Get_Address_Match_Flag:
.LFB41:
.LM262:
	.cfi_startproc
.LVL97:
.LM263:
	LD.w	r0,[r0+#1]
.LVL98:
	LSR	r0,#2
.LM264:
	MOV	r5,#1
	ANL	r0,r0,r5
	JMP	lr
	.cfi_endproc
.LFE41:
	.size	I2C_Get_Address_Match_Flag, .-I2C_Get_Address_Match_Flag
	.section .text$I2C_Get_HighAddress_Flag
	.type	.text$I2C_Get_HighAddress_Flag$scode_local_42, @function
	.text$I2C_Get_HighAddress_Flag$scode_local_42:
	.align	1
	.export	I2C_Get_HighAddress_Flag
	.type	I2C_Get_HighAddress_Flag, @function
I2C_Get_HighAddress_Flag:
.LFB42:
.LM265:
	.cfi_startproc
.LVL99:
.LM266:
	LD.w	r0,[r0+#1]
.LVL100:
	LSR	r0,#3
.LM267:
	MOV	r5,#1
	ANL	r0,r0,r5
	JMP	lr
	.cfi_endproc
.LFE42:
	.size	I2C_Get_HighAddress_Flag, .-I2C_Get_HighAddress_Flag
	.section .text$I2C_Get_Data_Flag
	.type	.text$I2C_Get_Data_Flag$scode_local_43, @function
	.text$I2C_Get_Data_Flag$scode_local_43:
	.align	1
	.export	I2C_Get_Data_Flag
	.type	I2C_Get_Data_Flag, @function
I2C_Get_Data_Flag:
.LFB43:
.LM268:
	.cfi_startproc
.LVL101:
.LM269:
	LD.w	r0,[r0+#1]
.LVL102:
	LSR	r0,#4
.LM270:
	MOV	r5,#1
	ANL	r0,r0,r5
	JMP	lr
	.cfi_endproc
.LFE43:
	.size	I2C_Get_Data_Flag, .-I2C_Get_Data_Flag
	.section .text$I2C_Get_Ack_Fail_Flag
	.type	.text$I2C_Get_Ack_Fail_Flag$scode_local_44, @function
	.text$I2C_Get_Ack_Fail_Flag$scode_local_44:
	.align	1
	.export	I2C_Get_Ack_Fail_Flag
	.type	I2C_Get_Ack_Fail_Flag, @function
I2C_Get_Ack_Fail_Flag:
.LFB44:
.LM271:
	.cfi_startproc
.LVL103:
.LM272:
	LD.w	r0,[r0+#1]
.LVL104:
	LSR	r0,#5
.LM273:
	MOV	r5,#1
	ANL	r0,r0,r5
	JMP	lr
	.cfi_endproc
.LFE44:
	.size	I2C_Get_Ack_Fail_Flag, .-I2C_Get_Ack_Fail_Flag
	.section .text$I2C_Clear_Ack_Fail_Flag
	.type	.text$I2C_Clear_Ack_Fail_Flag$scode_local_45, @function
	.text$I2C_Clear_Ack_Fail_Flag$scode_local_45:
	.align	1
	.export	I2C_Clear_Ack_Fail_Flag
	.type	I2C_Clear_Ack_Fail_Flag, @function
I2C_Clear_Ack_Fail_Flag:
.LFB45:
.LM274:
	.cfi_startproc
.LVL105:
.LM275:
	LD.w	r5,[r0+#1]
	MOV	r4,#32
	ANL	r5,r5,r4
	JZ	.L143
	ADD	r3,r0,#4
.L145:
.LM276:
// inline asm begin
	// 1208 "../Peripherals/src/kf32f_basic_i2c.c" 1
	CLR [r3], #5
	// 0 "" 2
.LM277:
// inline asm end
	LD.w	r5,[r0+#1]
	ANL	r5,r5,r4
	JNZ	.L145
.L143:
.LM278:
	JMP	lr
	.cfi_endproc
.LFE45:
	.size	I2C_Clear_Ack_Fail_Flag, .-I2C_Clear_Ack_Fail_Flag
	.section .text$I2C_Get_Arbitration_Lost_Flag
	.type	.text$I2C_Get_Arbitration_Lost_Flag$scode_local_46, @function
	.text$I2C_Get_Arbitration_Lost_Flag$scode_local_46:
	.align	1
	.export	I2C_Get_Arbitration_Lost_Flag
	.type	I2C_Get_Arbitration_Lost_Flag, @function
I2C_Get_Arbitration_Lost_Flag:
.LFB46:
.LM279:
	.cfi_startproc
.LVL106:
.LM280:
	LD.w	r0,[r0+#1]
.LVL107:
	LSR	r0,#6
.LM281:
	MOV	r5,#1
	ANL	r0,r0,r5
	JMP	lr
	.cfi_endproc
.LFE46:
	.size	I2C_Get_Arbitration_Lost_Flag, .-I2C_Get_Arbitration_Lost_Flag
	.section .text$I2C_Clear_Arbitration_Lost_Flag
	.type	.text$I2C_Clear_Arbitration_Lost_Flag$scode_local_47, @function
	.text$I2C_Clear_Arbitration_Lost_Flag$scode_local_47:
	.align	1
	.export	I2C_Clear_Arbitration_Lost_Flag
	.type	I2C_Clear_Arbitration_Lost_Flag, @function
I2C_Clear_Arbitration_Lost_Flag:
.LFB47:
.LM282:
	.cfi_startproc
.LVL108:
.LM283:
	LD.w	r5,[r0+#1]
	MOV	r4,#64
	ANL	r5,r5,r4
	JZ	.L151
	ADD	r3,r0,#4
.L153:
.LM284:
// inline asm begin
	// 1251 "../Peripherals/src/kf32f_basic_i2c.c" 1
	CLR [r3], #6
	// 0 "" 2
.LM285:
// inline asm end
	LD.w	r5,[r0+#1]
	ANL	r5,r5,r4
	JNZ	.L153
.L151:
.LM286:
	JMP	lr
	.cfi_endproc
.LFE47:
	.size	I2C_Clear_Arbitration_Lost_Flag, .-I2C_Clear_Arbitration_Lost_Flag
	.section .text$I2C_Get_Write_Read_Flag
	.type	.text$I2C_Get_Write_Read_Flag$scode_local_48, @function
	.text$I2C_Get_Write_Read_Flag$scode_local_48:
	.align	1
	.export	I2C_Get_Write_Read_Flag
	.type	I2C_Get_Write_Read_Flag, @function
I2C_Get_Write_Read_Flag:
.LFB48:
.LM287:
	.cfi_startproc
.LVL109:
.LM288:
	LD.w	r0,[r0+#1]
.LVL110:
	LSR	r0,#7
.LM289:
	MOV	r5,#1
	ANL	r0,r0,r5
	JMP	lr
	.cfi_endproc
.LFE48:
	.size	I2C_Get_Write_Read_Flag, .-I2C_Get_Write_Read_Flag
	.section .text$I2C_Get_SMBus_Alert_Flag
	.type	.text$I2C_Get_SMBus_Alert_Flag$scode_local_49, @function
	.text$I2C_Get_SMBus_Alert_Flag$scode_local_49:
	.align	1
	.export	I2C_Get_SMBus_Alert_Flag
	.type	I2C_Get_SMBus_Alert_Flag, @function
I2C_Get_SMBus_Alert_Flag:
.LFB49:
.LM290:
	.cfi_startproc
.LVL111:
.LM291:
	LD.w	r0,[r0+#1]
.LVL112:
	LSR	r0,#8
.LM292:
	MOV	r5,#1
	ANL	r0,r0,r5
	JMP	lr
	.cfi_endproc
.LFE49:
	.size	I2C_Get_SMBus_Alert_Flag, .-I2C_Get_SMBus_Alert_Flag
	.section .text$I2C_Clear_SMBus_Alert_Flag
	.type	.text$I2C_Clear_SMBus_Alert_Flag$scode_local_50, @function
	.text$I2C_Clear_SMBus_Alert_Flag$scode_local_50:
	.align	1
	.export	I2C_Clear_SMBus_Alert_Flag
	.type	I2C_Clear_SMBus_Alert_Flag, @function
I2C_Clear_SMBus_Alert_Flag:
.LFB50:
.LM293:
	.cfi_startproc
.LVL113:
.LM294:
	LD.w	r5,[r0+#1]
	MOV	r4,#255
	ADD	r4,r4,#1
	ANL	r5,r5,r4
	JZ	.L160
	ADD	r3,r0,#4
.L162:
.LM295:
// inline asm begin
	// 1319 "../Peripherals/src/kf32f_basic_i2c.c" 1
	CLR [r3], #8
	// 0 "" 2
.LM296:
// inline asm end
	LD.w	r5,[r0+#1]
	ANL	r5,r5,r4
	JNZ	.L162
.L160:
.LM297:
	JMP	lr
	.cfi_endproc
.LFE50:
	.size	I2C_Clear_SMBus_Alert_Flag, .-I2C_Clear_SMBus_Alert_Flag
	.section .text$I2C_Get_SMBus_Host_Header_Flag
	.type	.text$I2C_Get_SMBus_Host_Header_Flag$scode_local_51, @function
	.text$I2C_Get_SMBus_Host_Header_Flag$scode_local_51:
	.align	1
	.export	I2C_Get_SMBus_Host_Header_Flag
	.type	I2C_Get_SMBus_Host_Header_Flag, @function
I2C_Get_SMBus_Host_Header_Flag:
.LFB51:
.LM298:
	.cfi_startproc
.LVL114:
.LM299:
	LD.w	r0,[r0+#1]
.LVL115:
	LSR	r0,#9
.LM300:
	MOV	r5,#1
	ANL	r0,r0,r5
	JMP	lr
	.cfi_endproc
.LFE51:
	.size	I2C_Get_SMBus_Host_Header_Flag, .-I2C_Get_SMBus_Host_Header_Flag
	.section .text$I2C_Clear_SMBus_Host_Header_Flag
	.type	.text$I2C_Clear_SMBus_Host_Header_Flag$scode_local_52, @function
	.text$I2C_Clear_SMBus_Host_Header_Flag$scode_local_52:
	.align	1
	.export	I2C_Clear_SMBus_Host_Header_Flag
	.type	I2C_Clear_SMBus_Host_Header_Flag, @function
I2C_Clear_SMBus_Host_Header_Flag:
.LFB52:
.LM301:
	.cfi_startproc
.LVL116:
.LM302:
	LD.w	r5,[r0+#1]
	MOV	r4,#1
	LSL	r4,#9
	ANL	r5,r5,r4
	JZ	.L168
	ADD	r3,r0,#4
.L170:
.LM303:
// inline asm begin
	// 1362 "../Peripherals/src/kf32f_basic_i2c.c" 1
	CLR [r3], #9
	// 0 "" 2
.LM304:
// inline asm end
	LD.w	r5,[r0+#1]
	ANL	r5,r5,r4
	JNZ	.L170
.L168:
.LM305:
	JMP	lr
	.cfi_endproc
.LFE52:
	.size	I2C_Clear_SMBus_Host_Header_Flag, .-I2C_Clear_SMBus_Host_Header_Flag
	.section .text$I2C_Get_SMBus_Device_Default_Flag
	.type	.text$I2C_Get_SMBus_Device_Default_Flag$scode_local_53, @function
	.text$I2C_Get_SMBus_Device_Default_Flag$scode_local_53:
	.align	1
	.export	I2C_Get_SMBus_Device_Default_Flag
	.type	I2C_Get_SMBus_Device_Default_Flag, @function
I2C_Get_SMBus_Device_Default_Flag:
.LFB53:
.LM306:
	.cfi_startproc
.LVL117:
.LM307:
	LD.w	r0,[r0+#1]
.LVL118:
	LSR	r0,#10
.LM308:
	MOV	r5,#1
	ANL	r0,r0,r5
	JMP	lr
	.cfi_endproc
.LFE53:
	.size	I2C_Get_SMBus_Device_Default_Flag, .-I2C_Get_SMBus_Device_Default_Flag
	.section .text$I2C_Clear_SMBus_Device_Default_Flag
	.type	.text$I2C_Clear_SMBus_Device_Default_Flag$scode_local_54, @function
	.text$I2C_Clear_SMBus_Device_Default_Flag$scode_local_54:
	.align	1
	.export	I2C_Clear_SMBus_Device_Default_Flag
	.type	I2C_Clear_SMBus_Device_Default_Flag, @function
I2C_Clear_SMBus_Device_Default_Flag:
.LFB54:
.LM309:
	.cfi_startproc
.LVL119:
.LM310:
	LD.w	r5,[r0+#1]
	MOV	r4,#1
	LSL	r4,#10
	ANL	r5,r5,r4
	JZ	.L176
	ADD	r3,r0,#4
.L178:
.LM311:
// inline asm begin
	// 1405 "../Peripherals/src/kf32f_basic_i2c.c" 1
	CLR [r3], #10
	// 0 "" 2
.LM312:
// inline asm end
	LD.w	r5,[r0+#1]
	ANL	r5,r5,r4
	JNZ	.L178
.L176:
.LM313:
	JMP	lr
	.cfi_endproc
.LFE54:
	.size	I2C_Clear_SMBus_Device_Default_Flag, .-I2C_Clear_SMBus_Device_Default_Flag
	.section .text$I2C_Get_INTERRUPT_Flag
	.type	.text$I2C_Get_INTERRUPT_Flag$scode_local_55, @function
	.text$I2C_Get_INTERRUPT_Flag$scode_local_55:
	.align	1
	.export	I2C_Get_INTERRUPT_Flag
	.type	I2C_Get_INTERRUPT_Flag, @function
I2C_Get_INTERRUPT_Flag:
.LFB55:
.LM314:
	.cfi_startproc
.LVL120:
.LM315:
	LD.w	r0,[r0+#1]
.LVL121:
	LSR	r0,#11
.LM316:
	MOV	r5,#1
	ANL	r0,r0,r5
	JMP	lr
	.cfi_endproc
.LFE55:
	.size	I2C_Get_INTERRUPT_Flag, .-I2C_Get_INTERRUPT_Flag
	.section .text$I2C_Clear_INTERRUPT_Flag
	.type	.text$I2C_Clear_INTERRUPT_Flag$scode_local_56, @function
	.text$I2C_Clear_INTERRUPT_Flag$scode_local_56:
	.align	1
	.export	I2C_Clear_INTERRUPT_Flag
	.type	I2C_Clear_INTERRUPT_Flag, @function
I2C_Clear_INTERRUPT_Flag:
.LFB56:
.LM317:
	.cfi_startproc
.LVL122:
.LM318:
	LD.w	r5,[r0+#1]
	MOV	r4,#1
	LSL	r4,#11
	ANL	r5,r5,r4
	JZ	.L184
	ADD	r3,r0,#4
.L186:
.LM319:
// inline asm begin
	// 1448 "../Peripherals/src/kf32f_basic_i2c.c" 1
	CLR [r3], #11
	// 0 "" 2
.LM320:
// inline asm end
	LD.w	r5,[r0+#1]
	ANL	r5,r5,r4
	JNZ	.L186
.L184:
.LM321:
	JMP	lr
	.cfi_endproc
.LFE56:
	.size	I2C_Clear_INTERRUPT_Flag, .-I2C_Clear_INTERRUPT_Flag
	.section .text$I2C_Get_Receive_Buff_Flag
	.type	.text$I2C_Get_Receive_Buff_Flag$scode_local_57, @function
	.text$I2C_Get_Receive_Buff_Flag$scode_local_57:
	.align	1
	.export	I2C_Get_Receive_Buff_Flag
	.type	I2C_Get_Receive_Buff_Flag, @function
I2C_Get_Receive_Buff_Flag:
.LFB57:
.LM322:
	.cfi_startproc
.LVL123:
.LM323:
	LD.w	r0,[r0+#1]
.LVL124:
	LSR	r0,#12
.LM324:
	MOV	r5,#1
	ANL	r0,r0,r5
	JMP	lr
	.cfi_endproc
.LFE57:
	.size	I2C_Get_Receive_Buff_Flag, .-I2C_Get_Receive_Buff_Flag
	.section .text$I2C_Get_Transmit_Buff_Flag
	.type	.text$I2C_Get_Transmit_Buff_Flag$scode_local_58, @function
	.text$I2C_Get_Transmit_Buff_Flag$scode_local_58:
	.align	1
	.export	I2C_Get_Transmit_Buff_Flag
	.type	I2C_Get_Transmit_Buff_Flag, @function
I2C_Get_Transmit_Buff_Flag:
.LFB58:
.LM325:
	.cfi_startproc
.LVL125:
.LM326:
	LD.w	r0,[r0+#1]
.LVL126:
	LSR	r0,#13
.LM327:
	MOV	r5,#1
	ANL	r0,r0,r5
	JMP	lr
	.cfi_endproc
.LFE58:
	.size	I2C_Get_Transmit_Buff_Flag, .-I2C_Get_Transmit_Buff_Flag
	.section .text$I2C_Get_Receive_DMA_Flag
	.type	.text$I2C_Get_Receive_DMA_Flag$scode_local_59, @function
	.text$I2C_Get_Receive_DMA_Flag$scode_local_59:
	.align	1
	.export	I2C_Get_Receive_DMA_Flag
	.type	I2C_Get_Receive_DMA_Flag, @function
I2C_Get_Receive_DMA_Flag:
.LFB59:
.LM328:
	.cfi_startproc
.LVL127:
.LM329:
	LD.w	r0,[r0+#1]
.LVL128:
	LSR	r0,#16
.LM330:
	MOV	r5,#1
	ANL	r0,r0,r5
	JMP	lr
	.cfi_endproc
.LFE59:
	.size	I2C_Get_Receive_DMA_Flag, .-I2C_Get_Receive_DMA_Flag
	.section .text$I2C_Get_Transmit_DMA_Flag
	.type	.text$I2C_Get_Transmit_DMA_Flag$scode_local_60, @function
	.text$I2C_Get_Transmit_DMA_Flag$scode_local_60:
	.align	1
	.export	I2C_Get_Transmit_DMA_Flag
	.type	I2C_Get_Transmit_DMA_Flag, @function
I2C_Get_Transmit_DMA_Flag:
.LFB60:
.LM331:
	.cfi_startproc
.LVL129:
.LM332:
	LD.w	r0,[r0+#1]
.LVL130:
	LSR	r0,#17
.LM333:
	MOV	r5,#1
	ANL	r0,r0,r5
	JMP	lr
	.cfi_endproc
.LFE60:
	.size	I2C_Get_Transmit_DMA_Flag, .-I2C_Get_Transmit_DMA_Flag
	.section .text$I2C_Get_Bus_Error_Flag
	.type	.text$I2C_Get_Bus_Error_Flag$scode_local_61, @function
	.text$I2C_Get_Bus_Error_Flag$scode_local_61:
	.align	1
	.export	I2C_Get_Bus_Error_Flag
	.type	I2C_Get_Bus_Error_Flag, @function
I2C_Get_Bus_Error_Flag:
.LFB61:
.LM334:
	.cfi_startproc
.LVL131:
.LM335:
	LD.w	r0,[r0+#1]
.LVL132:
	LSR	r0,#18
.LM336:
	MOV	r5,#1
	ANL	r0,r0,r5
	JMP	lr
	.cfi_endproc
.LFE61:
	.size	I2C_Get_Bus_Error_Flag, .-I2C_Get_Bus_Error_Flag
	.text	
.Letext0: