	.file	"kf32f_basic_flash.c"
	.text	
.Ltext0:
	.cfi_sections	.debug_frame
	.section .indata$CHECK_RESTRICTION_RAM
	.type	.indata$CHECK_RESTRICTION_RAM$scode_local_1, @function
	.indata$CHECK_RESTRICTION_RAM$scode_local_1:
	.align	1
	.export	CHECK_RESTRICTION_RAM
	.type	CHECK_RESTRICTION_RAM, @function
CHECK_RESTRICTION_RAM:
.LFB1:
.LM1:
	.cfi_startproc
.LVL0:
.LM2:
	CMP	r0,#0
	JNZ	.L5
.L4:
	JMP	.L4
.L5:
.LM3:
	JMP	lr
	.cfi_endproc
.LFE1:
	.size	CHECK_RESTRICTION_RAM, .-CHECK_RESTRICTION_RAM
	.section .indata$FLASH_Get_NonVolatile_Memory_Unlock_Status_RAM
	.type	.indata$FLASH_Get_NonVolatile_Memory_Unlock_Status_RAM$scode_local_2, @function
	.indata$FLASH_Get_NonVolatile_Memory_Unlock_Status_RAM$scode_local_2:
	.align	1
	.export	FLASH_Get_NonVolatile_Memory_Unlock_Status_RAM
	.type	FLASH_Get_NonVolatile_Memory_Unlock_Status_RAM, @function
FLASH_Get_NonVolatile_Memory_Unlock_Status_RAM:
.LFB3:
.LM4:
	.cfi_startproc
.LM5:
	LD	r5,#1075839232
	LD.w	r0,[r5]
.LM6:
	MOV	r5,#1
	ANL	r0,r0,r5
	JMP	lr
	.cfi_endproc
.LFE3:
	.size	FLASH_Get_NonVolatile_Memory_Unlock_Status_RAM, .-FLASH_Get_NonVolatile_Memory_Unlock_Status_RAM
	.section .indata$FLASH_Clear_NonVolatile_Memory_Unlock_Status_RAM
	.type	.indata$FLASH_Clear_NonVolatile_Memory_Unlock_Status_RAM$scode_local_3, @function
	.indata$FLASH_Clear_NonVolatile_Memory_Unlock_Status_RAM$scode_local_3:
	.align	1
	.export	FLASH_Clear_NonVolatile_Memory_Unlock_Status_RAM
	.type	FLASH_Clear_NonVolatile_Memory_Unlock_Status_RAM, @function
FLASH_Clear_NonVolatile_Memory_Unlock_Status_RAM:
.LFB4:
.LM7:
	.cfi_startproc
.LVL1:
.LM8:
	LD	r5,#1075839232
	LD.w	r3,[r5]
.LVL2:
.LBB272:
.LBB273:
.LM9:
	LD	r4,#65534
	ANL	r4,r3,r4
	LD	r3,#1353646081
.LVL3:
	ORL	r4,r4,r3
.LBE273:
.LBE272:
.LM10:
	ST.w	[r5],r4
.LM11:
	JMP	lr
	.cfi_endproc
.LFE4:
	.size	FLASH_Clear_NonVolatile_Memory_Unlock_Status_RAM, .-FLASH_Clear_NonVolatile_Memory_Unlock_Status_RAM
	.section .text$FLASH_Clear_NonVolatile_Memory_Unlock_Status
	.type	.text$FLASH_Clear_NonVolatile_Memory_Unlock_Status$scode_local_4, @function
	.text$FLASH_Clear_NonVolatile_Memory_Unlock_Status$scode_local_4:
	.align	1
	.export	FLASH_Clear_NonVolatile_Memory_Unlock_Status
	.type	FLASH_Clear_NonVolatile_Memory_Unlock_Status, @function
FLASH_Clear_NonVolatile_Memory_Unlock_Status:
.LFB5:
.LM12:
	.cfi_startproc
.LVL4:
.LM13:
	LD	r5,#1075839232
	LD.w	r3,[r5]
.LVL5:
.LBB274:
.LBB275:
.LM14:
	LD	r4,#65534
	ANL	r4,r3,r4
	LD	r3,#1353646081
.LVL6:
	ORL	r4,r4,r3
.LBE275:
.LBE274:
.LM15:
	ST.w	[r5],r4
.LM16:
	JMP	lr
	.cfi_endproc
.LFE5:
	.size	FLASH_Clear_NonVolatile_Memory_Unlock_Status, .-FLASH_Clear_NonVolatile_Memory_Unlock_Status
	.section .indata$FLASH_Unlock_ISP_RAM
	.type	.indata$FLASH_Unlock_ISP_RAM$scode_local_5, @function
	.indata$FLASH_Unlock_ISP_RAM$scode_local_5:
	.align	1
	.export	FLASH_Unlock_ISP_RAM
	.type	FLASH_Unlock_ISP_RAM, @function
FLASH_Unlock_ISP_RAM:
.LFB6:
.LM17:
	.cfi_startproc
.LM18:
	LD	r5,#1075839232
	LD	r4,#-2023406815
	ST.w	[r5+#10],r4
.LM19:
	LD	r4,#84148994
	ST.w	[r5+#10],r4
.LM20:
	JMP	lr
	.cfi_endproc
.LFE6:
	.size	FLASH_Unlock_ISP_RAM, .-FLASH_Unlock_ISP_RAM
	.section .text$FLASH_Unlock_ISP
	.type	.text$FLASH_Unlock_ISP$scode_local_6, @function
	.text$FLASH_Unlock_ISP$scode_local_6:
	.align	1
	.export	FLASH_Unlock_ISP
	.type	FLASH_Unlock_ISP, @function
FLASH_Unlock_ISP:
.LFB7:
.LM21:
	.cfi_startproc
.LM22:
	LD	r5,#1075839232
	LD	r4,#-2023406815
	ST.w	[r5+#10],r4
.LM23:
	LD	r4,#84148994
	ST.w	[r5+#10],r4
.LM24:
	JMP	lr
	.cfi_endproc
.LFE7:
	.size	FLASH_Unlock_ISP, .-FLASH_Unlock_ISP
	.section .indata$FLASH_Get_Flash_Unlock_Status_RAM
	.type	.indata$FLASH_Get_Flash_Unlock_Status_RAM$scode_local_7, @function
	.indata$FLASH_Get_Flash_Unlock_Status_RAM$scode_local_7:
	.align	1
	.export	FLASH_Get_Flash_Unlock_Status_RAM
	.type	FLASH_Get_Flash_Unlock_Status_RAM, @function
FLASH_Get_Flash_Unlock_Status_RAM:
.LFB8:
.LM25:
	.cfi_startproc
.LM26:
	LD	r5,#1075839232
	LD.w	r0,[r5]
	LSR	r0,#1
.LM27:
	MOV	r5,#1
	ANL	r0,r0,r5
	JMP	lr
	.cfi_endproc
.LFE8:
	.size	FLASH_Get_Flash_Unlock_Status_RAM, .-FLASH_Get_Flash_Unlock_Status_RAM
	.section .indata$FLASH_Clear_Flash_Unlock_Status_RAM
	.type	.indata$FLASH_Clear_Flash_Unlock_Status_RAM$scode_local_8, @function
	.indata$FLASH_Clear_Flash_Unlock_Status_RAM$scode_local_8:
	.align	1
	.export	FLASH_Clear_Flash_Unlock_Status_RAM
	.type	FLASH_Clear_Flash_Unlock_Status_RAM, @function
FLASH_Clear_Flash_Unlock_Status_RAM:
.LFB9:
.LM28:
	.cfi_startproc
.LVL7:
.LM29:
	LD	r5,#1075839232
	LD.w	r3,[r5]
.LVL8:
.LBB276:
.LBB277:
.LM30:
	LD	r4,#65533
	ANL	r4,r3,r4
	LD	r3,#1353646082
.LVL9:
	ORL	r4,r4,r3
.LBE277:
.LBE276:
.LM31:
	ST.w	[r5],r4
.LM32:
	JMP	lr
	.cfi_endproc
.LFE9:
	.size	FLASH_Clear_Flash_Unlock_Status_RAM, .-FLASH_Clear_Flash_Unlock_Status_RAM
	.section .text$FLASH_Clear_Flash_Unlock_Status
	.type	.text$FLASH_Clear_Flash_Unlock_Status$scode_local_9, @function
	.text$FLASH_Clear_Flash_Unlock_Status$scode_local_9:
	.align	1
	.export	FLASH_Clear_Flash_Unlock_Status
	.type	FLASH_Clear_Flash_Unlock_Status, @function
FLASH_Clear_Flash_Unlock_Status:
.LFB10:
.LM33:
	.cfi_startproc
.LVL10:
.LM34:
	LD	r5,#1075839232
	LD.w	r3,[r5]
.LVL11:
.LBB278:
.LBB279:
.LM35:
	LD	r4,#65533
	ANL	r4,r3,r4
	LD	r3,#1353646082
.LVL12:
	ORL	r4,r4,r3
.LBE279:
.LBE278:
.LM36:
	ST.w	[r5],r4
.LM37:
	JMP	lr
	.cfi_endproc
.LFE10:
	.size	FLASH_Clear_Flash_Unlock_Status, .-FLASH_Clear_Flash_Unlock_Status
	.section .indata$FLASH_Unlock_Code_RAM
	.type	.indata$FLASH_Unlock_Code_RAM$scode_local_10, @function
	.indata$FLASH_Unlock_Code_RAM$scode_local_10:
	.align	1
	.export	FLASH_Unlock_Code_RAM
	.type	FLASH_Unlock_Code_RAM, @function
FLASH_Unlock_Code_RAM:
.LFB11:
.LM38:
	.cfi_startproc
.LM39:
	LD	r5,#1075839232
	LD	r4,#2023406814
	ST.w	[r5+#11],r4
.LM40:
	LD	r4,#370480147
	ST.w	[r5+#11],r4
.LM41:
	JMP	lr
	.cfi_endproc
.LFE11:
	.size	FLASH_Unlock_Code_RAM, .-FLASH_Unlock_Code_RAM
	.section .text$FLASH_Unlock_Code
	.type	.text$FLASH_Unlock_Code$scode_local_11, @function
	.text$FLASH_Unlock_Code$scode_local_11:
	.align	1
	.export	FLASH_Unlock_Code
	.type	FLASH_Unlock_Code, @function
FLASH_Unlock_Code:
.LFB12:
.LM42:
	.cfi_startproc
.LM43:
	LD	r5,#1075839232
	LD	r4,#2023406814
	ST.w	[r5+#11],r4
.LM44:
	LD	r4,#370480147
	ST.w	[r5+#11],r4
.LM45:
	JMP	lr
	.cfi_endproc
.LFE12:
	.size	FLASH_Unlock_Code, .-FLASH_Unlock_Code
	.section .indata$FLASH_Get_Config_Unlock_Status_RAM
	.type	.indata$FLASH_Get_Config_Unlock_Status_RAM$scode_local_12, @function
	.indata$FLASH_Get_Config_Unlock_Status_RAM$scode_local_12:
	.align	1
	.export	FLASH_Get_Config_Unlock_Status_RAM
	.type	FLASH_Get_Config_Unlock_Status_RAM, @function
FLASH_Get_Config_Unlock_Status_RAM:
.LFB13:
.LM46:
	.cfi_startproc
.LM47:
	LD	r5,#1075839232
	LD.w	r0,[r5]
	LSR	r0,#2
.LM48:
	MOV	r5,#1
	ANL	r0,r0,r5
	JMP	lr
	.cfi_endproc
.LFE13:
	.size	FLASH_Get_Config_Unlock_Status_RAM, .-FLASH_Get_Config_Unlock_Status_RAM
	.section .indata$FLASH_Clear_Config_Unlock_Status_RAM
	.type	.indata$FLASH_Clear_Config_Unlock_Status_RAM$scode_local_13, @function
	.indata$FLASH_Clear_Config_Unlock_Status_RAM$scode_local_13:
	.align	1
	.export	FLASH_Clear_Config_Unlock_Status_RAM
	.type	FLASH_Clear_Config_Unlock_Status_RAM, @function
FLASH_Clear_Config_Unlock_Status_RAM:
.LFB14:
.LM49:
	.cfi_startproc
.LVL13:
.LM50:
	LD	r5,#1075839232
	LD.w	r3,[r5]
.LVL14:
.LBB280:
.LBB281:
.LM51:
	LD	r4,#65531
	ANL	r4,r3,r4
	LD	r3,#1353646084
.LVL15:
	ORL	r4,r4,r3
.LBE281:
.LBE280:
.LM52:
	ST.w	[r5],r4
.LM53:
	JMP	lr
	.cfi_endproc
.LFE14:
	.size	FLASH_Clear_Config_Unlock_Status_RAM, .-FLASH_Clear_Config_Unlock_Status_RAM
	.section .text$FLASH_Clear_Config_Unlock_Status
	.type	.text$FLASH_Clear_Config_Unlock_Status$scode_local_14, @function
	.text$FLASH_Clear_Config_Unlock_Status$scode_local_14:
	.align	1
	.export	FLASH_Clear_Config_Unlock_Status
	.type	FLASH_Clear_Config_Unlock_Status, @function
FLASH_Clear_Config_Unlock_Status:
.LFB15:
.LM54:
	.cfi_startproc
.LVL16:
.LM55:
	LD	r5,#1075839232
	LD.w	r3,[r5]
.LVL17:
.LBB282:
.LBB283:
.LM56:
	LD	r4,#65531
	ANL	r4,r3,r4
	LD	r3,#1353646084
.LVL18:
	ORL	r4,r4,r3
.LBE283:
.LBE282:
.LM57:
	ST.w	[r5],r4
.LM58:
	JMP	lr
	.cfi_endproc
.LFE15:
	.size	FLASH_Clear_Config_Unlock_Status, .-FLASH_Clear_Config_Unlock_Status
	.section .indata$FLASH_Unlock_User_Config_RAM
	.type	.indata$FLASH_Unlock_User_Config_RAM$scode_local_15, @function
	.indata$FLASH_Unlock_User_Config_RAM$scode_local_15:
	.align	1
	.export	FLASH_Unlock_User_Config_RAM
	.type	FLASH_Unlock_User_Config_RAM, @function
FLASH_Unlock_User_Config_RAM:
.LFB16:
.LM59:
	.cfi_startproc
.LM60:
	LD	r5,#1075839232
	LD	r4,#-2019933218
	ST.w	[r5+#12],r4
.LM61:
	LD	r4,#656811300
	ST.w	[r5+#12],r4
.LM62:
	JMP	lr
	.cfi_endproc
.LFE16:
	.size	FLASH_Unlock_User_Config_RAM, .-FLASH_Unlock_User_Config_RAM
	.section .text$FLASH_Unlock_User_Config
	.type	.text$FLASH_Unlock_User_Config$scode_local_16, @function
	.text$FLASH_Unlock_User_Config$scode_local_16:
	.align	1
	.export	FLASH_Unlock_User_Config
	.type	FLASH_Unlock_User_Config, @function
FLASH_Unlock_User_Config:
.LFB17:
.LM63:
	.cfi_startproc
.LM64:
	LD	r5,#1075839232
	LD	r4,#-2019933218
	ST.w	[r5+#12],r4
.LM65:
	LD	r4,#656811300
	ST.w	[r5+#12],r4
.LM66:
	JMP	lr
	.cfi_endproc
.LFE17:
	.size	FLASH_Unlock_User_Config, .-FLASH_Unlock_User_Config
	.section .indata$FLASH_Data_Write_Enable_RAM
	.type	.indata$FLASH_Data_Write_Enable_RAM$scode_local_17, @function
	.indata$FLASH_Data_Write_Enable_RAM$scode_local_17:
	.align	1
	.export	FLASH_Data_Write_Enable_RAM
	.type	FLASH_Data_Write_Enable_RAM, @function
FLASH_Data_Write_Enable_RAM:
.LFB18:
.LM67:
	.cfi_startproc
.LVL19:
.LBB284:
.LBB285:
.LM68:
	CMP	r0,#1
	JLS	.L27
.L26:
	JMP	.L26
.L27:
.LBE285:
.LBE284:
.LM69:
	LD	r5,#1075839232
.LM70:
	CMP	r0,#0
	JNZ	.L28
.LM71:
// inline asm begin
	// 314 "../Peripherals/src/kf32f_basic_flash.c" 1
	CLR [r5], #3
	// 0 "" 2
.LM72:
// inline asm end
	JMP	lr
.L28:
.LM73:
// inline asm begin
	// 309 "../Peripherals/src/kf32f_basic_flash.c" 1
	SET [r5], #3
	// 0 "" 2
.LM74:
// inline asm end
	JMP	lr
	.cfi_endproc
.LFE18:
	.size	FLASH_Data_Write_Enable_RAM, .-FLASH_Data_Write_Enable_RAM
	.section .indata$FLASH_Zone_Config_RAM
	.type	.indata$FLASH_Zone_Config_RAM$scode_local_18, @function
	.indata$FLASH_Zone_Config_RAM$scode_local_18:
	.align	1
	.export	FLASH_Zone_Config_RAM
	.type	FLASH_Zone_Config_RAM, @function
FLASH_Zone_Config_RAM:
.LFB19:
.LM75:
	.cfi_startproc
.LVL20:
.LM76:
	CMP	r0,#0
	JZ	.L30
.LVL21:
.LBB286:
.LBB287:
.LM77:
	CMP	r0,#16
	JZ	.L34
.L33:
	JMP	.L33
.LVL22:
.L30:
.LBE287:
.LBE286:
.LM78:
	LD	r5,#1075839232
// inline asm begin
	// 340 "../Peripherals/src/kf32f_basic_flash.c" 1
	CLR [r5], #4
	// 0 "" 2
.LM79:
// inline asm end
	JMP	lr
.LVL23:
.L34:
.LM80:
	LD	r5,#1075839232
// inline asm begin
	// 335 "../Peripherals/src/kf32f_basic_flash.c" 1
	SET [r5], #4
	// 0 "" 2
.LM81:
// inline asm end
	JMP	lr
	.cfi_endproc
.LFE19:
	.size	FLASH_Zone_Config_RAM, .-FLASH_Zone_Config_RAM
	.section .text$FLASH_Zone_Config
	.type	.text$FLASH_Zone_Config$scode_local_19, @function
	.text$FLASH_Zone_Config$scode_local_19:
	.align	1
	.export	FLASH_Zone_Config
	.type	FLASH_Zone_Config, @function
FLASH_Zone_Config:
.LFB20:
.LM82:
	.cfi_startproc
.LVL24:
.LM83:
	LD	r5,#1075839232
.LM84:
	CMP	r0,#0
	JNZ	.L38
.LM85:
// inline asm begin
	// 365 "../Peripherals/src/kf32f_basic_flash.c" 1
	CLR [r5], #4
	// 0 "" 2
.LM86:
// inline asm end
	JMP	lr
.L38:
.LM87:
// inline asm begin
	// 360 "../Peripherals/src/kf32f_basic_flash.c" 1
	SET [r5], #4
	// 0 "" 2
.LM88:
// inline asm end
	JMP	lr
	.cfi_endproc
.LFE20:
	.size	FLASH_Zone_Config, .-FLASH_Zone_Config
	.section .indata$FLASH_Standby_Mode_Config_RAM
	.type	.indata$FLASH_Standby_Mode_Config_RAM$scode_local_20, @function
	.indata$FLASH_Standby_Mode_Config_RAM$scode_local_20:
	.align	1
	.export	FLASH_Standby_Mode_Config_RAM
	.type	FLASH_Standby_Mode_Config_RAM, @function
FLASH_Standby_Mode_Config_RAM:
.LFB21:
.LM89:
	.cfi_startproc
.LVL25:
.LM90:
	CMP	r0,#0
	JZ	.L40
.LM91:
	CMP	r0,#32
	JZ	.L40
.LM92:
	CMP	r0,#64
	JZ	.L40
.LVL26:
.LBB288:
.LBB289:
.LM93:
	CMP	r0,#96
	JZ	.L40
.L51:
	JMP	.L51
.LVL27:
.L40:
.LBE289:
.LBE288:
.LM94:
	LD	r5,#1075839232
	LD.w	r3,[r5]
.LVL28:
.LBB290:
.LBB291:
.LM95:
	LD	r4,#65503
	ANL	r4,r3,r4
.LBE291:
.LBE290:
.LM96:
	LD	r3,#1353646080
.LVL29:
	ORL	r4,r4,r3
.LBB293:
.LBB292:
.LM97:
	ORL	r0,r4,r0
.LVL30:
.LBE292:
.LBE293:
.LM98:
	ST.w	[r5],r0
.LM99:
	JMP	lr
	.cfi_endproc
.LFE21:
	.size	FLASH_Standby_Mode_Config_RAM, .-FLASH_Standby_Mode_Config_RAM
	.section .indata$FLASH_Read_Mode_Config_RAM
	.type	.indata$FLASH_Read_Mode_Config_RAM$scode_local_21, @function
	.indata$FLASH_Read_Mode_Config_RAM$scode_local_21:
	.align	1
	.export	FLASH_Read_Mode_Config_RAM
	.type	FLASH_Read_Mode_Config_RAM, @function
FLASH_Read_Mode_Config_RAM:
.LFB22:
.LM100:
	.cfi_startproc
.LVL31:
.LM101:
	CMP	r0,#0
	JZ	.L54
.LVL32:
.LBB294:
.LBB295:
.LM102:
	CMP	r0,#2
	JZ	.L58
.L57:
	JMP	.L57
.LVL33:
.L54:
.LBE295:
.LBE294:
.LM103:
	LD	r5,#1075839236
// inline asm begin
	// 416 "../Peripherals/src/kf32f_basic_flash.c" 1
	CLR [r5], #1
	// 0 "" 2
.LM104:
// inline asm end
	JMP	lr
.LVL34:
.L58:
.LM105:
	LD	r5,#1075839236
// inline asm begin
	// 411 "../Peripherals/src/kf32f_basic_flash.c" 1
	SET [r5], #1
	// 0 "" 2
.LM106:
// inline asm end
	JMP	lr
	.cfi_endproc
.LFE22:
	.size	FLASH_Read_Mode_Config_RAM, .-FLASH_Read_Mode_Config_RAM
	.section .indata$FLASH_Calibration_Updata_Enable_RAM
	.type	.indata$FLASH_Calibration_Updata_Enable_RAM$scode_local_22, @function
	.indata$FLASH_Calibration_Updata_Enable_RAM$scode_local_22:
	.align	1
	.export	FLASH_Calibration_Updata_Enable_RAM
	.type	FLASH_Calibration_Updata_Enable_RAM, @function
FLASH_Calibration_Updata_Enable_RAM:
.LFB23:
.LM107:
	.cfi_startproc
.LVL35:
.LBB296:
.LBB297:
.LM108:
	CMP	r0,#1
	JLS	.L63
.L61:
	JMP	.L61
.L63:
.LVL36:
.LBE297:
.LBE296:
.LM109:
	LD	r5,#1075839232
	LD.w	r3,[r5+#1]
.LVL37:
.LBB298:
.LBB299:
.LM110:
	LD	r4,#65534
	ANL	r4,r3,r4
.LBE299:
.LBE298:
.LM111:
	LD	r3,#-1604386816
.LVL38:
	ORL	r4,r4,r3
.LM112:
	LSL	r0,#2
.LVL39:
.LBB301:
.LBB300:
.LM113:
	ORL	r0,r4,r0
.LBE300:
.LBE301:
.LM114:
	ST.w	[r5+#1],r0
.LM115:
	JMP	lr
	.cfi_endproc
.LFE23:
	.size	FLASH_Calibration_Updata_Enable_RAM, .-FLASH_Calibration_Updata_Enable_RAM
	.section .indata$FLASH_Information_Zone_Wipe_Unlock_Config_RAM
	.type	.indata$FLASH_Information_Zone_Wipe_Unlock_Config_RAM$scode_local_23, @function
	.indata$FLASH_Information_Zone_Wipe_Unlock_Config_RAM$scode_local_23:
	.align	1
	.export	FLASH_Information_Zone_Wipe_Unlock_Config_RAM
	.type	FLASH_Information_Zone_Wipe_Unlock_Config_RAM, @function
FLASH_Information_Zone_Wipe_Unlock_Config_RAM:
.LFB24:
.LM116:
	.cfi_startproc
.LVL40:
.LBB302:
.LBB303:
.LM117:
	CMP	r0,#1
	JLS	.L68
.L66:
	JMP	.L66
.L68:
.LVL41:
.LBE303:
.LBE302:
.LM118:
	LD	r5,#1075839232
	LD.w	r3,[r5+#1]
.LVL42:
.LBB304:
.LBB305:
.LM119:
	LD	r4,#65534
	ANL	r4,r3,r4
.LBE305:
.LBE304:
.LM120:
	LD	r3,#-1604386816
.LVL43:
	ORL	r4,r4,r3
.LM121:
	LSL	r0,#15
.LVL44:
.LBB307:
.LBB306:
.LM122:
	ORL	r0,r4,r0
.LBE306:
.LBE307:
.LM123:
	ST.w	[r5+#1],r0
.LM124:
	JMP	lr
	.cfi_endproc
.LFE24:
	.size	FLASH_Information_Zone_Wipe_Unlock_Config_RAM, .-FLASH_Information_Zone_Wipe_Unlock_Config_RAM
	.section .indata$FLASH_Half_Page_Write_Size_Config_RAM
	.type	.indata$FLASH_Half_Page_Write_Size_Config_RAM$scode_local_24, @function
	.indata$FLASH_Half_Page_Write_Size_Config_RAM$scode_local_24:
	.align	1
	.export	FLASH_Half_Page_Write_Size_Config_RAM
	.type	FLASH_Half_Page_Write_Size_Config_RAM, @function
FLASH_Half_Page_Write_Size_Config_RAM:
.LFB25:
.LM125:
	.cfi_startproc
.LVL45:
.LM126:
	MOV	r4,#6
	LSR	r5,r0,r4
.LBB308:
.LBB309:
.LM127:
	CMP	r5,#0
	JZ	.L73
.L71:
	JMP	.L71
.L73:
.LVL46:
.LBE309:
.LBE308:
.LM128:
	LD	r5,#1075839232
	LD.w	r3,[r5+#2]
.LVL47:
.LM129:
	LSL	r0,#5
.LVL48:
.LBB310:
.LBB311:
.LM130:
	LD	r4,#-2017
	ANL	r4,r3,r4
	ORL	r0,r0,r4
.LVL49:
.LBE311:
.LBE310:
.LM131:
	ST.w	[r5+#2],r0
.LM132:
	JMP	lr
	.cfi_endproc
.LFE25:
	.size	FLASH_Half_Page_Write_Size_Config_RAM, .-FLASH_Half_Page_Write_Size_Config_RAM
	.section .indata$FLASH_Program_Cmd_Config_RAM
	.type	.indata$FLASH_Program_Cmd_Config_RAM$scode_local_25, @function
	.indata$FLASH_Program_Cmd_Config_RAM$scode_local_25:
	.align	1
	.export	FLASH_Program_Cmd_Config_RAM
	.type	FLASH_Program_Cmd_Config_RAM, @function
FLASH_Program_Cmd_Config_RAM:
.LFB26:
.LM133:
	.cfi_startproc
.LVL50:
.LM134:
	CMP	r0,#21
	JZ	.L75
.LM135:
	CMP	r0,#10
	JZ	.L75
.LM136:
	CMP	r0,#27
	JZ	.L75
.LVL51:
.LBB312:
.LBB313:
.LM137:
	CMP	r0,#5
	JZ	.L75
.L86:
	JMP	.L86
.LVL52:
.L75:
.LBE313:
.LBE312:
.LM138:
	LD	r5,#1075839232
	LD.w	r3,[r5+#2]
.LVL53:
.LBB314:
.LBB315:
.LM139:
	MOV	r4,#31
	NOT	r4,r4
	ANL	r4,r3,r4
	ORL	r0,r0,r4
.LVL54:
.LBE315:
.LBE314:
.LM140:
	ST.w	[r5+#2],r0
.LM141:
	JMP	lr
	.cfi_endproc
.LFE26:
	.size	FLASH_Program_Cmd_Config_RAM, .-FLASH_Program_Cmd_Config_RAM
	.section .indata$FLASH_Executive_Cmd_RAM
	.type	.indata$FLASH_Executive_Cmd_RAM$scode_local_26, @function
	.indata$FLASH_Executive_Cmd_RAM$scode_local_26:
	.align	1
	.export	FLASH_Executive_Cmd_RAM
	.type	FLASH_Executive_Cmd_RAM, @function
FLASH_Executive_Cmd_RAM:
.LFB27:
.LM142:
	.cfi_startproc
.LVL55:
.LM143:
	LD	r5,#1075839232
	LD.w	r3,[r5+#3]
.LVL56:
.LBB316:
.LBB317:
.LM144:
	LD	r4,#65534
	ANL	r4,r3,r4
	LD	r3,#1353646081
.LVL57:
	ORL	r4,r4,r3
.LBE317:
.LBE316:
.LM145:
	ST.w	[r5+#3],r4
.LM146:
	JMP	lr
	.cfi_endproc
.LFE27:
	.size	FLASH_Executive_Cmd_RAM, .-FLASH_Executive_Cmd_RAM
	.section .text$FLASH_Executive_Cmd
	.type	.text$FLASH_Executive_Cmd$scode_local_27, @function
	.text$FLASH_Executive_Cmd$scode_local_27:
	.align	1
	.export	FLASH_Executive_Cmd
	.type	FLASH_Executive_Cmd, @function
FLASH_Executive_Cmd:
.LFB28:
.LM147:
	.cfi_startproc
.LVL58:
.LM148:
	LD	r5,#1075839232
	LD.w	r3,[r5+#3]
.LVL59:
.LBB318:
.LBB319:
.LM149:
	LD	r4,#65534
	ANL	r4,r3,r4
	LD	r3,#1353646081
.LVL60:
	ORL	r4,r4,r3
.LBE319:
.LBE318:
.LM150:
	ST.w	[r5+#3],r4
.LM151:
	JMP	lr
	.cfi_endproc
.LFE28:
	.size	FLASH_Executive_Cmd, .-FLASH_Executive_Cmd
	.section .indata$FLASH_NonVolatile_Memory_ECC_Enable_RAM
	.type	.indata$FLASH_NonVolatile_Memory_ECC_Enable_RAM$scode_local_28, @function
	.indata$FLASH_NonVolatile_Memory_ECC_Enable_RAM$scode_local_28:
	.align	1
	.export	FLASH_NonVolatile_Memory_ECC_Enable_RAM
	.type	FLASH_NonVolatile_Memory_ECC_Enable_RAM, @function
FLASH_NonVolatile_Memory_ECC_Enable_RAM:
.LFB29:
.LM152:
	.cfi_startproc
.LVL61:
.LBB320:
.LBB321:
.LM153:
	CMP	r0,#1
	JLS	.L95
.L94:
	JMP	.L94
.L95:
.LBE321:
.LBE320:
.LM154:
	LD	r5,#1075839252
.LM155:
	CMP	r0,#0
	JNZ	.L96
.LM156:
// inline asm begin
	// 559 "../Peripherals/src/kf32f_basic_flash.c" 1
	CLR [r5], #7
	// 0 "" 2
.LM157:
// inline asm end
	JMP	lr
.L96:
.LM158:
// inline asm begin
	// 554 "../Peripherals/src/kf32f_basic_flash.c" 1
	SET [r5], #7
	// 0 "" 2
.LM159:
// inline asm end
	JMP	lr
	.cfi_endproc
.LFE29:
	.size	FLASH_NonVolatile_Memory_ECC_Enable_RAM, .-FLASH_NonVolatile_Memory_ECC_Enable_RAM
	.section .indata$FLASH_Linear_Prefetch_Enable_RAM
	.type	.indata$FLASH_Linear_Prefetch_Enable_RAM$scode_local_29, @function
	.indata$FLASH_Linear_Prefetch_Enable_RAM$scode_local_29:
	.align	1
	.export	FLASH_Linear_Prefetch_Enable_RAM
	.type	FLASH_Linear_Prefetch_Enable_RAM, @function
FLASH_Linear_Prefetch_Enable_RAM:
.LFB30:
.LM160:
	.cfi_startproc
.LVL62:
.LBB322:
.LBB323:
.LM161:
	CMP	r0,#1
	JLS	.L102
.L101:
	JMP	.L101
.L102:
.LBE323:
.LBE322:
.LM162:
	LD	r5,#1075839252
.LM163:
	CMP	r0,#0
	JNZ	.L103
.LM164:
// inline asm begin
	// 583 "../Peripherals/src/kf32f_basic_flash.c" 1
	CLR [r5], #6
	// 0 "" 2
.LM165:
// inline asm end
	JMP	lr
.L103:
.LM166:
// inline asm begin
	// 578 "../Peripherals/src/kf32f_basic_flash.c" 1
	SET [r5], #6
	// 0 "" 2
.LM167:
// inline asm end
	JMP	lr
	.cfi_endproc
.LFE30:
	.size	FLASH_Linear_Prefetch_Enable_RAM, .-FLASH_Linear_Prefetch_Enable_RAM
	.section .indata$FLASH_Period_Number_Config_RAM
	.type	.indata$FLASH_Period_Number_Config_RAM$scode_local_30, @function
	.indata$FLASH_Period_Number_Config_RAM$scode_local_30:
	.align	1
	.export	FLASH_Period_Number_Config_RAM
	.type	FLASH_Period_Number_Config_RAM, @function
FLASH_Period_Number_Config_RAM:
.LFB31:
.LM168:
	.cfi_startproc
.LVL63:
.LM169:
	MOV	r4,#4
	LSR	r5,r0,r4
.LBB324:
.LBB325:
.LM170:
	CMP	r5,#0
	JZ	.L108
.L106:
	JMP	.L106
.L108:
.LVL64:
.LBE325:
.LBE324:
.LM171:
	LD	r5,#1075839232
	LD.w	r3,[r5+#5]
.LVL65:
.LM172:
	SUB	r0,r0,#1
.LVL66:
.LBB326:
.LBB327:
.LM173:
	MOV	r4,#15
	NOT	r4,r4
	ANL	r4,r3,r4
	ORL	r0,r0,r4
.LVL67:
.LBE327:
.LBE326:
.LM174:
	ST.w	[r5+#5],r0
.LM175:
	JMP	lr
	.cfi_endproc
.LFE31:
	.size	FLASH_Period_Number_Config_RAM, .-FLASH_Period_Number_Config_RAM
	.section .indata$FLASH_Program_Addr_Config_RAM
	.type	.indata$FLASH_Program_Addr_Config_RAM$scode_local_31, @function
	.indata$FLASH_Program_Addr_Config_RAM$scode_local_31:
	.align	1
	.export	FLASH_Program_Addr_Config_RAM
	.type	FLASH_Program_Addr_Config_RAM, @function
FLASH_Program_Addr_Config_RAM:
.LFB32:
.LM176:
	.cfi_startproc
.LVL68:
.LM177:
	MOV	r4,#20
	LSR	r5,r0,r4
.LBB328:
.LBB329:
.LM178:
	CMP	r5,#0
	JZ	.L113
.L111:
	JMP	.L111
.L113:
.LVL69:
.LBE329:
.LBE328:
.LM179:
	LD	r5,#1075839232
	LD.w	r3,[r5+#7]
.LVL70:
.LBB330:
.LBB331:
.LM180:
	LD	r4,#-1048576
	ANL	r4,r3,r4
	ORL	r0,r0,r4
.LVL71:
.LBE331:
.LBE330:
.LM181:
	ST.w	[r5+#7],r0
.LM182:
	JMP	lr
	.cfi_endproc
.LFE32:
	.size	FLASH_Program_Addr_Config_RAM, .-FLASH_Program_Addr_Config_RAM
	.section .indata$FLASH_Get_Program_Status_RAM
	.type	.indata$FLASH_Get_Program_Status_RAM$scode_local_32, @function
	.indata$FLASH_Get_Program_Status_RAM$scode_local_32:
	.align	1
	.export	FLASH_Get_Program_Status_RAM
	.type	FLASH_Get_Program_Status_RAM, @function
FLASH_Get_Program_Status_RAM:
.LFB33:
.LM183:
	.cfi_startproc
.LM184:
	LD	r5,#1075839232
	LD.w	r0,[r5+#8]
	LSR	r0,#3
.LM185:
	MOV	r5,#1
	ANL	r0,r0,r5
	JMP	lr
	.cfi_endproc
.LFE33:
	.size	FLASH_Get_Program_Status_RAM, .-FLASH_Get_Program_Status_RAM
	.section .text$FLASH_Get_Program_Status
	.type	.text$FLASH_Get_Program_Status$scode_local_33, @function
	.text$FLASH_Get_Program_Status$scode_local_33:
	.align	1
	.export	FLASH_Get_Program_Status
	.type	FLASH_Get_Program_Status, @function
FLASH_Get_Program_Status:
.LFB34:
.LM186:
	.cfi_startproc
.LM187:
	LD	r5,#1075839232
	LD.w	r0,[r5+#8]
	LSR	r0,#3
.LM188:
	MOV	r5,#1
	ANL	r0,r0,r5
	JMP	lr
	.cfi_endproc
.LFE34:
	.size	FLASH_Get_Program_Status, .-FLASH_Get_Program_Status
	.section .indata$FLASH_Get_Wipe_Status_RAM
	.type	.indata$FLASH_Get_Wipe_Status_RAM$scode_local_34, @function
	.indata$FLASH_Get_Wipe_Status_RAM$scode_local_34:
	.align	1
	.export	FLASH_Get_Wipe_Status_RAM
	.type	FLASH_Get_Wipe_Status_RAM, @function
FLASH_Get_Wipe_Status_RAM:
.LFB35:
.LM189:
	.cfi_startproc
.LM190:
	LD	r5,#1075839232
	LD.w	r0,[r5+#8]
	LSR	r0,#2
.LM191:
	MOV	r5,#1
	ANL	r0,r0,r5
	JMP	lr
	.cfi_endproc
.LFE35:
	.size	FLASH_Get_Wipe_Status_RAM, .-FLASH_Get_Wipe_Status_RAM
	.section .text$FLASH_Get_Wipe_Status
	.type	.text$FLASH_Get_Wipe_Status$scode_local_35, @function
	.text$FLASH_Get_Wipe_Status$scode_local_35:
	.align	1
	.export	FLASH_Get_Wipe_Status
	.type	FLASH_Get_Wipe_Status, @function
FLASH_Get_Wipe_Status:
.LFB36:
.LM192:
	.cfi_startproc
.LM193:
	LD	r5,#1075839232
	LD.w	r0,[r5+#8]
	LSR	r0,#2
.LM194:
	MOV	r5,#1
	ANL	r0,r0,r5
	JMP	lr
	.cfi_endproc
.LFE36:
	.size	FLASH_Get_Wipe_Status, .-FLASH_Get_Wipe_Status
	.section .indata$FLASH_Get_Compute_Complete_Status_RAM
	.type	.indata$FLASH_Get_Compute_Complete_Status_RAM$scode_local_36, @function
	.indata$FLASH_Get_Compute_Complete_Status_RAM$scode_local_36:
	.align	1
	.export	FLASH_Get_Compute_Complete_Status_RAM
	.type	FLASH_Get_Compute_Complete_Status_RAM, @function
FLASH_Get_Compute_Complete_Status_RAM:
.LFB37:
.LM195:
	.cfi_startproc
.LM196:
	LD	r5,#1075839232
	LD.w	r0,[r5+#8]
	LSR	r0,#1
.LM197:
	MOV	r5,#1
	ANL	r0,r0,r5
	JMP	lr
	.cfi_endproc
.LFE37:
	.size	FLASH_Get_Compute_Complete_Status_RAM, .-FLASH_Get_Compute_Complete_Status_RAM
	.section .indata$FLASH_Clear_Compute_Complete_Status_RAM
	.type	.indata$FLASH_Clear_Compute_Complete_Status_RAM$scode_local_37, @function
	.indata$FLASH_Clear_Compute_Complete_Status_RAM$scode_local_37:
	.align	1
	.export	FLASH_Clear_Compute_Complete_Status_RAM
	.type	FLASH_Clear_Compute_Complete_Status_RAM, @function
FLASH_Clear_Compute_Complete_Status_RAM:
.LFB38:
.LM198:
	.cfi_startproc
.LM199:
	LD	r3,#1075839232
	LD.w	r5,[r3+#8]
	MOV	r4,#2
	ANL	r5,r5,r4
	JZ	.L119
.LM200:
	LD	r2,#1075839264
.L124:
// inline asm begin
	// 738 "../Peripherals/src/kf32f_basic_flash.c" 1
	SET [r2], #1
	// 0 "" 2
.LM201:
// inline asm end
	LD.w	r5,[r3+#8]
	ANL	r5,r5,r4
	JNZ	.L124
.L119:
.LM202:
	JMP	lr
	.cfi_endproc
.LFE38:
	.size	FLASH_Clear_Compute_Complete_Status_RAM, .-FLASH_Clear_Compute_Complete_Status_RAM
	.section .indata$FLASH_Get_CFG_Error_Flag_RAM
	.type	.indata$FLASH_Get_CFG_Error_Flag_RAM$scode_local_38, @function
	.indata$FLASH_Get_CFG_Error_Flag_RAM$scode_local_38:
	.align	1
	.export	FLASH_Get_CFG_Error_Flag_RAM
	.type	FLASH_Get_CFG_Error_Flag_RAM, @function
FLASH_Get_CFG_Error_Flag_RAM:
.LFB39:
.LM203:
	.cfi_startproc
.LM204:
	LD	r5,#1075839232
	LD.w	r0,[r5+#8]
.LM205:
	MOV	r5,#1
	ANL	r0,r0,r5
	JMP	lr
	.cfi_endproc
.LFE39:
	.size	FLASH_Get_CFG_Error_Flag_RAM, .-FLASH_Get_CFG_Error_Flag_RAM
	.section .indata$FLASH_Clear_CFG_Error_Flag_RAM
	.type	.indata$FLASH_Clear_CFG_Error_Flag_RAM$scode_local_39, @function
	.indata$FLASH_Clear_CFG_Error_Flag_RAM$scode_local_39:
	.align	1
	.export	FLASH_Clear_CFG_Error_Flag_RAM
	.type	FLASH_Clear_CFG_Error_Flag_RAM, @function
FLASH_Clear_CFG_Error_Flag_RAM:
.LFB40:
.LM206:
	.cfi_startproc
.LM207:
	LD	r3,#1075839232
	LD.w	r5,[r3+#8]
	MOV	r4,#1
	ANL	r5,r5,r4
	JZ	.L128
.LM208:
	LD	r2,#1075839264
.L133:
// inline asm begin
	// 776 "../Peripherals/src/kf32f_basic_flash.c" 1
	SET [r2], #0
	// 0 "" 2
.LM209:
// inline asm end
	LD.w	r5,[r3+#8]
	ANL	r5,r5,r4
	JNZ	.L133
.L128:
.LM210:
	JMP	lr
	.cfi_endproc
.LFE40:
	.size	FLASH_Clear_CFG_Error_Flag_RAM, .-FLASH_Clear_CFG_Error_Flag_RAM
	.section .indata$FLASH_CheckSum_Addr_Config_RAM
	.type	.indata$FLASH_CheckSum_Addr_Config_RAM$scode_local_40, @function
	.indata$FLASH_CheckSum_Addr_Config_RAM$scode_local_40:
	.align	1
	.export	FLASH_CheckSum_Addr_Config_RAM
	.type	FLASH_CheckSum_Addr_Config_RAM, @function
FLASH_CheckSum_Addr_Config_RAM:
.LFB41:
.LM211:
	.cfi_startproc
.LVL72:
.LM212:
	MOV	r4,#20
	LSR	r5,r0,r4
.LBB332:
.LBB333:
.LM213:
	CMP	r5,#0
	JZ	.L142
.L139:
	JMP	.L139
.L142:
.LVL73:
.LBE333:
.LBE332:
.LM214:
	LSR	r5,r1,r4
.LBB334:
.LBB335:
.LM215:
	CMP	r5,#0
	JZ	.L143
.L140:
	JMP	.L140
.L143:
.LBE335:
.LBE334:
.LM216:
	LD	r5,#1075839232
	ST.w	[r5+#14],r0
.LM217:
	ST.w	[r5+#15],r1
.LM218:
	JMP	lr
	.cfi_endproc
.LFE41:
	.size	FLASH_CheckSum_Addr_Config_RAM, .-FLASH_CheckSum_Addr_Config_RAM
	.section .indata$FLASH_Start_SIG_Compute_Enable_RAM
	.type	.indata$FLASH_Start_SIG_Compute_Enable_RAM$scode_local_41, @function
	.indata$FLASH_Start_SIG_Compute_Enable_RAM$scode_local_41:
	.align	1
	.export	FLASH_Start_SIG_Compute_Enable_RAM
	.type	FLASH_Start_SIG_Compute_Enable_RAM, @function
FLASH_Start_SIG_Compute_Enable_RAM:
.LFB42:
.LM219:
	.cfi_startproc
.LVL74:
.LBB336:
.LBB337:
.LM220:
	CMP	r0,#1
	JLS	.L149
.L148:
	JMP	.L148
.L149:
.LBE337:
.LBE336:
.LM221:
	LD	r5,#1075839292
.LM222:
	CMP	r0,#0
	JNZ	.L150
.LM223:
// inline asm begin
	// 818 "../Peripherals/src/kf32f_basic_flash.c" 1
	CLR [r5], #20
	// 0 "" 2
.LM224:
// inline asm end
	JMP	lr
.L150:
.LM225:
// inline asm begin
	// 813 "../Peripherals/src/kf32f_basic_flash.c" 1
	SET [r5], #20
	// 0 "" 2
.LM226:
// inline asm end
	JMP	lr
	.cfi_endproc
.LFE42:
	.size	FLASH_Start_SIG_Compute_Enable_RAM, .-FLASH_Start_SIG_Compute_Enable_RAM
	.section .indata$FLASH_Get_CheckSum_Result_RAM
	.type	.indata$FLASH_Get_CheckSum_Result_RAM$scode_local_42, @function
	.indata$FLASH_Get_CheckSum_Result_RAM$scode_local_42:
	.align	1
	.export	FLASH_Get_CheckSum_Result_RAM
	.type	FLASH_Get_CheckSum_Result_RAM, @function
FLASH_Get_CheckSum_Result_RAM:
.LFB43:
.LM227:
	.cfi_startproc
.LVL75:
.LM228:
	LD	r5,#1075839232
	LD.w	r4,[r5+#16]
.LVL76:
.LM229:
	ST.w	[r0],r4
.LM230:
	LD.w	r4,[r5+#17]
.LVL77:
	ST.w	[r0+#1],r4
.LVL78:
.LM231:
	LD.w	r4,[r5+#18]
.LVL79:
	ST.w	[r0+#2],r4
.LVL80:
.LM232:
	LD.w	r5,[r5+#19]
	ST.w	[r0+#3],r5
.LVL81:
.LM233:
	JMP	lr
	.cfi_endproc
.LFE43:
	.size	FLASH_Get_CheckSum_Result_RAM, .-FLASH_Get_CheckSum_Result_RAM
	.section .indata$FLASH_Wipe_Configuration_RAM
	.type	.indata$FLASH_Wipe_Configuration_RAM$scode_local_43, @function
	.indata$FLASH_Wipe_Configuration_RAM$scode_local_43:
	.align	1
	.export	FLASH_Wipe_Configuration_RAM
	.type	FLASH_Wipe_Configuration_RAM, @function
FLASH_Wipe_Configuration_RAM:
.LFB44:
.LM234:
	.cfi_startproc
.LVL82:
.LBB338:
.LBB339:
.LM235:
	CMP	r0,#2
	JLS	.L164
.L161:
	JMP	.L161
.L164:
.LVL83:
.LBE339:
.LBE338:
.LM236:
	MOV	r4,#20
	LSR	r5,r1,r4
.LBB340:
.LBB341:
.LM237:
	CMP	r5,#0
	JZ	.L165
.L162:
	JMP	.L162
.L165:
.LBE341:
.LBE340:
.LBB342:
.LBB343:
.LM238:
	LD	r5,#1075839232
	LD	r4,#-2023406815
	ST.w	[r5+#10],r4
.LM239:
	LD	r4,#84148994
	ST.w	[r5+#10],r4
.LBE343:
.LBE342:
.LBB344:
.LBB345:
.LM240:
	LD	r4,#2023406814
	ST.w	[r5+#11],r4
.LM241:
	LD	r4,#370480147
	ST.w	[r5+#11],r4
.LBE345:
.LBE344:
.LBB346:
.LBB347:
.LM242:
	LD	r4,#-2019933218
	ST.w	[r5+#12],r4
.LM243:
	LD	r4,#656811300
	ST.w	[r5+#12],r4
.LBE347:
.LBE346:
.LM244:
	MOV	r4,#10
.LM245:
	CMP	r0,#2
	JZ	.L155
.LM246:
	ST.w	[r5+#7],r1
.LM247:
	MOV	r4,#27
.LM248:
	CMP	r0,#1
	JZ	.L166
.L155:
.LVL84:
.LM249:
	LD	r3,#1075839232
	LD.w	r2,[r3+#2]
.LVL85:
.LBB348:
.LBB349:
.LM250:
	MOV	r5,#31
	NOT	r5,r5
	ANL	r5,r2,r5
	ORL	r4,r4,r5
.LVL86:
.LBE349:
.LBE348:
.LM251:
	ST.w	[r3+#2],r4
.LVL87:
.LBB350:
.LBB351:
.LM252:
	LD.w	r4,[r3+#3]
.LVL88:
.LBB352:
.LBB353:
.LM253:
	LD	r5,#65534
	ANL	r5,r4,r5
	LD	r4,#1353646081
.LVL89:
	ORL	r5,r5,r4
.LBE353:
.LBE352:
.LM254:
	ST.w	[r3+#3],r5
.LBE351:
.LBE350:
.LBB354:
.LBB355:
.LM255:
	MOV	r4,#4
.L156:
.LM256:
	LD.w	r5,[r3+#8]
	ANL	r5,r5,r4
	JNZ	.L156
.LVL90:
.LBE355:
.LBE354:
.LBB356:
.LBB357:
.LM257:
	LD	r5,#1075839232
// inline asm begin
	// 340 "../Peripherals/src/kf32f_basic_flash.c" 1
	CLR [r5], #4
	// 0 "" 2
.LVL91:
// inline asm end
.LBE357:
.LBE356:
.LBB358:
.LBB359:
.LM258:
	LD.w	r3,[r5]
.LVL92:
.LBB360:
.LBB361:
.LM259:
	LD	r4,#65534
	ANL	r4,r3,r4
	LD	r3,#1353646081
.LVL93:
	ORL	r4,r4,r3
.LBE361:
.LBE360:
.LM260:
	ST.w	[r5],r4
.LVL94:
.LBE359:
.LBE358:
.LBB362:
.LBB363:
.LM261:
	LD.w	r3,[r5]
.LVL95:
.LBB364:
.LBB365:
.LM262:
	LD	r4,#65533
	ANL	r4,r3,r4
	LD	r3,#1353646082
.LVL96:
	ORL	r4,r4,r3
.LBE365:
.LBE364:
.LM263:
	ST.w	[r5],r4
.LVL97:
.LBE363:
.LBE362:
.LBB366:
.LBB367:
.LM264:
	LD.w	r3,[r5]
.LVL98:
.LBB368:
.LBB369:
.LM265:
	LD	r4,#65531
	ANL	r4,r3,r4
	LD	r3,#1353646084
.LVL99:
	ORL	r4,r4,r3
.LBE369:
.LBE368:
.LM266:
	ST.w	[r5],r4
.LBE367:
.LBE366:
.LM267:
	JMP	lr
.LVL100:
.L166:
.LM268:
// inline asm begin
	// 896 "../Peripherals/src/kf32f_basic_flash.c" 1
	SET [r5], #4
	// 0 "" 2
// inline asm end
	JMP	.L155
	.cfi_endproc
.LFE44:
	.size	FLASH_Wipe_Configuration_RAM, .-FLASH_Wipe_Configuration_RAM
	.section .text$FLASH_Wipe_Configuration
	.type	.text$FLASH_Wipe_Configuration$scode_local_44, @function
	.text$FLASH_Wipe_Configuration$scode_local_44:
	.align	1
	.export	FLASH_Wipe_Configuration
	.type	FLASH_Wipe_Configuration, @function
FLASH_Wipe_Configuration:
.LFB45:
.LM269:
	.cfi_startproc
.LVL101:
.LBB370:
.LBB371:
.LM270:
	LD	r5,#1075839232
	LD	r4,#-2023406815
	ST.w	[r5+#10],r4
.LM271:
	LD	r4,#84148994
	ST.w	[r5+#10],r4
.LBE371:
.LBE370:
.LBB372:
.LBB373:
.LM272:
	LD	r4,#2023406814
	ST.w	[r5+#11],r4
.LM273:
	LD	r4,#370480147
	ST.w	[r5+#11],r4
.LBE373:
.LBE372:
.LBB374:
.LBB375:
.LM274:
	LD	r4,#-2019933218
	ST.w	[r5+#12],r4
.LM275:
	LD	r4,#656811300
	ST.w	[r5+#12],r4
.LBE375:
.LBE374:
.LM276:
	MOV	r4,#10
.LM277:
	CMP	r0,#2
	JZ	.L168
.LM278:
	ST.w	[r5+#7],r1
.LM279:
	MOV	r4,#27
.LM280:
	CMP	r0,#1
	JZ	.L174
.L168:
.LVL102:
.LM281:
	LD	r3,#1075839232
	LD.w	r2,[r3+#2]
.LVL103:
.LBB376:
.LBB377:
.LM282:
	MOV	r5,#31
	NOT	r5,r5
	ANL	r5,r2,r5
	ORL	r4,r4,r5
.LVL104:
.LBE377:
.LBE376:
.LM283:
	ST.w	[r3+#2],r4
.LVL105:
.LBB378:
.LBB379:
.LM284:
	LD.w	r4,[r3+#3]
.LVL106:
.LBB380:
.LBB381:
.LM285:
	LD	r5,#65534
	ANL	r5,r4,r5
	LD	r4,#1353646081
.LVL107:
	ORL	r5,r5,r4
.LBE381:
.LBE380:
.LM286:
	ST.w	[r3+#3],r5
.LBE379:
.LBE378:
.LBB382:
.LBB383:
.LM287:
	MOV	r4,#4
.L169:
.LM288:
	LD.w	r5,[r3+#8]
	ANL	r5,r5,r4
	JNZ	.L169
.LVL108:
.LBE383:
.LBE382:
.LBB384:
.LBB385:
.LM289:
	LD	r5,#1075839232
// inline asm begin
	// 340 "../Peripherals/src/kf32f_basic_flash.c" 1
	CLR [r5], #4
	// 0 "" 2
.LVL109:
// inline asm end
.LBE385:
.LBE384:
.LBB386:
.LBB387:
.LM290:
	LD.w	r3,[r5]
.LVL110:
.LBB388:
.LBB389:
.LM291:
	LD	r4,#65534
	ANL	r4,r3,r4
	LD	r3,#1353646081
.LVL111:
	ORL	r4,r4,r3
.LBE389:
.LBE388:
.LM292:
	ST.w	[r5],r4
.LVL112:
.LBE387:
.LBE386:
.LBB390:
.LBB391:
.LM293:
	LD.w	r3,[r5]
.LVL113:
.LBB392:
.LBB393:
.LM294:
	LD	r4,#65533
	ANL	r4,r3,r4
	LD	r3,#1353646082
.LVL114:
	ORL	r4,r4,r3
.LBE393:
.LBE392:
.LM295:
	ST.w	[r5],r4
.LVL115:
.LBE391:
.LBE390:
.LBB394:
.LBB395:
.LM296:
	LD.w	r3,[r5]
.LVL116:
.LBB396:
.LBB397:
.LM297:
	LD	r4,#65531
	ANL	r4,r3,r4
	LD	r3,#1353646084
.LVL117:
	ORL	r4,r4,r3
.LBE397:
.LBE396:
.LM298:
	ST.w	[r5],r4
.LBE395:
.LBE394:
.LM299:
	JMP	lr
.LVL118:
.L174:
.LM300:
// inline asm begin
	// 982 "../Peripherals/src/kf32f_basic_flash.c" 1
	SET [r5], #4
	// 0 "" 2
// inline asm end
	JMP	.L168
	.cfi_endproc
.LFE45:
	.size	FLASH_Wipe_Configuration, .-FLASH_Wipe_Configuration
	.section .indata$FLASH_Program_Configuration_RAM
	.type	.indata$FLASH_Program_Configuration_RAM$scode_local_45, @function
	.indata$FLASH_Program_Configuration_RAM$scode_local_45:
	.align	1
	.export	FLASH_Program_Configuration_RAM
	.type	FLASH_Program_Configuration_RAM, @function
FLASH_Program_Configuration_RAM:
.LFB46:
.LM301:
	.cfi_startproc
.LVL119:
	PUSH	r6
	.cfi_def_cfa_offset 4
.LVL120:
.LM302:
	LD.w	r3,[r0]
	CMP	r3,#21
	JZ	.L176
.LVL121:
.LBB398:
.LBB399:
.LM303:
	CMP	r3,#5
	JZ	.L176
.L199:
	JMP	.L199
.LVL122:
.L176:
.LBE399:
.LBE398:
.LM304:
	LD.w	r2,[r0+#1]
.LVL123:
.LBB400:
.LBB401:
.LM305:
	CMP	r2,#1
	JLS	.L206
.L201:
	JMP	.L201
.L206:
.LBE401:
.LBE400:
.LM306:
	LD.w	r4,[r0+#2]
.LVL124:
	MOV	r1,#20
	LSR	r5,r4,r1
.LBB402:
.LBB403:
.LM307:
	CMP	r5,#0
	JZ	.L207
.L200:
	JMP	.L200
.L207:
.LBE403:
.LBE402:
.LM308:
	LD.w	r1,[r0+#3]
.LVL125:
	MOV	r6,#6
	LSR	r5,r1,r6
.LBB404:
.LBB405:
.LM309:
	CMP	r5,#0
	JZ	.L208
.L202:
	JMP	.L202
.L208:
.LBE405:
.LBE404:
.LBB406:
.LBB407:
.LM310:
	LD	r5,#1075839232
	LD	r6,#-2023406815
	ST.w	[r5+#10],r6
.LM311:
	LD	r6,#84148994
	ST.w	[r5+#10],r6
.LBE407:
.LBE406:
.LBB408:
.LBB409:
.LM312:
	LD	r6,#-2019933218
	ST.w	[r5+#12],r6
.LM313:
	LD	r6,#656811300
	ST.w	[r5+#12],r6
.LBE409:
.LBE408:
.LBB410:
.LBB411:
.LM314:
	LD	r6,#2023406814
	ST.w	[r5+#11],r6
.LM315:
	LD	r6,#370480147
	ST.w	[r5+#11],r6
.LBE411:
.LBE410:
.LM316:
// inline asm begin
	// 1059 "../Peripherals/src/kf32f_basic_flash.c" 1
	SET [r5], #3
	// 0 "" 2
.LM317:
// inline asm end
	CMP	r2,#0
	JZ	.L181
.LM318:
// inline asm begin
	// 1064 "../Peripherals/src/kf32f_basic_flash.c" 1
	SET [r5], #4
	// 0 "" 2
// inline asm end
.L181:
.LVL126:
.LM319:
	LD.w	r0,[r0+#4]
.LVL127:
.LM320:
	CMP	r3,#21
	JZ	.L182
.LVL128:
.LBB412:
.LM321:
	LD	r2,#1075839232
.LVL129:
	LD.w	r6,[r2+#2]
.LVL130:
.LM322:
	LSL	r1,#5
.LVL131:
.LBB413:
.LBB414:
.LM323:
	LD	r5,#-2048
	ANL	r5,r6,r5
.LBE414:
.LBE413:
.LM324:
	ORL	r1,r1,r5
.LBB416:
.LBB415:
.LM325:
	ORL	r3,r1,r3
.LVL132:
.LBE415:
.LBE416:
.LM326:
	ST.w	[r2+#2],r3
.LVL133:
.LBB417:
.LBB418:
.LM327:
	LD.w	r3,[r2+#3]
.LVL134:
.LBB419:
.LBB420:
.LM328:
	LD	r5,#65534
	ANL	r3,r3,r5
.LVL135:
	LD	r5,#1353646081
	ORL	r5,r3,r5
.LBE420:
.LBE419:
.LM329:
	ST.w	[r2+#3],r5
.LVL136:
.LM330:
	MOV	r1,#1
	LSL	r1,#9
	ADD	r1,r4,r1
	SUB	r0,r0,r4
.LVL137:
.LBE418:
.LBE417:
.LBB421:
.LBB422:
.LM331:
	MOV	r3,#8
.LVL138:
.L187:
.LBE422:
.LBE421:
.LM332:
	LD.w	r5,[r0+r4]
// inline asm begin
	// 1089 "../Peripherals/src/kf32f_basic_flash.c" 1
	ST.w [r4], r5
	// 0 "" 2
.LVL139:
.LM333:
// inline asm end
	ADD	r5,r4,#4
.LM334:
	ADD	r6,r0,r4
.LM335:
	LD.w	r6,[r6+#1]
// inline asm begin
	// 1092 "../Peripherals/src/kf32f_basic_flash.c" 1
	ST.w [r5], r6
	// 0 "" 2
.LM336:
// inline asm end
	ADD	r4,#8
.LVL140:
.L183:
.LBB424:
.LBB423:
.LM337:
	LD.w	r5,[r2+#8]
	ANL	r5,r5,r3
	JNZ	.L183
.LBE423:
.LBE424:
.LM338:
	CMP	r4,r1
	JNZ	.L187
.LVL141:
.L185:
.LBE412:
.LBB425:
.LBB426:
.LM339:
	LD	r3,#1075839232
	MOV	r4,#4
.L193:
	LD.w	r5,[r3+#8]
	ANL	r5,r5,r4
	JNZ	.L193
.LVL142:
.LBE426:
.LBE425:
.LBB427:
.LBB428:
.LM340:
	LD	r5,#1075839232
// inline asm begin
	// 340 "../Peripherals/src/kf32f_basic_flash.c" 1
	CLR [r5], #4
	// 0 "" 2
// inline asm end
.LBE428:
.LBE427:
.LBB429:
.LBB430:
.LM341:
// inline asm begin
	// 314 "../Peripherals/src/kf32f_basic_flash.c" 1
	CLR [r5], #3
	// 0 "" 2
.LVL143:
// inline asm end
.LBE430:
.LBE429:
.LBB431:
.LBB432:
.LM342:
	LD.w	r3,[r5]
.LVL144:
.LBB433:
.LBB434:
.LM343:
	LD	r4,#65534
	ANL	r3,r3,r4
.LVL145:
	LD	r4,#1353646081
	ORL	r4,r3,r4
.LBE434:
.LBE433:
.LM344:
	ST.w	[r5],r4
.LVL146:
.LBE432:
.LBE431:
.LBB435:
.LBB436:
.LM345:
	LD.w	r3,[r5]
.LVL147:
.LBB437:
.LBB438:
.LM346:
	LD	r4,#65533
	ANL	r3,r3,r4
.LVL148:
	LD	r4,#1353646082
	ORL	r4,r3,r4
.LBE438:
.LBE437:
.LM347:
	ST.w	[r5],r4
.LVL149:
.LBE436:
.LBE435:
.LBB439:
.LBB440:
.LM348:
	LD.w	r3,[r5]
.LVL150:
.LBB441:
.LBB442:
.LM349:
	LD	r4,#65531
	ANL	r3,r3,r4
.LVL151:
	LD	r4,#1353646084
	ORL	r4,r3,r4
.LBE442:
.LBE441:
.LM350:
	ST.w	[r5],r4
.LBE440:
.LBE439:
.LM351:
	POP	r6
	.cfi_remember_state
	.cfi_def_cfa_offset 0
	JMP	lr
.LVL152:
.L182:
	.cfi_restore_state
.LM352:
	LD	r5,#1075839232
	LD.w	r1,[r5+#2]
.LVL153:
.LBB443:
.LBB444:
.LM353:
	MOV	r2,#31
.LVL154:
	NOT	r2,r2
	ANL	r2,r1,r2
	ORL	r3,r2,r3
.LBE444:
.LBE443:
.LM354:
	ST.w	[r5+#2],r3
.LM355:
	LD.w	r5,[r0]
// inline asm begin
	// 1108 "../Peripherals/src/kf32f_basic_flash.c" 1
	ST.w [r4], r5
	// 0 "" 2
.LVL155:
.LM356:
// inline asm end
	ADD	r4,r4,#4
.LVL156:
.LM357:
	LD.w	r5,[r0+#1]
// inline asm begin
	// 1111 "../Peripherals/src/kf32f_basic_flash.c" 1
	ST.w [r4], r5
	// 0 "" 2
.LVL157:
// inline asm end
.LBB445:
.LBB446:
.LM358:
	LD	r5,#1075839232
	LD.w	r3,[r5+#3]
.LVL158:
.LBB447:
.LBB448:
.LM359:
	LD	r4,#65534
	ANL	r3,r3,r4
.LVL159:
	LD	r4,#1353646081
	ORL	r4,r3,r4
.LBE448:
.LBE447:
.LM360:
	ST.w	[r5+#3],r4
	JMP	.L185
.LBE446:
.LBE445:
	.cfi_endproc
.LFE46:
	.size	FLASH_Program_Configuration_RAM, .-FLASH_Program_Configuration_RAM
	.section .text$FLASH_Program_Configuration
	.type	.text$FLASH_Program_Configuration$scode_local_46, @function
	.text$FLASH_Program_Configuration$scode_local_46:
	.align	1
	.export	FLASH_Program_Configuration
	.type	FLASH_Program_Configuration, @function
FLASH_Program_Configuration:
.LFB47:
.LM361:
	.cfi_startproc
.LVL160:
	PUSH	r6
	.cfi_def_cfa_offset 4
.LVL161:
.LBB449:
.LBB450:
.LM362:
	LD	r5,#1075839232
	LD	r4,#-2023406815
	ST.w	[r5+#10],r4
.LM363:
	LD	r4,#84148994
	ST.w	[r5+#10],r4
.LBE450:
.LBE449:
.LBB451:
.LBB452:
.LM364:
	LD	r4,#-2019933218
	ST.w	[r5+#12],r4
.LM365:
	LD	r4,#656811300
	ST.w	[r5+#12],r4
.LBE452:
.LBE451:
.LBB453:
.LBB454:
.LM366:
	LD	r4,#2023406814
	ST.w	[r5+#11],r4
.LM367:
	LD	r4,#370480147
	ST.w	[r5+#11],r4
.LBE454:
.LBE453:
.LM368:
// inline asm begin
	// 1165 "../Peripherals/src/kf32f_basic_flash.c" 1
	SET [r5], #3
	// 0 "" 2
.LM369:
// inline asm end
	LD.w	r5,[r0+#1]
	CMP	r5,#0
	JZ	.L210
.LM370:
	LD	r5,#1075839232
// inline asm begin
	// 1170 "../Peripherals/src/kf32f_basic_flash.c" 1
	SET [r5], #4
	// 0 "" 2
// inline asm end
.L210:
.LM371:
	LD.w	r4,[r0+#2]
.LVL162:
.LM372:
	LD.w	r3,[r0+#4]
.LVL163:
.LM373:
	LD.w	r5,[r0]
.LBB455:
.LM374:
	LD	r2,#1075839232
.LBE455:
.LM375:
	CMP	r5,#21
	JZ	.L211
.LVL164:
.LBB468:
.LM376:
	LD.w	r6,[r2+#2]
.LVL165:
.LM377:
	LD.w	r0,[r0+#3]
.LVL166:
	LSL	r0,#5
.LVL167:
.LBB456:
.LBB457:
.LM378:
	LD	r1,#-2048
	ANL	r1,r6,r1
.LBE457:
.LBE456:
.LM379:
	ORL	r1,r0,r1
.LBB459:
.LBB458:
.LM380:
	ORL	r5,r1,r5
.LVL168:
.LBE458:
.LBE459:
.LM381:
	ST.w	[r2+#2],r5
.LVL169:
.LBB460:
.LBB461:
.LM382:
	LD.w	r1,[r2+#3]
.LVL170:
.LBB462:
.LBB463:
.LM383:
	LD	r5,#65534
	ANL	r1,r1,r5
.LVL171:
	LD	r5,#1353646081
	ORL	r5,r1,r5
.LBE463:
.LBE462:
.LM384:
	ST.w	[r2+#3],r5
.LVL172:
.LM385:
	MOV	r1,#1
	LSL	r1,#9
	ADD	r1,r4,r1
	SUB	r0,r3,r4
.LBE461:
.LBE460:
.LBB464:
.LBB465:
.LM386:
	MOV	r3,#8
.LVL173:
.L216:
.LBE465:
.LBE464:
.LM387:
	LD.w	r5,[r0+r4]
// inline asm begin
	// 1195 "../Peripherals/src/kf32f_basic_flash.c" 1
	ST.w [r4], r5
	// 0 "" 2
.LVL174:
.LM388:
// inline asm end
	ADD	r5,r4,#4
.LM389:
	ADD	r6,r0,r4
.LM390:
	LD.w	r6,[r6+#1]
// inline asm begin
	// 1198 "../Peripherals/src/kf32f_basic_flash.c" 1
	ST.w [r5], r6
	// 0 "" 2
.LM391:
// inline asm end
	ADD	r4,#8
.LVL175:
.L212:
.LBB467:
.LBB466:
.LM392:
	LD.w	r5,[r2+#8]
	ANL	r5,r5,r3
	JNZ	.L212
.LBE466:
.LBE467:
.LM393:
	CMP	r4,r1
	JNZ	.L216
.LVL176:
.L214:
.LBE468:
.LBB469:
.LBB470:
.LM394:
	LD	r3,#1075839232
	MOV	r4,#4
.L220:
	LD.w	r5,[r3+#8]
	ANL	r5,r5,r4
	JNZ	.L220
.LVL177:
.LBE470:
.LBE469:
.LBB471:
.LBB472:
.LM395:
	LD	r5,#1075839232
// inline asm begin
	// 365 "../Peripherals/src/kf32f_basic_flash.c" 1
	CLR [r5], #4
	// 0 "" 2
// inline asm end
.LBE472:
.LBE471:
.LBB473:
.LBB474:
.LM396:
// inline asm begin
	// 314 "../Peripherals/src/kf32f_basic_flash.c" 1
	CLR [r5], #3
	// 0 "" 2
.LVL178:
// inline asm end
.LBE474:
.LBE473:
.LBB475:
.LBB476:
.LM397:
	LD.w	r3,[r5]
.LVL179:
.LBB477:
.LBB478:
.LM398:
	LD	r4,#65534
	ANL	r3,r3,r4
.LVL180:
	LD	r4,#1353646081
	ORL	r4,r3,r4
.LBE478:
.LBE477:
.LM399:
	ST.w	[r5],r4
.LVL181:
.LBE476:
.LBE475:
.LBB479:
.LBB480:
.LM400:
	LD.w	r3,[r5]
.LVL182:
.LBB481:
.LBB482:
.LM401:
	LD	r4,#65533
	ANL	r3,r3,r4
.LVL183:
	LD	r4,#1353646082
	ORL	r4,r3,r4
.LBE482:
.LBE481:
.LM402:
	ST.w	[r5],r4
.LVL184:
.LBE480:
.LBE479:
.LBB483:
.LBB484:
.LM403:
	LD.w	r3,[r5]
.LVL185:
.LBB485:
.LBB486:
.LM404:
	LD	r4,#65531
	ANL	r3,r3,r4
.LVL186:
	LD	r4,#1353646084
	ORL	r4,r3,r4
.LBE486:
.LBE485:
.LM405:
	ST.w	[r5],r4
.LBE484:
.LBE483:
.LM406:
	POP	r6
	.cfi_remember_state
	.cfi_def_cfa_offset 0
	JMP	lr
.LVL187:
.L211:
	.cfi_restore_state
.LM407:
	LD.w	r0,[r2+#2]
.LVL188:
.LBB487:
.LBB488:
.LM408:
	MOV	r1,#31
	NOT	r1,r1
	ANL	r1,r0,r1
	ORL	r5,r1,r5
.LBE488:
.LBE487:
.LM409:
	ST.w	[r2+#2],r5
.LM410:
	LD.w	r5,[r3]
// inline asm begin
	// 1214 "../Peripherals/src/kf32f_basic_flash.c" 1
	ST.w [r4], r5
	// 0 "" 2
.LVL189:
.LM411:
// inline asm end
	ADD	r4,r4,#4
.LM412:
	LD.w	r5,[r3+#1]
// inline asm begin
	// 1217 "../Peripherals/src/kf32f_basic_flash.c" 1
	ST.w [r4], r5
	// 0 "" 2
.LVL190:
// inline asm end
.LBB489:
.LBB490:
.LM413:
	LD	r5,#1075839232
	LD.w	r3,[r5+#3]
.LVL191:
.LBB491:
.LBB492:
.LM414:
	LD	r4,#65534
	ANL	r3,r3,r4
.LVL192:
	LD	r4,#1353646081
	ORL	r4,r3,r4
.LBE492:
.LBE491:
.LM415:
	ST.w	[r5+#3],r4
	JMP	.L214
.LBE490:
.LBE489:
	.cfi_endproc
.LFE47:
	.size	FLASH_Program_Configuration, .-FLASH_Program_Configuration
	.section .indata$Read_Flash_or_CFR_RAM
	.type	.indata$Read_Flash_or_CFR_RAM$scode_local_47, @function
	.indata$Read_Flash_or_CFR_RAM$scode_local_47:
	.align	1
	.export	Read_Flash_or_CFR_RAM
	.type	Read_Flash_or_CFR_RAM, @function
Read_Flash_or_CFR_RAM:
.LFB48:
.LM416:
	.cfi_startproc
.LVL193:
.LBB493:
.LBB494:
.LM417:
	CMP	r1,#1
	JLS	.L233
.L231:
	JMP	.L231
.L233:
.LBE494:
.LBE493:
.LBB495:
.LBB496:
.LM418:
	LD	r5,#1075839232
	LD	r4,#-2023406815
	ST.w	[r5+#10],r4
.LM419:
	LD	r4,#84148994
	ST.w	[r5+#10],r4
.LBE496:
.LBE495:
.LBB497:
.LBB498:
.LM420:
	LD	r4,#-2019933218
	ST.w	[r5+#12],r4
.LM421:
	LD	r4,#656811300
	ST.w	[r5+#12],r4
.LBE498:
.LBE497:
.LBB499:
.LBB500:
.LM422:
	LD	r4,#2023406814
	ST.w	[r5+#11],r4
.LM423:
	LD	r4,#370480147
	ST.w	[r5+#11],r4
.LBE500:
.LBE499:
.LM424:
	CMP	r1,#1
	JNZ	.L234
.LVL194:
.LBB501:
.LBB502:
.LM425:
// inline asm begin
	// 335 "../Peripherals/src/kf32f_basic_flash.c" 1
	SET [r5], #4
	// 0 "" 2
.LVL195:
// inline asm end
.LBE502:
.LBE501:
.LM426:
	LD.w	r0,[r0]
.LVL196:
	LD	r5,#read_data
	ST.w	[r5],r0
.LVL197:
.LBB503:
.LBB504:
.LM427:
	LD	r5,#1075839232
// inline asm begin
	// 340 "../Peripherals/src/kf32f_basic_flash.c" 1
	CLR [r5], #4
	// 0 "" 2
.LVL198:
// inline asm end
.L230:
.LBE504:
.LBE503:
.LBB505:
.LBB506:
.LM428:
	LD	r5,#1075839232
	LD.w	r3,[r5]
.LVL199:
.LBB507:
.LBB508:
.LM429:
	LD	r4,#65534
	ANL	r4,r3,r4
	LD	r3,#1353646081
.LVL200:
	ORL	r4,r4,r3
.LBE508:
.LBE507:
.LM430:
	ST.w	[r5],r4
.LVL201:
.LBE506:
.LBE505:
.LBB509:
.LBB510:
.LM431:
	LD.w	r3,[r5]
.LVL202:
.LBB511:
.LBB512:
.LM432:
	LD	r4,#65533
	ANL	r4,r3,r4
	LD	r3,#1353646082
.LVL203:
	ORL	r4,r4,r3
.LBE512:
.LBE511:
.LM433:
	ST.w	[r5],r4
.LVL204:
.LBE510:
.LBE509:
.LBB513:
.LBB514:
.LM434:
	LD.w	r3,[r5]
.LVL205:
.LBB515:
.LBB516:
.LM435:
	LD	r4,#65531
	ANL	r4,r3,r4
	LD	r3,#1353646084
.LVL206:
	ORL	r4,r4,r3
.LBE516:
.LBE515:
.LM436:
	ST.w	[r5],r4
.LBE514:
.LBE513:
.LM437:
	JMP	lr
.LVL207:
.L234:
.LM438:
	LD.w	r0,[r0]
.LVL208:
	LD	r5,#read_data
	ST.w	[r5],r0
	JMP	.L230
	.cfi_endproc
.LFE48:
	.size	Read_Flash_or_CFR_RAM, .-Read_Flash_or_CFR_RAM
	.section .text$Read_Flash_or_CFR
	.type	.text$Read_Flash_or_CFR$scode_local_48, @function
	.text$Read_Flash_or_CFR$scode_local_48:
	.align	1
	.export	Read_Flash_or_CFR
	.type	Read_Flash_or_CFR, @function
Read_Flash_or_CFR:
.LFB49:
.LM439:
	.cfi_startproc
.LVL209:
.LBB517:
.LBB518:
.LM440:
	LD	r5,#1075839232
	LD	r4,#-2023406815
	ST.w	[r5+#10],r4
.LM441:
	LD	r4,#84148994
	ST.w	[r5+#10],r4
.LBE518:
.LBE517:
.LBB519:
.LBB520:
.LM442:
	LD	r4,#-2019933218
	ST.w	[r5+#12],r4
.LM443:
	LD	r4,#656811300
	ST.w	[r5+#12],r4
.LBE520:
.LBE519:
.LBB521:
.LBB522:
.LM444:
	LD	r4,#2023406814
	ST.w	[r5+#11],r4
.LM445:
	LD	r4,#370480147
	ST.w	[r5+#11],r4
.LBE522:
.LBE521:
.LM446:
	CMP	r1,#1
	JZ	.L236
.LVL210:
.LM447:
	LD.w	r0,[r0]
.LVL211:
	LD	r5,#read_data
	ST.w	[r5],r0
.L237:
.LVL212:
.LBB523:
.LBB524:
.LM448:
	LD	r5,#1075839232
	LD.w	r3,[r5]
.LVL213:
.LBB525:
.LBB526:
.LM449:
	LD	r4,#65534
	ANL	r4,r3,r4
	LD	r3,#1353646081
.LVL214:
	ORL	r4,r4,r3
.LBE526:
.LBE525:
.LM450:
	ST.w	[r5],r4
.LVL215:
.LBE524:
.LBE523:
.LBB527:
.LBB528:
.LM451:
	LD.w	r3,[r5]
.LVL216:
.LBB529:
.LBB530:
.LM452:
	LD	r4,#65533
	ANL	r4,r3,r4
	LD	r3,#1353646082
.LVL217:
	ORL	r4,r4,r3
.LBE530:
.LBE529:
.LM453:
	ST.w	[r5],r4
.LVL218:
.LBE528:
.LBE527:
.LBB531:
.LBB532:
.LM454:
	LD.w	r3,[r5]
.LVL219:
.LBB533:
.LBB534:
.LM455:
	LD	r4,#65531
	ANL	r4,r3,r4
	LD	r3,#1353646084
.LVL220:
	ORL	r4,r4,r3
.LBE534:
.LBE533:
.LM456:
	ST.w	[r5],r4
.LBE532:
.LBE531:
.LM457:
	JMP	lr
.LVL221:
.L236:
.LBB535:
.LBB536:
.LM458:
// inline asm begin
	// 335 "../Peripherals/src/kf32f_basic_flash.c" 1
	SET [r5], #4
	// 0 "" 2
.LVL222:
// inline asm end
.LBE536:
.LBE535:
.LM459:
	LD.w	r0,[r0]
.LVL223:
	LD	r5,#read_data
	ST.w	[r5],r0
.LVL224:
.LBB537:
.LBB538:
.LM460:
	LD	r5,#1075839232
// inline asm begin
	// 340 "../Peripherals/src/kf32f_basic_flash.c" 1
	CLR [r5], #4
	// 0 "" 2
// inline asm end
	JMP	.L237
.LBE538:
.LBE537:
	.cfi_endproc
.LFE49:
	.size	Read_Flash_or_CFR, .-Read_Flash_or_CFR
	.section .text$Read_Soft_Device_ID1
	.type	.text$Read_Soft_Device_ID1$scode_local_49, @function
	.text$Read_Soft_Device_ID1$scode_local_49:
	.align	1
	.export	Read_Soft_Device_ID1
	.type	Read_Soft_Device_ID1, @function
Read_Soft_Device_ID1:
.LFB50:
.LM461:
	.cfi_startproc
	PUSH	lr
	.cfi_def_cfa_offset 4
.LM462:
	LD	r0,#1092
	MOV	r1,#1
	LJMP	Read_Flash_or_CFR
.LVL225:
.LM463:
	POP	lr
	.cfi_def_cfa_offset 0
	JMP	lr
	.cfi_endproc
.LFE50:
	.size	Read_Soft_Device_ID1, .-Read_Soft_Device_ID1
	.section .text$Read_Soft_Device_ID2
	.type	.text$Read_Soft_Device_ID2$scode_local_50, @function
	.text$Read_Soft_Device_ID2$scode_local_50:
	.align	1
	.export	Read_Soft_Device_ID2
	.type	Read_Soft_Device_ID2, @function
Read_Soft_Device_ID2:
.LFB51:
.LM464:
	.cfi_startproc
	PUSH	lr
	.cfi_def_cfa_offset 4
.LM465:
	LD	r0,#1096
	MOV	r1,#1
	LJMP	Read_Flash_or_CFR
.LVL226:
.LM466:
	POP	lr
	.cfi_def_cfa_offset 0
	JMP	lr
	.cfi_endproc
.LFE51:
	.size	Read_Soft_Device_ID2, .-Read_Soft_Device_ID2
	.section .text$Read_Soft_Device_ID3
	.type	.text$Read_Soft_Device_ID3$scode_local_51, @function
	.text$Read_Soft_Device_ID3$scode_local_51:
	.align	1
	.export	Read_Soft_Device_ID3
	.type	Read_Soft_Device_ID3, @function
Read_Soft_Device_ID3:
.LFB52:
.LM467:
	.cfi_startproc
	PUSH	lr
	.cfi_def_cfa_offset 4
.LM468:
	LD	r0,#1100
	MOV	r1,#1
	LJMP	Read_Flash_or_CFR
.LVL227:
.LM469:
	POP	lr
	.cfi_def_cfa_offset 0
	JMP	lr
	.cfi_endproc
.LFE52:
	.size	Read_Soft_Device_ID3, .-Read_Soft_Device_ID3
	.section .text$Read_Soft_Device_ID4
	.type	.text$Read_Soft_Device_ID4$scode_local_52, @function
	.text$Read_Soft_Device_ID4$scode_local_52:
	.align	1
	.export	Read_Soft_Device_ID4
	.type	Read_Soft_Device_ID4, @function
Read_Soft_Device_ID4:
.LFB53:
.LM470:
	.cfi_startproc
	PUSH	lr
	.cfi_def_cfa_offset 4
.LM471:
	LD	r0,#1104
	MOV	r1,#1
	LJMP	Read_Flash_or_CFR
.LVL228:
.LM472:
	POP	lr
	.cfi_def_cfa_offset 0
	JMP	lr
	.cfi_endproc
.LFE53:
	.size	Read_Soft_Device_ID4, .-Read_Soft_Device_ID4
	.export	read_data
	.section .bss$comm$read_data
	.type	.bss$comm$read_data$scode_local_53, @function
	.bss$comm$read_data$scode_local_53:
	.align	2
	.type	read_data, @object
	.size	read_data, 4
read_data:
	.fill 4, 1
	.text	
.Letext0: