	.file	"kf32f_basic_adc.c"
	.text	
.Ltext0:
	.cfi_sections	.debug_frame
	.section .text$ADC_Reset
	.type	.text$ADC_Reset$scode_local_1, @function
	.text$ADC_Reset$scode_local_1:
	.align	1
	.export	ADC_Reset
	.type	ADC_Reset, @function
ADC_Reset:
.LFB1:
.LM1:
	.cfi_startproc
.LVL0:
	PUSH	lr
	.cfi_def_cfa_offset 4
.LM2:
	LD	r5,#1073743232
	CMP	r0,r5
	JZ	.L5
.LM3:
	LD	r5,#1073743360
	CMP	r0,r5
	JZ	.L6
.LVL1:
.L1:
.LM4:
	POP	lr
	.cfi_remember_state
	.cfi_def_cfa_offset 0
	JMP	lr
.LVL2:
.L6:
	.cfi_restore_state
.LM5:
	MOV	r0,#1
.LVL3:
	LSL	r0,#12
	MOV	r1,#1
	LJMP	RST_CTL1_Peripheral_Reset_Enable
.LVL4:
.LM6:
	MOV	r0,#1
	LSL	r0,#12
	MOV	r1,#0
	LJMP	RST_CTL1_Peripheral_Reset_Enable
.LVL5:
.LM7:
	MOV	r0,#1
	LSL	r0,#12
	MOV	r1,#1
	LJMP	PCLK_CTL1_Peripheral_Clock_Enable
.LVL6:
.LM8:
	POP	lr
	.cfi_remember_state
	.cfi_def_cfa_offset 0
	JMP	lr
.LVL7:
.L5:
	.cfi_restore_state
.LM9:
	MOV	r0,#1
.LVL8:
	LSL	r0,#11
	MOV	r1,#1
	LJMP	RST_CTL1_Peripheral_Reset_Enable
.LVL9:
.LM10:
	MOV	r0,#1
	LSL	r0,#11
	MOV	r1,#0
	LJMP	RST_CTL1_Peripheral_Reset_Enable
.LVL10:
.LM11:
	MOV	r0,#1
	LSL	r0,#11
	MOV	r1,#1
	LJMP	PCLK_CTL1_Peripheral_Clock_Enable
.LVL11:
	JMP	.L1
	.cfi_endproc
.LFE1:
	.size	ADC_Reset, .-ADC_Reset
	.section .text$ADC_Configuration
	.type	.text$ADC_Configuration$scode_local_2, @function
	.text$ADC_Configuration$scode_local_2:
	.align	1
	.export	ADC_Configuration
	.type	ADC_Configuration, @function
ADC_Configuration:
.LFB2:
.LM12:
	.cfi_startproc
.LVL12:
.LM13:
	LD.w	r3,[r0]
.LVL13:
.LM14:
	LD.w	r2,[r1+#1]
	LD.w	r4,[r1]
	ORL	r5,r2,r4
.LM15:
	LD.w	r2,[r1+#3]
	ORL	r5,r5,r2
.LM16:
	LD.w	r4,[r1+#4]
	ORL	r5,r5,r4
	LD.w	r4,[r1+#2]
	LSL	r4,#17
.LM17:
	ORL	r5,r5,r4
.LBB52:
.LBB53:
.LM18:
	LD	r4,#-395023
	ANL	r4,r3,r4
	ORL	r5,r5,r4
.LBE53:
.LBE52:
.LM19:
	ST.w	[r0],r5
.LVL14:
.LM20:
	LD.w	r3,[r0+#1]
.LVL15:
.LM21:
	LD.w	r2,[r1+#8]
	LD.w	r4,[r1+#6]
	ORL	r5,r2,r4
.LM22:
	LD.w	r2,[r1+#9]
	ORL	r5,r5,r2
.LM23:
	LD.w	r4,[r1+#5]
	LSL	r4,#11
.LM24:
	ORL	r5,r5,r4
.LM25:
	LD.w	r4,[r1+#7]
	LSL	r4,#27
.LM26:
	ORL	r5,r5,r4
.LBB54:
.LBB55:
.LM27:
	LD	r4,#-268308465
	ANL	r4,r3,r4
	ORL	r5,r5,r4
.LBE55:
.LBE54:
.LM28:
	ST.w	[r0+#1],r5
.LVL16:
.LM29:
	LD.w	r3,[r0+#17]
.LVL17:
.LM30:
	LD.w	r5,[r1+#10]
	SUB	r4,r5,#1
	LSL	r4,#28
.LBB56:
.LBB57:
.LM31:
	LD	r5,#268435455
	ANL	r5,r3,r5
	ORL	r5,r4,r5
.LBE57:
.LBE56:
.LM32:
	ST.w	[r0+#17],r5
.LVL18:
.LM33:
	LD.w	r4,[r0+#5]
.LVL19:
.LM34:
	LD.w	r5,[r1+#11]
	SUB	r5,r5,#1
	LSL	r5,#28
.LBB58:
.LBB59:
.LM35:
	CLR	r4,#28
	CLR	r4,#29
.LVL20:
	ORL	r5,r5,r4
.LBE59:
.LBE58:
.LM36:
	ST.w	[r0+#5],r5
.LM37:
	JMP	lr
	.cfi_endproc
.LFE2:
	.size	ADC_Configuration, .-ADC_Configuration
	.section .text$ADC_Struct_Init
	.type	.text$ADC_Struct_Init$scode_local_3, @function
	.text$ADC_Struct_Init$scode_local_3:
	.align	1
	.export	ADC_Struct_Init
	.type	ADC_Struct_Init, @function
ADC_Struct_Init:
.LFB3:
.LM38:
	.cfi_startproc
.LVL21:
.LM39:
	MOV	r5,#0
	ST.w	[r0],r5
.LM40:
	ST.w	[r0+#1],r5
.LM41:
	ST.w	[r0+#2],r5
.LM42:
	ST.w	[r0+#3],r5
.LM43:
	ST.w	[r0+#4],r5
.LM44:
	ST.w	[r0+#5],r5
.LM45:
	ST.w	[r0+#6],r5
.LM46:
	ST.w	[r0+#7],r5
.LM47:
	ST.w	[r0+#8],r5
.LM48:
	MOV	r5,#1
	LSL	r5,#17
	ST.w	[r0+#9],r5
.LM49:
	MOV	r5,#1
	ST.w	[r0+#10],r5
.LM50:
	ST.w	[r0+#11],r5
.LM51:
	JMP	lr
	.cfi_endproc
.LFE3:
	.size	ADC_Struct_Init, .-ADC_Struct_Init
	.section .text$ADC_Delay_Configuration
	.type	.text$ADC_Delay_Configuration$scode_local_4, @function
	.text$ADC_Delay_Configuration$scode_local_4:
	.align	1
	.export	ADC_Delay_Configuration
	.type	ADC_Delay_Configuration, @function
ADC_Delay_Configuration:
.LFB4:
.LM52:
	.cfi_startproc
.LVL22:
.LM53:
	LD	r5,#1073743316
	LD.w	r3,[r5]
.LVL23:
.LBB60:
.LBB61:
.LM54:
	LD	r4,#-4128832
	ANL	r4,r3,r4
.LBE61:
.LBE60:
.LM55:
	LD.w	r2,[r0]
	SUB	r3,r2,#1
.LVL24:
.LM56:
	ORL	r4,r4,r3
	LD.w	r3,[r0+#1]
	SUB	r3,r3,#1
	LSL	r3,#16
.LBB63:
.LBB62:
.LM57:
	ORL	r4,r4,r3
.LBE62:
.LBE63:
.LM58:
	ST.w	[r5],r4
.LM59:
	JMP	lr
	.cfi_endproc
.LFE4:
	.size	ADC_Delay_Configuration, .-ADC_Delay_Configuration
	.section .text$ADC_Delay_Struct_Init
	.type	.text$ADC_Delay_Struct_Init$scode_local_5, @function
	.text$ADC_Delay_Struct_Init$scode_local_5:
	.align	1
	.export	ADC_Delay_Struct_Init
	.type	ADC_Delay_Struct_Init, @function
ADC_Delay_Struct_Init:
.LFB5:
.LM60:
	.cfi_startproc
.LVL25:
.LM61:
	MOV	r5,#6
	ST.w	[r0],r5
.LM62:
	MOV	r5,#13
	ST.w	[r0+#1],r5
.LM63:
	JMP	lr
	.cfi_endproc
.LFE5:
	.size	ADC_Delay_Struct_Init, .-ADC_Delay_Struct_Init
	.section .text$ADC_Cmd
	.type	.text$ADC_Cmd$scode_local_6, @function
	.text$ADC_Cmd$scode_local_6:
	.align	1
	.export	ADC_Cmd
	.type	ADC_Cmd, @function
ADC_Cmd:
.LFB6:
.LM64:
	.cfi_startproc
.LVL26:
.LM65:
	CMP	r1,#0
	JNZ	.L14
.LM66:
// inline asm begin
	// 264 "../Peripherals/src/kf32f_basic_adc.c" 1
	CLR [r0], #0
	// 0 "" 2
.LM67:
// inline asm end
	JMP	lr
.L14:
.LM68:
// inline asm begin
	// 259 "../Peripherals/src/kf32f_basic_adc.c" 1
	SET [r0], #0
	// 0 "" 2
.LM69:
// inline asm end
	JMP	lr
	.cfi_endproc
.LFE6:
	.size	ADC_Cmd, .-ADC_Cmd
	.section .text$ADC_Analog_Watchdog_Configuration
	.type	.text$ADC_Analog_Watchdog_Configuration$scode_local_7, @function
	.text$ADC_Analog_Watchdog_Configuration$scode_local_7:
	.align	1
	.export	ADC_Analog_Watchdog_Configuration
	.type	ADC_Analog_Watchdog_Configuration, @function
ADC_Analog_Watchdog_Configuration:
.LFB7:
.LM70:
	.cfi_startproc
.LVL27:
.LM71:
	LD.w	r3,[r0]
.LVL28:
.LM72:
	LD.w	r4,[r1+#1]
	LSL	r4,#30
.LM73:
	LD.w	r5,[r1+#2]
	LSL	r5,#29
.LM74:
	ORL	r4,r4,r5
	LD.w	r2,[r1]
	ORL	r4,r4,r2
.LVL29:
.LBB64:
.LBB65:
.LM75:
	LD	r5,#536870911
	ANL	r5,r3,r5
	ORL	r5,r4,r5
.LBE65:
.LBE64:
.LM76:
	ST.w	[r0],r5
.LVL30:
.LM77:
	LD.w	r4,[r0+#17]
.LVL31:
.LBB66:
.LBB67:
.LM78:
	LD	r5,#-66060289
	ANL	r5,r4,r5
	LD.w	r3,[r1+#3]
.LVL32:
	ORL	r5,r5,r3
.LBE67:
.LBE66:
.LM79:
	ST.w	[r0+#17],r5
.LVL33:
.LM80:
	LD.w	r4,[r0+#6]
.LVL34:
.LBB68:
.LBB69:
.LM81:
	LD	r5,#-4096
	ANL	r4,r4,r5
.LVL35:
	LD.w	r2,[r1+#4]
	ORL	r4,r4,r2
.LBE69:
.LBE68:
.LM82:
	ST.w	[r0+#6],r4
.LVL36:
.LM83:
	LD.w	r4,[r0+#7]
.LVL37:
.LBB70:
.LBB71:
.LM84:
	ANL	r5,r4,r5
	LD.w	r4,[r1+#5]
.LVL38:
	ORL	r5,r5,r4
.LBE71:
.LBE70:
.LM85:
	ST.w	[r0+#7],r5
.LM86:
	JMP	lr
	.cfi_endproc
.LFE7:
	.size	ADC_Analog_Watchdog_Configuration, .-ADC_Analog_Watchdog_Configuration
	.section .text$ADC_Analog_Watchdog_Struct_Init
	.type	.text$ADC_Analog_Watchdog_Struct_Init$scode_local_8, @function
	.text$ADC_Analog_Watchdog_Struct_Init$scode_local_8:
	.align	1
	.export	ADC_Analog_Watchdog_Struct_Init
	.type	ADC_Analog_Watchdog_Struct_Init, @function
ADC_Analog_Watchdog_Struct_Init:
.LFB8:
.LM87:
	.cfi_startproc
.LVL39:
.LM88:
	MOV	r5,#0
	ST.w	[r0],r5
.LM89:
	ST.w	[r0+#1],r5
.LM90:
	ST.w	[r0+#2],r5
.LM91:
	ST.w	[r0+#3],r5
.LM92:
	ST.w	[r0+#4],r5
.LM93:
	ST.w	[r0+#5],r5
.LM94:
	JMP	lr
	.cfi_endproc
.LFE8:
	.size	ADC_Analog_Watchdog_Struct_Init, .-ADC_Analog_Watchdog_Struct_Init
	.section .text$ADC_Watchdog_Single_Channel_Enable
	.type	.text$ADC_Watchdog_Single_Channel_Enable$scode_local_9, @function
	.text$ADC_Watchdog_Single_Channel_Enable$scode_local_9:
	.align	1
	.export	ADC_Watchdog_Single_Channel_Enable
	.type	ADC_Watchdog_Single_Channel_Enable, @function
ADC_Watchdog_Single_Channel_Enable:
.LFB9:
.LM95:
	.cfi_startproc
.LVL40:
.LM96:
	CMP	r1,#0
	JNZ	.L20
.LM97:
// inline asm begin
	// 385 "../Peripherals/src/kf32f_basic_adc.c" 1
	CLR [r0], #31
	// 0 "" 2
.LM98:
// inline asm end
	JMP	lr
.L20:
.LM99:
// inline asm begin
	// 380 "../Peripherals/src/kf32f_basic_adc.c" 1
	SET [r0], #31
	// 0 "" 2
.LM100:
// inline asm end
	JMP	lr
	.cfi_endproc
.LFE9:
	.size	ADC_Watchdog_Single_Channel_Enable, .-ADC_Watchdog_Single_Channel_Enable
	.section .text$ADC_Scan_Mode_Enable
	.type	.text$ADC_Scan_Mode_Enable$scode_local_10, @function
	.text$ADC_Scan_Mode_Enable$scode_local_10:
	.align	1
	.export	ADC_Scan_Mode_Enable
	.type	ADC_Scan_Mode_Enable, @function
ADC_Scan_Mode_Enable:
.LFB10:
.LM101:
	.cfi_startproc
.LVL41:
.LM102:
	CMP	r1,#0
	JNZ	.L24
.LM103:
// inline asm begin
	// 411 "../Peripherals/src/kf32f_basic_adc.c" 1
	CLR [r0], #17
	// 0 "" 2
.LM104:
// inline asm end
	JMP	lr
.L24:
.LM105:
// inline asm begin
	// 406 "../Peripherals/src/kf32f_basic_adc.c" 1
	SET [r0], #17
	// 0 "" 2
.LM106:
// inline asm end
	JMP	lr
	.cfi_endproc
.LFE10:
	.size	ADC_Scan_Mode_Enable, .-ADC_Scan_Mode_Enable
	.section .text$ADC_Bosssel_Comparator_Calibration
	.type	.text$ADC_Bosssel_Comparator_Calibration$scode_local_11, @function
	.text$ADC_Bosssel_Comparator_Calibration$scode_local_11:
	.align	1
	.export	ADC_Bosssel_Comparator_Calibration
	.type	ADC_Bosssel_Comparator_Calibration, @function
ADC_Bosssel_Comparator_Calibration:
.LFB11:
.LM107:
	.cfi_startproc
.LVL42:
.LM108:
	CMP	r1,#0
	JNZ	.L28
.LM109:
// inline asm begin
	// 437 "../Peripherals/src/kf32f_basic_adc.c" 1
	CLR [r0], #16
	// 0 "" 2
.LM110:
// inline asm end
	JMP	lr
.L28:
.LM111:
// inline asm begin
	// 432 "../Peripherals/src/kf32f_basic_adc.c" 1
	SET [r0], #16
	// 0 "" 2
.LM112:
// inline asm end
	JMP	lr
	.cfi_endproc
.LFE11:
	.size	ADC_Bosssel_Comparator_Calibration, .-ADC_Bosssel_Comparator_Calibration
	.section .text$ADC_Bosssel_Calibration
	.type	.text$ADC_Bosssel_Calibration$scode_local_12, @function
	.text$ADC_Bosssel_Calibration$scode_local_12:
	.align	1
	.export	ADC_Bosssel_Calibration
	.type	ADC_Bosssel_Calibration, @function
ADC_Bosssel_Calibration:
.LFB12:
.LM113:
	.cfi_startproc
.LVL43:
.LM114:
	CMP	r1,#0
	JNZ	.L32
.LM115:
// inline asm begin
	// 463 "../Peripherals/src/kf32f_basic_adc.c" 1
	CLR [r0], #15
	// 0 "" 2
.LM116:
// inline asm end
	JMP	lr
.L32:
.LM117:
// inline asm begin
	// 458 "../Peripherals/src/kf32f_basic_adc.c" 1
	SET [r0], #15
	// 0 "" 2
.LM118:
// inline asm end
	JMP	lr
	.cfi_endproc
.LFE12:
	.size	ADC_Bosssel_Calibration, .-ADC_Bosssel_Calibration
	.section .text$ADC_Trim_Current_Intensity_Bias
	.type	.text$ADC_Trim_Current_Intensity_Bias$scode_local_13, @function
	.text$ADC_Trim_Current_Intensity_Bias$scode_local_13:
	.align	1
	.export	ADC_Trim_Current_Intensity_Bias
	.type	ADC_Trim_Current_Intensity_Bias, @function
ADC_Trim_Current_Intensity_Bias:
.LFB13:
.LM119:
	.cfi_startproc
.LVL44:
.LM120:
	CMP	r1,#0
	JNZ	.L36
.LM121:
// inline asm begin
	// 489 "../Peripherals/src/kf32f_basic_adc.c" 1
	CLR [r0], #14
	// 0 "" 2
.LM122:
// inline asm end
	JMP	lr
.L36:
.LM123:
// inline asm begin
	// 484 "../Peripherals/src/kf32f_basic_adc.c" 1
	SET [r0], #14
	// 0 "" 2
.LM124:
// inline asm end
	JMP	lr
	.cfi_endproc
.LFE13:
	.size	ADC_Trim_Current_Intensity_Bias, .-ADC_Trim_Current_Intensity_Bias
	.section .text$ADC_Analog_Clock_Config
	.type	.text$ADC_Analog_Clock_Config$scode_local_14, @function
	.text$ADC_Analog_Clock_Config$scode_local_14:
	.align	1
	.export	ADC_Analog_Clock_Config
	.type	ADC_Analog_Clock_Config, @function
ADC_Analog_Clock_Config:
.LFB14:
.LM125:
	.cfi_startproc
.LVL45:
.LM126:
	LD.w	r4,[r0]
.LVL46:
.LBB72:
.LBB73:
.LM127:
	LD	r5,#-1793
	ANL	r5,r4,r5
	ORL	r1,r1,r5
.LVL47:
.LBE73:
.LBE72:
.LM128:
	ST.w	[r0],r1
.LM129:
	JMP	lr
	.cfi_endproc
.LFE14:
	.size	ADC_Analog_Clock_Config, .-ADC_Analog_Clock_Config
	.section .text$ADC_Data_Align_Config
	.type	.text$ADC_Data_Align_Config$scode_local_15, @function
	.text$ADC_Data_Align_Config$scode_local_15:
	.align	1
	.export	ADC_Data_Align_Config
	.type	ADC_Data_Align_Config, @function
ADC_Data_Align_Config:
.LFB15:
.LM130:
	.cfi_startproc
.LVL48:
.LM131:
	LD.w	r5,[r0]
.LVL49:
.LBB74:
.LBB75:
.LM132:
	CLR	r5,#3
.LVL50:
	ORL	r1,r1,r5
.LVL51:
.LBE75:
.LBE74:
.LM133:
	ST.w	[r0],r1
.LM134:
	JMP	lr
	.cfi_endproc
.LFE15:
	.size	ADC_Data_Align_Config, .-ADC_Data_Align_Config
	.section .text$ADC_Clock_Source_Config
	.type	.text$ADC_Clock_Source_Config$scode_local_16, @function
	.text$ADC_Clock_Source_Config$scode_local_16:
	.align	1
	.export	ADC_Clock_Source_Config
	.type	ADC_Clock_Source_Config, @function
ADC_Clock_Source_Config:
.LFB16:
.LM135:
	.cfi_startproc
.LVL52:
.LM136:
	LD.w	r5,[r0]
.LVL53:
.LBB76:
.LBB77:
.LM137:
	CLR	r5,#1
	CLR	r5,#2
.LVL54:
	ORL	r1,r1,r5
.LVL55:
.LBE77:
.LBE76:
.LM138:
	ST.w	[r0],r1
.LM139:
	JMP	lr
	.cfi_endproc
.LFE16:
	.size	ADC_Clock_Source_Config, .-ADC_Clock_Source_Config
	.section .text$ADC_Regular_Channel_DMA_Cmd
	.type	.text$ADC_Regular_Channel_DMA_Cmd$scode_local_17, @function
	.text$ADC_Regular_Channel_DMA_Cmd$scode_local_17:
	.align	1
	.export	ADC_Regular_Channel_DMA_Cmd
	.type	ADC_Regular_Channel_DMA_Cmd, @function
ADC_Regular_Channel_DMA_Cmd:
.LFB17:
.LM140:
	.cfi_startproc
.LVL56:
.LM141:
	CMP	r1,#0
	JNZ	.L43
.LM142:
// inline asm begin
	// 582 "../Peripherals/src/kf32f_basic_adc.c" 1
	CLR [r0], #13
	// 0 "" 2
.LM143:
// inline asm end
	JMP	lr
.L43:
.LM144:
// inline asm begin
	// 577 "../Peripherals/src/kf32f_basic_adc.c" 1
	SET [r0], #13
	// 0 "" 2
.LM145:
// inline asm end
	JMP	lr
	.cfi_endproc
.LFE17:
	.size	ADC_Regular_Channel_DMA_Cmd, .-ADC_Regular_Channel_DMA_Cmd
	.section .text$ADC_High_Priority_Channel_DMA_Cmd
	.type	.text$ADC_High_Priority_Channel_DMA_Cmd$scode_local_18, @function
	.text$ADC_High_Priority_Channel_DMA_Cmd$scode_local_18:
	.align	1
	.export	ADC_High_Priority_Channel_DMA_Cmd
	.type	ADC_High_Priority_Channel_DMA_Cmd, @function
ADC_High_Priority_Channel_DMA_Cmd:
.LFB18:
.LM146:
	.cfi_startproc
.LVL57:
.LM147:
	LD.w	r5,[r0]
.LM148:
	CMP	r2,#0
	JNZ	.L47
.LM149:
	NOT	r1,r1
.LVL58:
	ANL	r1,r1,r5
.LVL59:
	ST.w	[r0],r1
.LM150:
	JMP	lr
.LVL60:
.L47:
.LM151:
	ORL	r1,r1,r5
.LVL61:
	ST.w	[r0],r1
.LM152:
	JMP	lr
	.cfi_endproc
.LFE18:
	.size	ADC_High_Priority_Channel_DMA_Cmd, .-ADC_High_Priority_Channel_DMA_Cmd
	.section .text$ADC_Double_Mode_Config
	.type	.text$ADC_Double_Mode_Config$scode_local_19, @function
	.text$ADC_Double_Mode_Config$scode_local_19:
	.align	1
	.export	ADC_Double_Mode_Config
	.type	ADC_Double_Mode_Config, @function
ADC_Double_Mode_Config:
.LFB19:
.LM153:
	.cfi_startproc
.LVL62:
.LM154:
	LD	r5,#1073743232
	LD.w	r3,[r5+#1]
.LVL63:
.LBB78:
.LBB79:
.LM155:
	LD	r4,#268435455
	ANL	r4,r3,r4
	ORL	r0,r0,r4
.LVL64:
.LBE79:
.LBE78:
.LM156:
	ST.w	[r5+#1],r0
.LM157:
	JMP	lr
	.cfi_endproc
.LFE19:
	.size	ADC_Double_Mode_Config, .-ADC_Double_Mode_Config
	.section .text$ADC_Reference_Voltage_Config
	.type	.text$ADC_Reference_Voltage_Config$scode_local_20, @function
	.text$ADC_Reference_Voltage_Config$scode_local_20:
	.align	1
	.export	ADC_Reference_Voltage_Config
	.type	ADC_Reference_Voltage_Config, @function
ADC_Reference_Voltage_Config:
.LFB20:
.LM158:
	.cfi_startproc
.LVL65:
.LM159:
	LD.w	r4,[r0+#1]
.LVL66:
.LBB80:
.LBB81:
.LM160:
	LD	r5,#-917505
	ANL	r5,r4,r5
	ORL	r1,r1,r5
.LVL67:
.LBE81:
.LBE80:
.LM161:
	ST.w	[r0+#1],r1
.LM162:
	JMP	lr
	.cfi_endproc
.LFE20:
	.size	ADC_Reference_Voltage_Config, .-ADC_Reference_Voltage_Config
	.section .text$ADC_Analog_Watchdog_Channel_Config
	.type	.text$ADC_Analog_Watchdog_Channel_Config$scode_local_21, @function
	.text$ADC_Analog_Watchdog_Channel_Config$scode_local_21:
	.align	1
	.export	ADC_Analog_Watchdog_Channel_Config
	.type	ADC_Analog_Watchdog_Channel_Config, @function
ADC_Analog_Watchdog_Channel_Config:
.LFB21:
.LM163:
	.cfi_startproc
.LVL68:
.LM164:
	LD.w	r4,[r0+#17]
.LVL69:
.LBB82:
.LBB83:
.LM165:
	LD	r5,#-66060289
	ANL	r5,r4,r5
	ORL	r1,r1,r5
.LVL70:
.LBE83:
.LBE82:
.LM166:
	ST.w	[r0+#17],r1
.LM167:
	JMP	lr
	.cfi_endproc
.LFE21:
	.size	ADC_Analog_Watchdog_Channel_Config, .-ADC_Analog_Watchdog_Channel_Config
	.section .text$ADC_Regular_Channel_Watchdog_Enable
	.type	.text$ADC_Regular_Channel_Watchdog_Enable$scode_local_22, @function
	.text$ADC_Regular_Channel_Watchdog_Enable$scode_local_22:
	.align	1
	.export	ADC_Regular_Channel_Watchdog_Enable
	.type	ADC_Regular_Channel_Watchdog_Enable, @function
ADC_Regular_Channel_Watchdog_Enable:
.LFB22:
.LM168:
	.cfi_startproc
.LVL71:
.LM169:
	CMP	r1,#0
	JNZ	.L54
.LM170:
// inline asm begin
	// 714 "../Peripherals/src/kf32f_basic_adc.c" 1
	CLR [r0], #29
	// 0 "" 2
.LM171:
// inline asm end
	JMP	lr
.L54:
.LM172:
// inline asm begin
	// 709 "../Peripherals/src/kf32f_basic_adc.c" 1
	SET [r0], #29
	// 0 "" 2
.LM173:
// inline asm end
	JMP	lr
	.cfi_endproc
.LFE22:
	.size	ADC_Regular_Channel_Watchdog_Enable, .-ADC_Regular_Channel_Watchdog_Enable
	.section .text$ADC_External_Trig_Conv_Enable
	.type	.text$ADC_External_Trig_Conv_Enable$scode_local_23, @function
	.text$ADC_External_Trig_Conv_Enable$scode_local_23:
	.align	1
	.export	ADC_External_Trig_Conv_Enable
	.type	ADC_External_Trig_Conv_Enable, @function
ADC_External_Trig_Conv_Enable:
.LFB23:
.LM174:
	.cfi_startproc
.LVL72:
.LM175:
	ADD	r0,r0,#4
.LVL73:
.LM176:
	CMP	r1,#0
	JNZ	.L58
.LM177:
// inline asm begin
	// 740 "../Peripherals/src/kf32f_basic_adc.c" 1
	CLR [r0], #11
	// 0 "" 2
.LM178:
// inline asm end
	JMP	lr
.L58:
.LM179:
// inline asm begin
	// 735 "../Peripherals/src/kf32f_basic_adc.c" 1
	SET [r0], #11
	// 0 "" 2
.LM180:
// inline asm end
	JMP	lr
	.cfi_endproc
.LFE23:
	.size	ADC_External_Trig_Conv_Enable, .-ADC_External_Trig_Conv_Enable
	.section .text$ADC_External_Trig_Conv_Config
	.type	.text$ADC_External_Trig_Conv_Config$scode_local_24, @function
	.text$ADC_External_Trig_Conv_Config$scode_local_24:
	.align	1
	.export	ADC_External_Trig_Conv_Config
	.type	ADC_External_Trig_Conv_Config, @function
ADC_External_Trig_Conv_Config:
.LFB24:
.LM181:
	.cfi_startproc
.LVL74:
.LM182:
	LD.w	r4,[r0+#1]
.LVL75:
.LBB84:
.LBB85:
.LM183:
	LD	r5,#-2033
	ANL	r5,r4,r5
	ORL	r1,r1,r5
.LVL76:
.LBE85:
.LBE84:
.LM184:
	ST.w	[r0+#1],r1
.LM185:
	JMP	lr
	.cfi_endproc
.LFE24:
	.size	ADC_External_Trig_Conv_Config, .-ADC_External_Trig_Conv_Config
	.section .text$ADC_Regular_Channel_Config
	.type	.text$ADC_Regular_Channel_Config$scode_local_25, @function
	.text$ADC_Regular_Channel_Config$scode_local_25:
	.align	1
	.export	ADC_Regular_Channel_Config
	.type	ADC_Regular_Channel_Config, @function
ADC_Regular_Channel_Config:
.LFB25:
.LM186:
	.cfi_startproc
.LVL77:
.LM187:
	MOV	r5,#6
.LM188:
	CMP	r2,#5
	JLS	.L65
.LM189:
	CMP	r2,#10
	JLS	.L66
.LM190:
	CMP	r2,#15
	JLS	.L67
.LM191:
	MULS	r2,r2,r5 ;
	NOP
.LVL78:
	SUB	r2,#96
.LVL79:
.LM192:
	LD.w	r4,[r0+#17]
.LVL80:
.LM193:
	MOV	r5,#63
	LSL	r5,r5,r2
.LVL81:
.LM194:
	NOT	r5,r5
.LVL82:
.LBB86:
.LBB87:
.LM195:
	ANL	r5,r5,r4
.LVL83:
.LBE87:
.LBE86:
.LM196:
	LSL	r1,r1,r2
.LVL84:
.LBB89:
.LBB88:
.LM197:
	ORL	r2,r5,r1
.LVL85:
.LBE88:
.LBE89:
.LM198:
	ST.w	[r0+#17],r2
.LM199:
	JMP	lr
.LVL86:
.L66:
.LM200:
	MULS	r2,r2,r5 ;
	NOP
.LVL87:
	SUB	r2,#36
.LVL88:
.LM201:
	LD.w	r4,[r0+#3]
.LVL89:
.LM202:
	MOV	r5,#63
	LSL	r5,r5,r2
.LVL90:
.LM203:
	NOT	r5,r5
.LVL91:
.LBB90:
.LBB91:
.LM204:
	ANL	r5,r5,r4
.LVL92:
.LBE91:
.LBE90:
.LM205:
	LSL	r1,r1,r2
.LVL93:
.LBB93:
.LBB92:
.LM206:
	ORL	r2,r5,r1
.LVL94:
.LBE92:
.LBE93:
.LM207:
	ST.w	[r0+#3],r2
.LM208:
	JMP	lr
.LVL95:
.L65:
.LM209:
	MULS	r2,r2,r5 ;
	NOP
.LVL96:
	SUB	r2,r2,r5
.LVL97:
.LM210:
	LD.w	r4,[r0+#2]
.LVL98:
.LM211:
	MOV	r5,#63
	LSL	r5,r5,r2
.LVL99:
.LM212:
	NOT	r5,r5
.LVL100:
.LBB94:
.LBB95:
.LM213:
	ANL	r5,r5,r4
.LVL101:
.LBE95:
.LBE94:
.LM214:
	LSL	r1,r1,r2
.LVL102:
.LBB97:
.LBB96:
.LM215:
	ORL	r2,r5,r1
.LVL103:
.LBE96:
.LBE97:
.LM216:
	ST.w	[r0+#2],r2
.LM217:
	JMP	lr
.LVL104:
.L67:
.LM218:
	MULS	r2,r2,r5 ;
	NOP
.LVL105:
	SUB	r2,#66
.LVL106:
.LM219:
	LD.w	r4,[r0+#4]
.LVL107:
.LM220:
	MOV	r5,#63
	LSL	r5,r5,r2
.LVL108:
.LM221:
	NOT	r5,r5
.LVL109:
.LBB98:
.LBB99:
.LM222:
	ANL	r5,r5,r4
.LVL110:
.LBE99:
.LBE98:
.LM223:
	LSL	r1,r1,r2
.LVL111:
.LBB101:
.LBB100:
.LM224:
	ORL	r2,r5,r1
.LVL112:
.LBE100:
.LBE101:
.LM225:
	ST.w	[r0+#4],r2
.LM226:
	JMP	lr
	.cfi_endproc
.LFE25:
	.size	ADC_Regular_Channel_Config, .-ADC_Regular_Channel_Config
	.section .text$ADC_Regular_Sequencer_Length_Config
	.type	.text$ADC_Regular_Sequencer_Length_Config$scode_local_26, @function
	.text$ADC_Regular_Sequencer_Length_Config$scode_local_26:
	.align	1
	.export	ADC_Regular_Sequencer_Length_Config
	.type	ADC_Regular_Sequencer_Length_Config, @function
ADC_Regular_Sequencer_Length_Config:
.LFB26:
.LM227:
	.cfi_startproc
.LVL113:
.LM228:
	LD.w	r3,[r0+#17]
.LVL114:
.LM229:
	SUB	r5,r1,#1
	LSL	r5,#28
.LBB102:
.LBB103:
.LM230:
	LD	r4,#268435455
	ANL	r1,r3,r4
.LVL115:
	ORL	r1,r5,r1
.LBE103:
.LBE102:
.LM231:
	ST.w	[r0+#17],r1
.LM232:
	JMP	lr
	.cfi_endproc
.LFE26:
	.size	ADC_Regular_Sequencer_Length_Config, .-ADC_Regular_Sequencer_Length_Config
	.section .text$ADC_Regular_Channel_TxCCRy_Trig_Enable
	.type	.text$ADC_Regular_Channel_TxCCRy_Trig_Enable$scode_local_27, @function
	.text$ADC_Regular_Channel_TxCCRy_Trig_Enable$scode_local_27:
	.align	1
	.export	ADC_Regular_Channel_TxCCRy_Trig_Enable
	.type	ADC_Regular_Channel_TxCCRy_Trig_Enable, @function
ADC_Regular_Channel_TxCCRy_Trig_Enable:
.LFB27:
.LM233:
	.cfi_startproc
.LVL116:
.LM234:
	MOV	r5,#1
	LSL	r1,r5,r1
.LVL117:
.LM235:
	LD.w	r4,[r0+#20]
.LM236:
	CMP	r2,#0
	JNZ	.L72
.LM237:
	NOT	r5,r1
	ANL	r5,r5,r4
	ST.w	[r0+#20],r5
.LM238:
	JMP	lr
.L72:
.LM239:
	ORL	r5,r1,r4
	ST.w	[r0+#20],r5
.LM240:
	JMP	lr
	.cfi_endproc
.LFE27:
	.size	ADC_Regular_Channel_TxCCRy_Trig_Enable, .-ADC_Regular_Channel_TxCCRy_Trig_Enable
	.section .text$ADC_Software_Start_Conv
	.type	.text$ADC_Software_Start_Conv$scode_local_28, @function
	.text$ADC_Software_Start_Conv$scode_local_28:
	.align	1
	.export	ADC_Software_Start_Conv
	.type	ADC_Software_Start_Conv, @function
ADC_Software_Start_Conv:
.LFB28:
.LM241:
	.cfi_startproc
.LVL118:
.LM242:
	ADD	r0,r0,#4
.LVL119:
// inline asm begin
	// 969 "../Peripherals/src/kf32f_basic_adc.c" 1
	SET [r0], #2
	// 0 "" 2
.LM243:
// inline asm end
	JMP	lr
	.cfi_endproc
.LFE28:
	.size	ADC_Software_Start_Conv, .-ADC_Software_Start_Conv
	.section .text$ADC_Continuous_Mode_Cmd
	.type	.text$ADC_Continuous_Mode_Cmd$scode_local_29, @function
	.text$ADC_Continuous_Mode_Cmd$scode_local_29:
	.align	1
	.export	ADC_Continuous_Mode_Cmd
	.type	ADC_Continuous_Mode_Cmd, @function
ADC_Continuous_Mode_Cmd:
.LFB29:
.LM244:
	.cfi_startproc
.LVL120:
.LM245:
	CMP	r1,#0
	JNZ	.L77
.LM246:
// inline asm begin
	// 993 "../Peripherals/src/kf32f_basic_adc.c" 1
	CLR [r0], #18
	// 0 "" 2
.LM247:
// inline asm end
	JMP	lr
.L77:
.LM248:
// inline asm begin
	// 988 "../Peripherals/src/kf32f_basic_adc.c" 1
	SET [r0], #18
	// 0 "" 2
.LM249:
// inline asm end
	JMP	lr
	.cfi_endproc
.LFE29:
	.size	ADC_Continuous_Mode_Cmd, .-ADC_Continuous_Mode_Cmd
	.section .text$ADC_Disc_Mode_Channel_Count_Config
	.type	.text$ADC_Disc_Mode_Channel_Count_Config$scode_local_30, @function
	.text$ADC_Disc_Mode_Channel_Count_Config$scode_local_30:
	.align	1
	.export	ADC_Disc_Mode_Channel_Count_Config
	.type	ADC_Disc_Mode_Channel_Count_Config, @function
ADC_Disc_Mode_Channel_Count_Config:
.LFB30:
.LM250:
	.cfi_startproc
.LVL121:
	ZXT.b	r1,r1
.LVL122:
.LM251:
	LD.w	r4,[r0]
.LVL123:
.LM252:
	SUB	r1,r1,#1
.LVL124:
	LSL	r1,#26
.LVL125:
.LBB104:
.LBB105:
.LM253:
	LD	r5,#-469762049
	ANL	r5,r4,r5
	ORL	r5,r1,r5
.LBE105:
.LBE104:
.LM254:
	ST.w	[r0],r5
.LM255:
	JMP	lr
	.cfi_endproc
.LFE30:
	.size	ADC_Disc_Mode_Channel_Count_Config, .-ADC_Disc_Mode_Channel_Count_Config
	.section .text$ADC_Disc_Mode_Cmd
	.type	.text$ADC_Disc_Mode_Cmd$scode_local_31, @function
	.text$ADC_Disc_Mode_Cmd$scode_local_31:
	.align	1
	.export	ADC_Disc_Mode_Cmd
	.type	ADC_Disc_Mode_Cmd, @function
ADC_Disc_Mode_Cmd:
.LFB31:
.LM256:
	.cfi_startproc
.LVL126:
.LM257:
	CMP	r1,#0
	JNZ	.L82
.LM258:
// inline asm begin
	// 1040 "../Peripherals/src/kf32f_basic_adc.c" 1
	CLR [r0], #20
	// 0 "" 2
.LM259:
// inline asm end
	JMP	lr
.L82:
.LM260:
// inline asm begin
	// 1035 "../Peripherals/src/kf32f_basic_adc.c" 1
	SET [r0], #20
	// 0 "" 2
.LM261:
// inline asm end
	JMP	lr
	.cfi_endproc
.LFE31:
	.size	ADC_Disc_Mode_Cmd, .-ADC_Disc_Mode_Cmd
	.section .text$ADC_Get_Conversion_Value
	.type	.text$ADC_Get_Conversion_Value$scode_local_32, @function
	.text$ADC_Get_Conversion_Value$scode_local_32:
	.align	1
	.export	ADC_Get_Conversion_Value
	.type	ADC_Get_Conversion_Value, @function
ADC_Get_Conversion_Value:
.LFB32:
.LM262:
	.cfi_startproc
.LVL127:
.LM263:
	LD.w	r0,[r0+#8]
.LVL128:
.LM264:
	ZXT.h	r0,r0
.LVL129:
	JMP	lr
	.cfi_endproc
.LFE32:
	.size	ADC_Get_Conversion_Value, .-ADC_Get_Conversion_Value
	.section .text$ADC_High_Priority_Watchdog_Enable
	.type	.text$ADC_High_Priority_Watchdog_Enable$scode_local_33, @function
	.text$ADC_High_Priority_Watchdog_Enable$scode_local_33:
	.align	1
	.export	ADC_High_Priority_Watchdog_Enable
	.type	ADC_High_Priority_Watchdog_Enable, @function
ADC_High_Priority_Watchdog_Enable:
.LFB33:
.LM265:
	.cfi_startproc
.LVL130:
.LM266:
	CMP	r1,#0
	JNZ	.L87
.LM267:
// inline asm begin
	// 1092 "../Peripherals/src/kf32f_basic_adc.c" 1
	CLR [r0], #30
	// 0 "" 2
.LM268:
// inline asm end
	JMP	lr
.L87:
.LM269:
// inline asm begin
	// 1087 "../Peripherals/src/kf32f_basic_adc.c" 1
	SET [r0], #30
	// 0 "" 2
.LM270:
// inline asm end
	JMP	lr
	.cfi_endproc
.LFE33:
	.size	ADC_High_Priority_Watchdog_Enable, .-ADC_High_Priority_Watchdog_Enable
	.section .text$ADC_HPExternal_Trig_Conv_Enable
	.type	.text$ADC_HPExternal_Trig_Conv_Enable$scode_local_34, @function
	.text$ADC_HPExternal_Trig_Conv_Enable$scode_local_34:
	.align	1
	.export	ADC_HPExternal_Trig_Conv_Enable
	.type	ADC_HPExternal_Trig_Conv_Enable, @function
ADC_HPExternal_Trig_Conv_Enable:
.LFB34:
.LM271:
	.cfi_startproc
.LVL131:
.LM272:
	ADD	r0,r0,#4
.LVL132:
.LM273:
	CMP	r1,#0
	JNZ	.L91
.LM274:
// inline asm begin
	// 1118 "../Peripherals/src/kf32f_basic_adc.c" 1
	CLR [r0], #27
	// 0 "" 2
.LM275:
// inline asm end
	JMP	lr
.L91:
.LM276:
// inline asm begin
	// 1113 "../Peripherals/src/kf32f_basic_adc.c" 1
	SET [r0], #27
	// 0 "" 2
.LM277:
// inline asm end
	JMP	lr
	.cfi_endproc
.LFE34:
	.size	ADC_HPExternal_Trig_Conv_Enable, .-ADC_HPExternal_Trig_Conv_Enable
	.section .text$ADC_High_Priority_Channel_Config
	.type	.text$ADC_High_Priority_Channel_Config$scode_local_35, @function
	.text$ADC_High_Priority_Channel_Config$scode_local_35:
	.align	1
	.export	ADC_High_Priority_Channel_Config
	.type	ADC_High_Priority_Channel_Config, @function
ADC_High_Priority_Channel_Config:
.LFB35:
.LM278:
	.cfi_startproc
.LVL133:
.LM279:
	MOV	r5,#6
	MULS	r2,r2,r5 ;
	NOP
.LVL134:
	SUB	r2,r2,r5
.LVL135:
.LM280:
	LD.w	r4,[r0+#5]
.LVL136:
.LM281:
	MOV	r5,#63
	LSL	r5,r5,r2
.LVL137:
.LM282:
	NOT	r5,r5
.LVL138:
.LBB106:
.LBB107:
.LM283:
	ANL	r5,r5,r4
.LVL139:
.LBE107:
.LBE106:
.LM284:
	LSL	r1,r1,r2
.LVL140:
.LBB109:
.LBB108:
.LM285:
	ORL	r5,r5,r1
.LBE108:
.LBE109:
.LM286:
	ST.w	[r0+#5],r5
.LM287:
	JMP	lr
	.cfi_endproc
.LFE35:
	.size	ADC_High_Priority_Channel_Config, .-ADC_High_Priority_Channel_Config
	.section .text$ADC_High_Priority_Sequencer_Length_Config
	.type	.text$ADC_High_Priority_Sequencer_Length_Config$scode_local_36, @function
	.text$ADC_High_Priority_Sequencer_Length_Config$scode_local_36:
	.align	1
	.export	ADC_High_Priority_Sequencer_Length_Config
	.type	ADC_High_Priority_Sequencer_Length_Config, @function
ADC_High_Priority_Sequencer_Length_Config:
.LFB36:
.LM288:
	.cfi_startproc
.LVL141:
.LM289:
	LD.w	r5,[r0+#5]
.LVL142:
.LM290:
	SUB	r1,r1,#1
.LVL143:
	LSL	r1,#28
.LVL144:
.LBB110:
.LBB111:
.LM291:
	CLR	r5,#28
	CLR	r5,#29
.LVL145:
	ORL	r1,r1,r5
.LBE111:
.LBE110:
.LM292:
	ST.w	[r0+#5],r1
.LM293:
	JMP	lr
	.cfi_endproc
.LFE36:
	.size	ADC_High_Priority_Sequencer_Length_Config, .-ADC_High_Priority_Sequencer_Length_Config
	.section .text$ADC_Set_HPChannel_Conv_Value_Offset
	.type	.text$ADC_Set_HPChannel_Conv_Value_Offset$scode_local_37, @function
	.text$ADC_Set_HPChannel_Conv_Value_Offset$scode_local_37:
	.align	1
	.export	ADC_Set_HPChannel_Conv_Value_Offset
	.type	ADC_Set_HPChannel_Conv_Value_Offset, @function
ADC_Set_HPChannel_Conv_Value_Offset:
.LFB37:
.LM294:
	.cfi_startproc
.LVL146:
.LM295:
	ST.w	[r1+r0],r2
.LM296:
	JMP	lr
	.cfi_endproc
.LFE37:
	.size	ADC_Set_HPChannel_Conv_Value_Offset, .-ADC_Set_HPChannel_Conv_Value_Offset
	.section .text$ADC_HPExternal_Trig_Conv_Config
	.type	.text$ADC_HPExternal_Trig_Conv_Config$scode_local_38, @function
	.text$ADC_HPExternal_Trig_Conv_Config$scode_local_38:
	.align	1
	.export	ADC_HPExternal_Trig_Conv_Config
	.type	ADC_HPExternal_Trig_Conv_Config, @function
ADC_HPExternal_Trig_Conv_Config:
.LFB38:
.LM297:
	.cfi_startproc
.LVL147:
.LM298:
	LD.w	r4,[r0+#1]
.LVL148:
.LBB112:
.LBB113:
.LM299:
	LD	r5,#-133169153
	ANL	r5,r4,r5
	ORL	r1,r1,r5
.LVL149:
.LBE113:
.LBE112:
.LM300:
	ST.w	[r0+#1],r1
.LM301:
	JMP	lr
	.cfi_endproc
.LFE38:
	.size	ADC_HPExternal_Trig_Conv_Config, .-ADC_HPExternal_Trig_Conv_Config
	.section .text$ADC_Software_HPStart_Conv
	.type	.text$ADC_Software_HPStart_Conv$scode_local_39, @function
	.text$ADC_Software_HPStart_Conv$scode_local_39:
	.align	1
	.export	ADC_Software_HPStart_Conv
	.type	ADC_Software_HPStart_Conv, @function
ADC_Software_HPStart_Conv:
.LFB39:
.LM302:
	.cfi_startproc
.LVL150:
.LM303:
	ADD	r0,r0,#4
.LVL151:
// inline asm begin
	// 1307 "../Peripherals/src/kf32f_basic_adc.c" 1
	SET [r0], #3
	// 0 "" 2
.LM304:
// inline asm end
	JMP	lr
	.cfi_endproc
.LFE39:
	.size	ADC_Software_HPStart_Conv, .-ADC_Software_HPStart_Conv
	.section .text$ADC_HPAuto_Conv_Cmd
	.type	.text$ADC_HPAuto_Conv_Cmd$scode_local_40, @function
	.text$ADC_HPAuto_Conv_Cmd$scode_local_40:
	.align	1
	.export	ADC_HPAuto_Conv_Cmd
	.type	ADC_HPAuto_Conv_Cmd, @function
ADC_HPAuto_Conv_Cmd:
.LFB40:
.LM305:
	.cfi_startproc
.LVL152:
.LM306:
	CMP	r1,#0
	JNZ	.L100
.LM307:
// inline asm begin
	// 1331 "../Peripherals/src/kf32f_basic_adc.c" 1
	CLR [r0], #19
	// 0 "" 2
.LM308:
// inline asm end
	JMP	lr
.L100:
.LM309:
// inline asm begin
	// 1326 "../Peripherals/src/kf32f_basic_adc.c" 1
	SET [r0], #19
	// 0 "" 2
.LM310:
// inline asm end
	JMP	lr
	.cfi_endproc
.LFE40:
	.size	ADC_HPAuto_Conv_Cmd, .-ADC_HPAuto_Conv_Cmd
	.section .text$ADC_HPDisc_Mode_Cmd
	.type	.text$ADC_HPDisc_Mode_Cmd$scode_local_41, @function
	.text$ADC_HPDisc_Mode_Cmd$scode_local_41:
	.align	1
	.export	ADC_HPDisc_Mode_Cmd
	.type	ADC_HPDisc_Mode_Cmd, @function
ADC_HPDisc_Mode_Cmd:
.LFB41:
.LM311:
	.cfi_startproc
.LVL153:
.LM312:
	CMP	r1,#0
	JNZ	.L104
.LM313:
// inline asm begin
	// 1356 "../Peripherals/src/kf32f_basic_adc.c" 1
	CLR [r0], #21
	// 0 "" 2
.LM314:
// inline asm end
	JMP	lr
.L104:
.LM315:
// inline asm begin
	// 1351 "../Peripherals/src/kf32f_basic_adc.c" 1
	SET [r0], #21
	// 0 "" 2
.LM316:
// inline asm end
	JMP	lr
	.cfi_endproc
.LFE41:
	.size	ADC_HPDisc_Mode_Cmd, .-ADC_HPDisc_Mode_Cmd
	.section .text$ADC_Get_HPConversion_Data
	.type	.text$ADC_Get_HPConversion_Data$scode_local_42, @function
	.text$ADC_Get_HPConversion_Data$scode_local_42:
	.align	1
	.export	ADC_Get_HPConversion_Data
	.type	ADC_Get_HPConversion_Data, @function
ADC_Get_HPConversion_Data:
.LFB42:
.LM317:
	.cfi_startproc
.LVL154:
	ZXT.b	r1,r1
.LVL155:
.LM318:
	LD.w	r0,[r1+r0]
.LVL156:
.LM319:
	ZXT.h	r0,r0
.LVL157:
	JMP	lr
	.cfi_endproc
.LFE42:
	.size	ADC_Get_HPConversion_Data, .-ADC_Get_HPConversion_Data
	.section .text$ADC_Set_INT_Enable
	.type	.text$ADC_Set_INT_Enable$scode_local_43, @function
	.text$ADC_Set_INT_Enable$scode_local_43:
	.align	1
	.export	ADC_Set_INT_Enable
	.type	ADC_Set_INT_Enable, @function
ADC_Set_INT_Enable:
.LFB43:
.LM320:
	.cfi_startproc
.LVL158:
.LM321:
	MOV	r5,#15
	ANL	r1,r1,r5
.LVL159:
.LM322:
	MOV	r4,#1
	LSL	r5,r4,r1
.LVL160:
.LM323:
	LD.w	r4,[r0+#20]
.LM324:
	CMP	r2,#0
	JNZ	.L109
.LM325:
	NOT	r5,r5
.LVL161:
	ANL	r5,r5,r4
.LVL162:
	ST.w	[r0+#20],r5
.LM326:
	JMP	lr
.LVL163:
.L109:
.LM327:
	ORL	r5,r5,r4
.LVL164:
	ST.w	[r0+#20],r5
.LM328:
	JMP	lr
	.cfi_endproc
.LFE43:
	.size	ADC_Set_INT_Enable, .-ADC_Set_INT_Enable
	.section .text$ADC_Get_INT_Flag
	.type	.text$ADC_Get_INT_Flag$scode_local_44, @function
	.text$ADC_Get_INT_Flag$scode_local_44:
	.align	1
	.export	ADC_Get_INT_Flag
	.type	ADC_Get_INT_Flag, @function
ADC_Get_INT_Flag:
.LFB44:
.LM329:
	.cfi_startproc
.LVL165:
.LM330:
	LSR	r1,#8
.LVL166:
	MOV	r5,#15
	ANL	r5,r1,r5
.LVL167:
.LM331:
	LD.w	r4,[r0+#20]
.LM332:
	MOV	r3,#1
	LSL	r5,r3,r5
.LVL168:
.LM333:
	ANL	r5,r5,r4
.LVL169:
	MOV	r4,#0
	SUB	r4,r4,r5
	ORL	r0,r4,r5
.LVL170:
.LM334:
	LSR	r0,#31
	JMP	lr
	.cfi_endproc
.LFE44:
	.size	ADC_Get_INT_Flag, .-ADC_Get_INT_Flag
	.section .text$ADC_Clear_INT_Flag
	.type	.text$ADC_Clear_INT_Flag$scode_local_45, @function
	.text$ADC_Clear_INT_Flag$scode_local_45:
	.align	1
	.export	ADC_Clear_INT_Flag
	.type	ADC_Clear_INT_Flag, @function
ADC_Clear_INT_Flag:
.LFB45:
.LM335:
	.cfi_startproc
.LVL171:
.LM336:
	MOV	r4,#16
	LSR	r5,r1,r4
.LVL172:
.LM337:
	MOV	r4,#1
	LSL	r5,r4,r5
.LVL173:
.LM338:
	LD.w	r3,[r0+#20]
	ORL	r3,r5,r3
	ST.w	[r0+#20],r3
.LVL174:
.LM339:
	LD.w	r3,[r0+#20]
.LM340:
	LSR	r1,#8
.LVL175:
	MOV	r2,#15
	ANL	r1,r1,r2
.LVL176:
.LM341:
	LSL	r4,r4,r1
	ANL	r4,r4,r3
.LVL177:
.LM342:
	LSR	r1,r4,r1
.LVL178:
	CMP	r1,#0
	JNZ	.L112
.LM343:
	LD.w	r4,[r0+#20]
.LVL179:
	NOT	r5,r5
.LVL180:
	ANL	r5,r5,r4
.LVL181:
	ST.w	[r0+#20],r5
.LM344:
	JMP	lr
.LVL182:
.L112:
.L114:
	JMP	.L114
	.cfi_endproc
.LFE45:
	.size	ADC_Clear_INT_Flag, .-ADC_Clear_INT_Flag
	.section .text$ADC_Get_INT_Status
	.type	.text$ADC_Get_INT_Status$scode_local_46, @function
	.text$ADC_Get_INT_Status$scode_local_46:
	.align	1
	.export	ADC_Get_INT_Status
	.type	ADC_Get_INT_Status, @function
ADC_Get_INT_Status:
.LFB46:
.LM345:
	.cfi_startproc
.LVL183:
.LM346:
	LD.w	r5,[r0+#20]
.LVL184:
.LM347:
	MOV	r3,#8
	LSR	r4,r1,r3
	MOV	r0,#1
.LVL185:
	LSL	r4,r0,r4
.LM348:
	LSL	r1,r0,r1
.LVL186:
.LM349:
	ORL	r1,r4,r1
	ANL	r5,r1,r5
.LVL187:
.LM350:
	CMP	r1,r5
	JZ	.L116
	MOV	r0,#0
.L116:
.LM351:
	JMP	lr
	.cfi_endproc
.LFE46:
	.size	ADC_Get_INT_Status, .-ADC_Get_INT_Status
	.text	
.Letext0: