	.file	"KF32_EVAL.c"
	.text	
.Ltext0:
	.cfi_sections	.debug_frame
	.section .text$kf_eval_usart_init
	.type	.text$kf_eval_usart_init$scode_local_1, @function
	.text$kf_eval_usart_init$scode_local_1:
	.align	1
	.export	kf_eval_usart_init
	.type	kf_eval_usart_init, @function
kf_eval_usart_init:
.LFB1:
.LM1:
	.cfi_startproc
.LVL0:
	PUSH	{r6, r7, r8, r9, r10, lr}
	.cfi_def_cfa_offset 24
	SUB	sp,#52
	.cfi_def_cfa_offset 76
	MOV	r6,r0
.LM2:
	CMP	r0,#3
	JLS	.L7
.LM3:
	ADD	sp,#52
	.cfi_remember_state
	.cfi_def_cfa_offset 24
	POP	{r6, r7, r8, r9, r10}
	.cfi_def_cfa_offset 4
	POP	lr
	.cfi_def_cfa_offset 0
	JMP	lr
.L7:
	.cfi_restore_state
.LM4:
	MOV	r3,r0
	LSL	r3,#2
	MOV	r9,r3
	LD	r5,#EVAL_COM_GPIO_PORT
	LD.w	r7,[r5+r3]
	ADD	r4,r0,r0
	MOV	r8,r4
	LD	r5,#EVAL_COM_TX_PIN
	LD.h	r5,[r5+r4]
	ZXT.h	r10,r5
	MOV	r0,r7
.LVL1:
	MOV	r1,r10
	MOV	r2,#2
	LJMP	GPIO_Write_Mode_Bits
.LVL2:
.LM5:
	MOV	r0,r7
	LD	r5,#EVAL_COM_TX_PIN_NUM
	MOV	r3,r8
	LD.h	r5,[r5+r3]
	ZXT.h	r1,r5
	LD	r5,#EVAL_COM_TX_PIN_RMP
	LD.b	r2,[r5+r6]
	LJMP	GPIO_Pin_RMP_Config
.LVL3:
.LM6:
	MOV	r0,r7
	MOV	r1,r10
	MOV	r2,#1
	LJMP	GPIO_Pin_Lock_Config
.LVL4:
.LM7:
	LD	r5,#EVAL_COM_RX_PIN
	MOV	r4,r8
	LD.h	r5,[r5+r4]
	ZXT.h	r10,r5
	MOV	r0,r7
	MOV	r1,r10
	MOV	r2,#2
	LJMP	GPIO_Write_Mode_Bits
.LVL5:
.LM8:
	MOV	r0,r7
	LD	r5,#EVAL_COM_RX_PIN_NUM
	MOV	r3,r8
	LD.h	r5,[r5+r3]
	ZXT.h	r1,r5
	LD	r5,#EVAL_COM_RX_PIN_RMP
	LD.b	r2,[r5+r6]
	LJMP	GPIO_Pin_RMP_Config
.LVL6:
.LM9:
	MOV	r0,r7
	MOV	r1,r10
	MOV	r2,#1
	LJMP	GPIO_Pin_Lock_Config
.LVL7:
.LM10:
	MOV	r0,sp
	LJMP	USART_Struct_Init
.LVL8:
.LM11:
	MOV	r5,#0
	ST.w	[sp],r5
.LM12:
	LD	r4,#98304
	ST.w	[sp+#2],r4
.LM13:
	ST.w	[sp+#3],r5
.LM14:
	ST.w	[sp+#4],r5
.LM15:
	MOV	r4,#2
	ST.h	[sp+#22],r4
.LM16:
	LD	r4,#EVAL_COM_BAUD
	MOV	r3,r9
	LD.w	r4,[r4+r3]
	LD	r3,#115200
	CMP	r4,r3
	JZ	.L8
.LM17:
	LD	r3,#9600
	CMP	r4,r3
	JZ	.L9
.L4:
.LM18:
	LD	r5,#EVAL_COM_USART
	MOV	r4,r9
	LD.w	r6,[r5+r4]
.LVL9:
	MOV	r0,r6
	LJMP	USART_Reset
.LVL10:
.LM19:
	MOV	r0,r6
	MOV	r1,sp
	LJMP	USART_Configuration
.LVL11:
.LM20:
	MOV	r0,r6
	MOV	r1,#0
	LJMP	USART_Passageway_Select_Config
.LVL12:
.LM21:
	MOV	r0,r6
	LJMP	USART_Clear_Transmit_BUFR_INT_Flag
.LVL13:
.LM22:
	MOV	r0,r6
	MOV	r1,#1
	LJMP	USART_RESHD_Enable
.LVL14:
.LM23:
	MOV	r0,r6
	MOV	r1,#1
	LJMP	USART_Cmd
.LVL15:
.LM24:
	ADD	sp,#52
	.cfi_remember_state
	.cfi_def_cfa_offset 24
	POP	{r6, r7, r8, r9, r10}
	.cfi_def_cfa_offset 4
	POP	lr
	.cfi_def_cfa_offset 0
	JMP	lr
.LVL16:
.L9:
	.cfi_restore_state
.LM25:
	MOV	r4,#104
	ST.h	[sp+#23],r4
.LM26:
	ST.h	[sp+#24],r5
.LM27:
	ST.h	[sp+#25],r5
	JMP	.L4
.L8:
.LM28:
	MOV	r5,#8
	ST.h	[sp+#23],r5
.LM29:
	MOV	r5,#1
	ST.h	[sp+#24],r5
.LM30:
	MOV	r5,#13
	ST.h	[sp+#25],r5
	JMP	.L4
	.cfi_endproc
.LFE1:
	.size	kf_eval_usart_init, .-kf_eval_usart_init
	.section .text$kf_eval_led_init
	.type	.text$kf_eval_led_init$scode_local_2, @function
	.text$kf_eval_led_init$scode_local_2:
	.align	1
	.export	kf_eval_led_init
	.type	kf_eval_led_init, @function
kf_eval_led_init:
.LFB2:
.LM31:
	.cfi_startproc
.LVL17:
	PUSH	{r6, lr}
	.cfi_def_cfa_offset 8
	SUB	sp,#24
	.cfi_def_cfa_offset 32
	MOV	r6,r0
.LM32:
	MOV	r0,sp
.LVL18:
	LJMP	GPIO_Struct_Init
.LVL19:
.LM33:
	ADD	r5,r6,r6
	LD	r4,#GPIO_PIN
	LD.h	r5,[r4+r5]
	ST.w	[sp],r5
.LM34:
	MOV	r5,#0
	ST.w	[sp+#2],r5
.LM35:
	MOV	r4,#1
	ST.w	[sp+#1],r4
.LM36:
	ST.w	[sp+#4],r5
.LM37:
	ST.w	[sp+#5],r5
.LM38:
	LSL	r6,#2
.LVL20:
	LD	r5,#GPIO_PORT
	LD.w	r0,[r5+r6]
	MOV	r1,sp
	LJMP	GPIO_Configuration
.LVL21:
.LM39:
	ADD	sp,#24
	.cfi_def_cfa_offset 8
	POP	r6
	.cfi_def_cfa_offset 4
	POP	lr
	.cfi_def_cfa_offset 0
	JMP	lr
	.cfi_endproc
.LFE2:
	.size	kf_eval_led_init, .-kf_eval_led_init
	.section .text$kf_eval_led_on
	.type	.text$kf_eval_led_on$scode_local_3, @function
	.text$kf_eval_led_on$scode_local_3:
	.align	1
	.export	kf_eval_led_on
	.type	kf_eval_led_on, @function
kf_eval_led_on:
.LFB3:
.LM40:
	.cfi_startproc
.LVL22:
	PUSH	lr
	.cfi_def_cfa_offset 4
.LM41:
	MOV	r5,#2
	LSL	r4,r0,r5
	ADD	r5,r0,r0
	LD	r3,#GPIO_PORT
	LD.w	r0,[r3+r4]
.LVL23:
	LD	r4,#GPIO_PIN
	LD.h	r1,[r4+r5]
	MOV	r2,#1
	LJMP	GPIO_Set_Output_Data_Bits
.LVL24:
.LM42:
	POP	lr
	.cfi_def_cfa_offset 0
	JMP	lr
	.cfi_endproc
.LFE3:
	.size	kf_eval_led_on, .-kf_eval_led_on
	.section .text$kf_eval_led_off
	.type	.text$kf_eval_led_off$scode_local_4, @function
	.text$kf_eval_led_off$scode_local_4:
	.align	1
	.export	kf_eval_led_off
	.type	kf_eval_led_off, @function
kf_eval_led_off:
.LFB4:
.LM43:
	.cfi_startproc
.LVL25:
	PUSH	lr
	.cfi_def_cfa_offset 4
.LM44:
	MOV	r5,#2
	LSL	r4,r0,r5
	ADD	r5,r0,r0
	LD	r3,#GPIO_PORT
	LD.w	r0,[r3+r4]
.LVL26:
	LD	r4,#GPIO_PIN
	LD.h	r1,[r4+r5]
	MOV	r2,#0
	LJMP	GPIO_Set_Output_Data_Bits
.LVL27:
.LM45:
	POP	lr
	.cfi_def_cfa_offset 0
	JMP	lr
	.cfi_endproc
.LFE4:
	.size	kf_eval_led_off, .-kf_eval_led_off
	.section .text$kf_eval_led_toggle
	.type	.text$kf_eval_led_toggle$scode_local_5, @function
	.text$kf_eval_led_toggle$scode_local_5:
	.align	1
	.export	kf_eval_led_toggle
	.type	kf_eval_led_toggle, @function
kf_eval_led_toggle:
.LFB5:
.LM46:
	.cfi_startproc
.LVL28:
	PUSH	lr
	.cfi_def_cfa_offset 4
.LM47:
	MOV	r5,#2
	LSL	r4,r0,r5
	ADD	r5,r0,r0
	LD	r3,#GPIO_PORT
	LD.w	r0,[r3+r4]
.LVL29:
	LD	r4,#GPIO_PIN
	LD.h	r1,[r4+r5]
	LJMP	GPIO_Toggle_Output_Data_Config
.LVL30:
.LM48:
	POP	lr
	.cfi_def_cfa_offset 0
	JMP	lr
	.cfi_endproc
.LFE5:
	.size	kf_eval_led_toggle, .-kf_eval_led_toggle
	.export	GPIO_PIN
	.section .rdata$GPIO_PIN
	.type	.rdata$GPIO_PIN$scode_local_6, @function
	.rdata$GPIO_PIN$scode_local_6:
	.align	1
	.type	GPIO_PIN, @object
	.size	GPIO_PIN, 6
GPIO_PIN:
	.short	32
	.short	64
	.short	8192
	.export	GPIO_PORT
	.section .data$init$GPIO_PORT
	.type	.data$init$GPIO_PORT$scode_local_7, @function
	.data$init$GPIO_PORT$scode_local_7:
	.align	2
	.type	GPIO_PORT, @object
	.size	GPIO_PORT, 12
GPIO_PORT:
	.long	1342177728
	.long	1342177728
	.long	1342177472
	.section .rdata$EVAL_COM_GPIO_PORT
	.type	.rdata$EVAL_COM_GPIO_PORT$scode_local_8, @function
	.rdata$EVAL_COM_GPIO_PORT$scode_local_8:
	.align	2
	.type	EVAL_COM_GPIO_PORT, @object
	.size	EVAL_COM_GPIO_PORT, 16
EVAL_COM_GPIO_PORT:
	.long	1342177280
	.long	1342177280
	.long	1342177280
	.long	1342177408
	.section .rdata$EVAL_COM_TX_PIN
	.type	.rdata$EVAL_COM_TX_PIN$scode_local_9, @function
	.rdata$EVAL_COM_TX_PIN$scode_local_9:
	.align	1
	.type	EVAL_COM_TX_PIN, @object
	.size	EVAL_COM_TX_PIN, 8
EVAL_COM_TX_PIN:
	.short	8
	.short	64
	.short	2
	.short	2048
	.section .rdata$EVAL_COM_TX_PIN_NUM
	.type	.rdata$EVAL_COM_TX_PIN_NUM$scode_local_10, @function
	.rdata$EVAL_COM_TX_PIN_NUM$scode_local_10:
	.align	1
	.type	EVAL_COM_TX_PIN_NUM, @object
	.size	EVAL_COM_TX_PIN_NUM, 8
EVAL_COM_TX_PIN_NUM:
	.short	3
	.short	6
	.short	1
	.short	11
	.section .rdata$EVAL_COM_TX_PIN_RMP
	.type	.rdata$EVAL_COM_TX_PIN_RMP$scode_local_11, @function
	.rdata$EVAL_COM_TX_PIN_RMP$scode_local_11:
	.align	2
	.type	EVAL_COM_TX_PIN_RMP, @object
	.size	EVAL_COM_TX_PIN_RMP, 4
EVAL_COM_TX_PIN_RMP:
	.byte	6
	.byte	6
	.byte	5
	.byte	5
	.section .rdata$EVAL_COM_RX_PIN
	.type	.rdata$EVAL_COM_RX_PIN$scode_local_12, @function
	.rdata$EVAL_COM_RX_PIN$scode_local_12:
	.align	1
	.type	EVAL_COM_RX_PIN, @object
	.size	EVAL_COM_RX_PIN, 8
EVAL_COM_RX_PIN:
	.short	4
	.short	32
	.short	1
	.short	1024
	.section .rdata$EVAL_COM_RX_PIN_NUM
	.type	.rdata$EVAL_COM_RX_PIN_NUM$scode_local_13, @function
	.rdata$EVAL_COM_RX_PIN_NUM$scode_local_13:
	.align	1
	.type	EVAL_COM_RX_PIN_NUM, @object
	.size	EVAL_COM_RX_PIN_NUM, 8
EVAL_COM_RX_PIN_NUM:
	.short	2
	.short	5
	.short	0
	.short	10
	.section .rdata$EVAL_COM_RX_PIN_RMP
	.type	.rdata$EVAL_COM_RX_PIN_RMP$scode_local_14, @function
	.rdata$EVAL_COM_RX_PIN_RMP$scode_local_14:
	.align	2
	.type	EVAL_COM_RX_PIN_RMP, @object
	.size	EVAL_COM_RX_PIN_RMP, 4
EVAL_COM_RX_PIN_RMP:
	.byte	6
	.byte	6
	.byte	5
	.byte	11
	.section .rdata$EVAL_COM_BAUD
	.type	.rdata$EVAL_COM_BAUD$scode_local_15, @function
	.rdata$EVAL_COM_BAUD$scode_local_15:
	.align	2
	.type	EVAL_COM_BAUD, @object
	.size	EVAL_COM_BAUD, 16
EVAL_COM_BAUD:
	.long	115200
	.long	115200
	.long	115200
	.long	115200
	.section .rdata$EVAL_COM_USART
	.type	.rdata$EVAL_COM_USART$scode_local_16, @function
	.rdata$EVAL_COM_USART$scode_local_16:
	.align	2
	.type	EVAL_COM_USART, @object
	.size	EVAL_COM_USART, 16
EVAL_COM_USART:
	.long	1073744640
	.long	1073749632
	.long	1073744256
	.long	1073744384
	.text	
.Letext0: