
KF32F330_EVAL.elf:     file format elf32-kungfu32-little


Disassembly of section .text:

00000000 <_start>:
##@@@F_:__vector_entry__:
       0:	00 80 01 10 	.long     0x10018000  [!!!@2@:LD.B      R0, [R0]	@@: MOV       R0, #1
       4:	fc 16 00 00 	.long     0x000016fc  [!!!@2@:MOV       PC, #108	@@: NOP      
       8:	a4 0d 00 00 	.long     0x00000da4  [!!!@2@:LD.W      R5, [SP + #164]	@@: NOP      
       c:	a6 0d 00 00 	.long     0x00000da6  [!!!@2@:LD.W      R5, [SP + #166]	@@: NOP      
      10:	00 00 00 00 	.long     0x00000000  [!!!@2@:NOP      	@@: NOP      
      14:	a8 0d 00 00 	.long     0x00000da8  [!!!@2@:LD.W      R5, [SP + #168]	@@: NOP      
      18:	00 00 00 00 	.long     0x00000000  [!!!@2@:NOP      	@@: NOP      
      1c:	12 40 fe ef 	.long     0xeffe4012  [!!!@2@:LD        R0, [PC + #18]        ;->0x64  :=0x0	@@: ST.W      [R7 + R7], R6
	...
      2c:	aa 0d 00 00 	.long     0x00000daa  [!!!@2@:LD.W      R5, [SP + #170]	@@: NOP      
	...
      38:	ac 0d 00 00 	.long     0x00000dac  [!!!@2@:LD.W      R5, [SP + #172]	@@: NOP      
      3c:	ae 0d 00 00 	.long     0x00000dae  [!!!@2@:LD.W      R5, [SP + #174]	@@: NOP      
	...
      b0:	c6 0d 00 00 	.long     0x00000dc6  [!!!@2@:LD.W      R5, [SP + #198]	@@: NOP      
      b4:	c8 0d 00 00 	.long     0x00000dc8  [!!!@2@:LD.W      R5, [SP + #200]	@@: NOP      
	...
     100:	ca 0d 00 00 	.long     0x00000dca  [!!!@2@:LD.W      R5, [SP + #202]	@@: NOP      
     104:	cc 0d 00 00 	.long     0x00000dcc  [!!!@2@:LD.W      R5, [SP + #204]	@@: NOP      
     108:	ce 0d 00 00 	.long     0x00000dce  [!!!@2@:LD.W      R5, [SP + #206]	@@: NOP      
	...
     134:	d0 0d 00 00 	.long     0x00000dd0  [!!!@2@:LD.W      R5, [SP + #208]	@@: NOP      
	...

00000200 <flash_erase_page>:
##@@@F_:flash_erase_page():
##@@@P_:bsp_flash.c:287
##@@@L0282_:		flash_write.m_Zone=FLASH_PROGRAM_CODE;//FLASH_PROGRAM_CFG  FLASH_PROGRAM_CODE   
##@@@L0283_:		flash_write.m_Addr=address;   
##@@@L0284_:		flash_write.m_WriteSize=length;//ÕŹŖķĪĄń╝¢ń©ŗõĖŹÕŠŚõĖ║0’╝īÕ”éµ×£ÕåÖ1’╝ł+1’╝ēÕ«×ķÖģÕåÖńÜäµś»2õĖ¬ÕÅīÕŁŚ ÕŹĢÕŁŚń╝¢ń©ŗµŚĀÕĮ▒ÕōŹ   
##@@@L0285_:		flash_write.m_Data=p_FlashBuffer;   
##@@@L0286_:		FLASH_Program_Configuration_RAM(&flash_write);   
##@@@L0287_:}   
     200:	2d 5d       	PUSH      LR
     202:	20 58       	MOV       R1, R0
     204:	00 10       	MOV       R0, #0			;->0x0000
     206:	80 00 4d 06 	LJMP      $+1613    ;->0xea0  ea0 <__FLASH_Wipe_Configuration_RAM_veneer>
     20a:	0d 5d       	POP       LR
     20c:	1d 5c       	JMP       LR
	...

00000210 <flash_erase_range>:
##@@@F_:flash_erase_range():
     210:	87 5f       	PUSH      {R6-R8,LR}
     212:	e1 58       	MOV       R7, R1
     214:	10 70       	CMP       R1, R0
     216:	0d f9       	JLS       $+13                  ;->0x230
     218:	08 46       	LD        R6, [PC + #8]         ;->0x238  :=0xfffffc00
     21a:	b0 d5       	ANL       R6, R0, R6
     21c:	16 70       	CMP       R1, R6
     21e:	09 f9       	JLS       $+9                   ;->0x230
     220:	81 10       	MOV       R8, #1			;->0x0001
     222:	c2 7a       	LSL       R8, #10			;->0x0A
     224:	06 58       	MOV       R0, R6
     226:	9f 00 ed ff 	LJMP      $-19      ;->0x200  200 <flash_erase_page>
     22a:	68 64       	ADD       R6, R8
     22c:	76 70       	CMP       R7, R6
     22e:	fb f8       	JHI       $-5                   ;->0x224
     230:	07 5e       	POP       {R6-R8}
     232:	0d 5d       	POP       LR
     234:	1d 5c       	JMP       LR
     236:	00 00       	NOP      NOP      
     238:	00 fc ff ff 	.long     0xfffffc00 ->-00001024 

0000023c <flash_read_buf>:
##@@@F_:flash_read_buf():
     23c:	20 38       	CMP       R2, #0			;->0x00
     23e:	09 f0       	JZ        $+9                   ;->0x250
     240:	12 c2       	ADD       R2, R2, R0
     242:	a0 58       	MOV       R5, R0
     244:	40 10       	MOV       R4, #0			;->0x0000
     246:	35 76       	LD.B      R3, [R5++]
     248:	0b eb       	ST.B      [R1 + R4], R3
     24a:	25 c6       	SUB       R4, R5, R0
     24c:	52 70       	CMP       R5, R2
     24e:	fc f1       	JNZ       $-4                   ;->0x246
     250:	1d 5c       	JMP       LR
	...

00000254 <flash_write_doubleword>:
##@@@F_:flash_write_doubleword():
     254:	2d 5d       	PUSH      LR
     256:	08 45       	LD        R5, [PC + #8]         ;->0x274  :=0x10000248
     258:	45 11       	MOV       R4, #21			;->0x0015
     25a:	54 85       	ST.W      [R5], R4
     25c:	40 10       	MOV       R4, #0			;->0x0000
     25e:	6c a0       	ST.W      [R5 + #1], R4
     260:	a8 a0       	ST.W      [R5 + #2], R0
     262:	41 10       	MOV       R4, #1			;->0x0001
     264:	ec a0       	ST.W      [R5 + #3], R4
     266:	29 a1       	ST.W      [R5 + #4], R1
     268:	05 58       	MOV       R0, R5
     26a:	80 00 21 06 	LJMP      $+1569    ;->0xeac  eac <__FLASH_Program_Configuration_RAM_veneer>
     26e:	0d 5d       	POP       LR
     270:	1d 5c       	JMP       LR
     272:	00 00       	NOP      NOP      
     274:	48 02 00 10 	.long     0x10000248 ->268436040  [!!!@2@:SVC       SVC, #72	@@: MOV       R0, #0

00000278 <flash_write_buf>:
##@@@F_:flash_write_buf():
     278:	9f 5f       	PUSH      {R6-R10,LR}
     27a:	e8 30       	SUB       SP, #8			;->0x08
     27c:	20 59       	MOV       R9, R0
     27e:	01 59       	MOV       R8, R1
     280:	72 d0       	ZXT.H     R7, R2
     282:	00 10       	MOV       R0, #0			;->0x0000
     284:	80 00 38 07 	LJMP      $+1848    ;->0x10f4  10f4 <INT_All_Enable>
     288:	02 10       	MOV       R0, #2			;->0x0002
     28a:	70 38       	CMP       R7, #0			;->0x00
     28c:	05 f1       	JNZ       $+5                   ;->0x296
     28e:	e8 28       	ADD       SP, #8			;->0x08
     290:	1f 5e       	POP       {R6-R10}
     292:	0d 5d       	POP       LR
     294:	1d 5c       	JMP       LR
     296:	80 38       	CMP       R8, #0			;->0x00
     298:	fb f0       	JZ        $-5                   ;->0x28e
     29a:	50 10       	MOV       R5, #0			;->0x0000
     29c:	55 68       	NOT       R5, R5
     29e:	45 59       	MOV       R10, R5
     2a0:	ea 85       	ST.W      [SP], R10
     2a2:	aa 58       	MOV       R5, R10
     2a4:	01 25       	ST.W      [SP + #1], R5
     2a6:	c7 58       	MOV       R6, R7
     2a8:	78 38       	CMP       R7, #8			;->0x08
     2aa:	02 f9       	JLS       $+2                   ;->0x2ae
     2ac:	68 10       	MOV       R6, #8			;->0x0008
     2ae:	0e 58       	MOV       R0, SP
     2b0:	28 58       	MOV       R1, R8
     2b2:	46 58       	MOV       R2, R6
     2b4:	80 00 c9 0b 	LJMP      $+3017    ;->0x1a46  1a46 <memcpy>
     2b8:	09 58       	MOV       R0, R9
     2ba:	2e 58       	MOV       R1, SP
     2bc:	9f 00 cc ff 	LJMP      $-52      ;->0x254  254 <flash_write_doubleword>
     2c0:	98 28       	ADD       R9, #8			;->0x08
     2c2:	86 64       	ADD       R8, R6
     2c4:	bf c7       	SUB       R7, R7, R6
     2c6:	77 d0       	ZXT.H     R7, R7
     2c8:	70 38       	CMP       R7, #0			;->0x00
     2ca:	eb f1       	JNZ       $-21                  ;->0x2a0
     2cc:	01 10       	MOV       R0, #1			;->0x0001
     2ce:	80 00 13 07 	LJMP      $+1811    ;->0x10f4  10f4 <INT_All_Enable>
     2d2:	07 58       	MOV       R0, R7
     2d4:	e8 28       	ADD       SP, #8			;->0x08
     2d6:	1f 5e       	POP       {R6-R10}
     2d8:	0d 5d       	POP       LR
     2da:	1d 5c       	JMP       LR

000002dc <flash_write_page>:
##@@@F_:flash_write_page():
##@@@P_:bsp_flash.c:300
##@@@L0295_: * @param  *p_FlashBuffer: ÕŠģÕåÖÕ£░ÕØĆńÜäµĢ░µŹ«µīćķÆł   
##@@@L0296_: * @return * µŚĀ   
##@@@L0297_: * @note ÕåÖflashµ│©µäÅĶ»┤µśÄ’╝ÜķĪĄµō”õ╝ÜµŖŖµīćÕ«ÜÕ£░ÕØĆµēĆÕ£©ńÜäõĖĆķĪĄ128õĖ¬ÕÅīÕŁŚÕ£░ÕØĆ’╝ł1KB’╝ēńÜäµĢ░µŹ«ķāĮµō”ķÖżµÄē’╝īÕŹŖķĪĄń╝¢ń©ŗÕÅ¬ĶāĮ64õĖ¬ÕÅīÕŁŚĶ┐øĶĪīÕåÖµōŹõĮ£’╝īķĪĄÕåÖķ£ĆĶ”üĶ┐øĶĪīõĖżµ¼ĪÕŹŖķĪĄÕåÖŃĆé   
##@@@L0298_: * */   
##@@@L0299_:void flash_write_page(uint32_t address,uint32_t *p_FlashBuffer)   
##@@@L0300_:{   
     2dc:	8f 5f       	PUSH      {R6-R9,LR}
     2de:	e4 30       	SUB       SP, #4			;->0x04
     2e0:	e0 58       	MOV       R7, R0
     2e2:	c1 58       	MOV       R6, R1
##@@@P_:bsp_flash.c:301
##@@@L0301_:	INT_All_Enable(FALSE);   
     2e4:	00 10       	MOV       R0, #0			;->0x0000
     2e6:	80 00 07 07 	LJMP      $+1799    ;->0x10f4  10f4 <INT_All_Enable>
##@@@P_:bsp_flash.c:307
##@@@L0302_:
##@@@L0303_:	volatile uint8_t i;   
##@@@L0304_:	static uint32_t Flash_Buff1[128];   
##@@@L0305_:	static uint32_t Flash_Buff2[128];   
##@@@L0306_:
##@@@L0307_:	flash_erase_page(address);   
     2ea:	07 58       	MOV       R0, R7
     2ec:	9f 00 8a ff 	LJMP      $-118     ;->0x200  200 <flash_erase_page>
##@@@P_:bsp_flash.c:309
##@@@L0308_:
##@@@L0309_:	for (i = 0; i < 128; i++)   
     2f0:	50 10       	MOV       R5, #0			;->0x0000
     2f2:	e5 83       	ST.B      [SP], R5
     2f4:	5e 80       	LD.B      R5, [SP]
     2f6:	55 62       	SXT.B     R5, R5
     2f8:	50 38       	CMP       R5, #0			;->0x00
     2fa:	4d f4       	JMI       $+77                  ;->0x394
     2fc:	a6 58       	MOV       R5, R6
     2fe:	23 42       	LD        R2, [PC + #35]        ;->0x388  :=0x1000025c
##@@@P_:bsp_flash.c:311 (discriminator 2)
##@@@L0310_:	{   
##@@@L0311_:		Flash_Buff1[i] = *p_FlashBuffer;   
     300:	4e 80       	LD.B      R4, [SP]
     302:	35 72       	LD.W      R3, [R5++]
     304:	22 7a       	LSL       R4, #2			;->0x02
     306:	13 ef       	ST.W      [R2 + R4], R3
##@@@P_:bsp_flash.c:312
##@@@L0312_:		p_FlashBuffer++;   
     308:	c5 58       	MOV       R6, R5
##@@@P_:bsp_flash.c:309
##@@@L0304_:	static uint32_t Flash_Buff1[128];   
##@@@L0305_:	static uint32_t Flash_Buff2[128];   
##@@@L0306_:
##@@@L0307_:	flash_erase_page(address);   
##@@@L0308_:
##@@@L0309_:	for (i = 0; i < 128; i++)   
     30a:	4e 80       	LD.B      R4, [SP]
     30c:	64 c0       	ADD       R4, R4, #1
     30e:	44 d1       	ZXT.B     R4, R4
     310:	e4 83       	ST.B      [SP], R4
     312:	4e 80       	LD.B      R4, [SP]
     314:	44 62       	SXT.B     R4, R4
     316:	40 38       	CMP       R4, #0			;->0x00
     318:	f4 f5       	JPL       $-12                  ;->0x300
##@@@P_:bsp_flash.c:315
##@@@L0310_:	{   
##@@@L0311_:		Flash_Buff1[i] = *p_FlashBuffer;   
##@@@L0312_:		p_FlashBuffer++;   
##@@@L0313_:	}   
##@@@L0314_:
##@@@L0315_:	flash_write.m_Mode = FLASH_PROGRAM_HALF_PAGE;//FLASH_PROGRAM_HALF_PAGE //FLASH_PROGRAM_WORD   
     31a:	1d 41       	LD        R1, [PC + #29]        ;->0x38c  :=0x10000248
     31c:	01 59       	MOV       R8, R1
     31e:	55 10       	MOV       R5, #5			;->0x0005
     320:	15 85       	ST.W      [R1], R5
##@@@P_:bsp_flash.c:316
##@@@L0316_:	flash_write.m_Zone = FLASH_PROGRAM_CODE;//FLASH_PROGRAM_CFG  FLASH_PROGRAM_CODE   
     322:	90 10       	MOV       R9, #0			;->0x0000
     324:	89 58       	MOV       R4, R9
     326:	4c a0       	ST.W      [R1 + #1], R4
##@@@P_:bsp_flash.c:317
##@@@L0317_:	flash_write.m_Addr = address;   
     328:	8f a0       	ST.W      [R1 + #2], R7
##@@@P_:bsp_flash.c:318
##@@@L0318_:	flash_write.m_WriteSize = 63;//ÕŹŖķĪĄń╝¢ń©ŗõĖŹÕŠŚõĖ║0’╝īÕ”éµ×£ÕåÖ1’╝ł+1’╝ēÕ«×ķÖģÕåÖńÜäµś»2õĖ¬ÕÅīÕŁŚ ÕŹĢÕŁŚń╝¢ń©ŗµŚĀÕĮ▒ÕōŹ   
     32a:	5f 13       	MOV       R5, #63			;->0x003F
     32c:	cd a0       	ST.W      [R1 + #3], R5
##@@@P_:bsp_flash.c:319
##@@@L0319_:	flash_write.m_Data = Flash_Buff1;   
     32e:	0a a1       	ST.W      [R1 + #4], R2
##@@@P_:bsp_flash.c:320
##@@@L0320_:	FLASH_Program_Configuration_RAM(&flash_write);   
     330:	01 58       	MOV       R0, R1
     332:	80 00 bd 05 	LJMP      $+1469    ;->0xeac  eac <__FLASH_Program_Configuration_RAM_veneer>
##@@@P_:bsp_flash.c:323
##@@@L0321_:
##@@@L0322_:
##@@@L0323_:	for (i = 0; i < 128; i++)   
     336:	e9 83       	ST.B      [SP], R9
     338:	5e 80       	LD.B      R5, [SP]
     33a:	55 62       	SXT.B     R5, R5
     33c:	15 43       	LD        R3, [PC + #21]        ;->0x390  :=0x1000045c
     33e:	50 38       	CMP       R5, #0			;->0x00
     340:	0d f4       	JMI       $+13                  ;->0x35a
##@@@P_:bsp_flash.c:325 (discriminator 2)
##@@@L0324_:	{   
##@@@L0325_:		Flash_Buff2[i] = *p_FlashBuffer;   
     342:	5e 80       	LD.B      R5, [SP]
     344:	46 72       	LD.W      R4, [R6++]
     346:	2a 7a       	LSL       R5, #2			;->0x02
     348:	5c ef       	ST.W      [R3 + R5], R4
##@@@P_:bsp_flash.c:323
##@@@L0318_:	flash_write.m_WriteSize = 63;//ÕŹŖķĪĄń╝¢ń©ŗõĖŹÕŠŚõĖ║0’╝īÕ”éµ×£ÕåÖ1’╝ł+1’╝ēÕ«×ķÖģÕåÖńÜäµś»2õĖ¬ÕÅīÕŁŚ ÕŹĢÕŁŚń╝¢ń©ŗµŚĀÕĮ▒ÕōŹ   
##@@@L0319_:	flash_write.m_Data = Flash_Buff1;   
##@@@L0320_:	FLASH_Program_Configuration_RAM(&flash_write);   
##@@@L0321_:
##@@@L0322_:
##@@@L0323_:	for (i = 0; i < 128; i++)   
     34a:	5e 80       	LD.B      R5, [SP]
     34c:	6d c0       	ADD       R5, R5, #1
     34e:	55 d1       	ZXT.B     R5, R5
     350:	e5 83       	ST.B      [SP], R5
     352:	5e 80       	LD.B      R5, [SP]
     354:	55 62       	SXT.B     R5, R5
     356:	50 38       	CMP       R5, #0			;->0x00
     358:	f5 f5       	JPL       $-11                  ;->0x342
##@@@P_:bsp_flash.c:329
##@@@L0324_:	{   
##@@@L0325_:		Flash_Buff2[i] = *p_FlashBuffer;   
##@@@L0326_:		p_FlashBuffer++;   
##@@@L0327_:	}   
##@@@L0328_:
##@@@L0329_:	flash_write.m_Mode = FLASH_PROGRAM_HALF_PAGE;//FLASH_PROGRAM_HALF_PAGE //FLASH_PROGRAM_WORD   
     35a:	55 10       	MOV       R5, #5			;->0x0005
     35c:	85 85       	ST.W      [R8], R5
##@@@P_:bsp_flash.c:330
##@@@L0330_:	flash_write.m_Zone = FLASH_PROGRAM_CODE;//FLASH_PROGRAM_CFG  FLASH_PROGRAM_CODE   
     35e:	50 10       	MOV       R5, #0			;->0x0000
     360:	28 58       	MOV       R1, R8
     362:	4d a0       	ST.W      [R1 + #1], R5
##@@@P_:bsp_flash.c:331
##@@@L0331_:	flash_write.m_Addr = address + 0x200;   
     364:	51 10       	MOV       R5, #1			;->0x0001
     366:	a9 7a       	LSL       R5, #9			;->0x09
     368:	7f c3       	ADD       R7, R7, R5
     36a:	8f a0       	ST.W      [R1 + #2], R7
##@@@P_:bsp_flash.c:332
##@@@L0332_:	flash_write.m_WriteSize = 63;//ÕŹŖķĪĄń╝¢ń©ŗõĖŹÕŠŚõĖ║0’╝īÕ”éµ×£ÕåÖ1’╝ł+1’╝ēÕ«×ķÖģÕåÖńÜäµś»2õĖ¬ÕÅīÕŁŚ ÕŹĢÕŁŚń╝¢ń©ŗµŚĀÕĮ▒ÕōŹ   
     36c:	5f 13       	MOV       R5, #63			;->0x003F
     36e:	cd a0       	ST.W      [R1 + #3], R5
##@@@P_:bsp_flash.c:333
##@@@L0333_:	flash_write.m_Data = Flash_Buff2;   
     370:	0b a1       	ST.W      [R1 + #4], R3
##@@@P_:bsp_flash.c:334
##@@@L0334_:	FLASH_Program_Configuration_RAM(&flash_write);   
     372:	07 40       	LD        R0, [PC + #7]         ;->0x38c  :=0x10000248
     374:	80 00 9c 05 	LJMP      $+1436    ;->0xeac  eac <__FLASH_Program_Configuration_RAM_veneer>
##@@@P_:bsp_flash.c:336
##@@@L0335_:	   
##@@@L0336_:	INT_All_Enable(TRUE);   
     378:	01 10       	MOV       R0, #1			;->0x0001
     37a:	80 00 bd 06 	LJMP      $+1725    ;->0x10f4  10f4 <INT_All_Enable>
##@@@P_:bsp_flash.c:338
##@@@L0337_:
##@@@L0338_:}   
     37e:	e4 28       	ADD       SP, #4			;->0x04
     380:	0f 5e       	POP       {R6-R9}
     382:	0d 5d       	POP       LR
     384:	1d 5c       	JMP       LR
     386:	00 00       	NOP      NOP      
     388:	5c 02 00 10 	.long     0x1000025c ->268436060  [!!!@2@:SVC       SVC, #92	@@: MOV       R0, #0
     38c:	48 02 00 10 	.long     0x10000248 ->268436040  [!!!@2@:SVC       SVC, #72	@@: MOV       R0, #0
     390:	5c 04 00 10 	.long     0x1000045c ->268436572  [!!!@2@:SJMP      $+92                  ;->0x448	@@: MOV       R0, #0
     394:	01 42       	LD        R2, [PC + #1]         ;->0x398  :=0x1000025c
     396:	c2 07       	SJMP      $-62                  ;->0x31a
     398:	5c 02 00 10 	.long     0x1000025c ->268436060  [!!!@2@:SVC       SVC, #92	@@: MOV       R0, #0

0000039c <systick_timer_init>:
##@@@F_:systick_timer_init():
##@@@P_:bsp_systick.c:6
##@@@L0001_:#include "system_init.h"   
##@@@L0002_:
##@@@L0003_:static volatile uint32_t systick_tick_count = 0;   
##@@@L0004_:
##@@@L0005_:void systick_timer_init(uint32_t Reload)   
##@@@L0006_:{   
     39c:	2d 5d       	PUSH      LR
     39e:	40 58       	MOV       R2, R0
##@@@P_:bsp_systick.c:7
##@@@L0007_:	SYSTICK_Configuration(SYSTICK_SYS_CLOCK_DIV_1, TRUE, Reload);   
     3a0:	04 10       	MOV       R0, #4			;->0x0004
     3a2:	11 10       	MOV       R1, #1			;->0x0001
     3a4:	80 00 2e 08 	LJMP      $+2094    ;->0x1400  1400 <SYSTICK_Configuration>
##@@@P_:bsp_systick.c:8
##@@@L0008_:    SYSTICK_Cmd(TRUE);   
     3a8:	01 10       	MOV       R0, #1			;->0x0001
     3aa:	80 00 3b 08 	LJMP      $+2107    ;->0x1420  1420 <SYSTICK_Cmd>
##@@@P_:bsp_systick.c:9
##@@@L0009_:    INT_Interrupt_Enable(INT_SysTick, TRUE);   
     3ae:	0f 10       	MOV       R0, #15			;->0x000F
     3b0:	11 10       	MOV       R1, #1			;->0x0001
     3b2:	80 00 ab 06 	LJMP      $+1707    ;->0x1108  1108 <INT_Interrupt_Enable>
##@@@P_:bsp_systick.c:10
##@@@L0010_:    INT_All_Enable(TRUE);   
     3b6:	01 10       	MOV       R0, #1			;->0x0001
     3b8:	80 00 9e 06 	LJMP      $+1694    ;->0x10f4  10f4 <INT_All_Enable>
##@@@P_:bsp_systick.c:11
##@@@L0011_:}   
     3bc:	0d 5d       	POP       LR
     3be:	1d 5c       	JMP       LR

000003c0 <systick_tick_cnt_up>:
##@@@F_:systick_tick_cnt_up():
##@@@P_:bsp_systick.c:15
##@@@L0012_:
##@@@L0013_:void systick_tick_cnt_up(void)   
##@@@L0014_:{   
##@@@L0015_:    systick_tick_count++;   
     3c0:	03 45       	LD        R5, [PC + #3]         ;->0x3cc  :=0x1000065c
     3c2:	45 82       	LD.W      R4, [R5]
     3c4:	64 c0       	ADD       R4, R4, #1
     3c6:	54 85       	ST.W      [R5], R4
##@@@P_:bsp_systick.c:16
##@@@L0016_:}   
     3c8:	1d 5c       	JMP       LR
     3ca:	00 00       	NOP      NOP      
     3cc:	5c 06 00 10 	.long     0x1000065c ->268437084  [!!!@2@:SJMP      $-420                 ;->0x84	@@: MOV       R0, #0

000003d0 <systick_tick_get>:
##@@@F_:systick_tick_get():
##@@@P_:bsp_systick.c:22
##@@@L0017_:
##@@@L0018_:uint32_t systick_tick_get(void)   
##@@@L0019_:{   
##@@@L0020_:    /* Ķ┐öÕø×ÕĮōÕēŹńÜäµ╗┤ńŁöĶ«ĪµĢ░ÕĆ╝ */   
##@@@L0021_:    /* volatileńĪ«õ┐Øµ»Åµ¼ĪķāĮõ╗ÄÕåģÕŁśĶ»╗ÕÅ¢µ£Ćµ¢░ÕĆ╝’╝īõĖŹõ╝ÜĶó½ń╝¢Ķ»æÕÖ©õ╝śÕī¢ */   
##@@@L0022_:    return systick_tick_count;   
     3d0:	02 45       	LD        R5, [PC + #2]         ;->0x3d8  :=0x1000065c
     3d2:	05 82       	LD.W      R0, [R5]
##@@@P_:bsp_systick.c:23
##@@@L0023_:}   
     3d4:	1d 5c       	JMP       LR
     3d6:	00 00       	NOP      NOP      
     3d8:	5c 06 00 10 	.long     0x1000065c ->268437084  [!!!@2@:SJMP      $-420                 ;->0x90	@@: MOV       R0, #0

000003dc <ee_format_page>:
##@@@F_:ee_format_page():
##@@@P_:flash_eeprom.c:275
##@@@L0270_:    {   
##@@@L0271_:        return ret;   
##@@@L0272_:    }   
##@@@L0273_:
##@@@L0274_:    ret = ee_init_section(EEPROM_SEC_OTA_FLAG);   
##@@@L0275_:    return ret;   
     3dc:	81 5f       	PUSH      {R6,LR}
     3de:	e4 30       	SUB       SP, #4			;->0x04
     3e0:	c0 58       	MOV       R6, R0
     3e2:	07 45       	LD        R5, [PC + #7]         ;->0x3fc  :=0xaa55bbcc
     3e4:	e5 85       	ST.W      [SP], R5
     3e6:	9f 00 0d ff 	LJMP      $-243     ;->0x200  200 <flash_erase_page>
     3ea:	06 58       	MOV       R0, R6
     3ec:	2e 58       	MOV       R1, SP
     3ee:	24 10       	MOV       R2, #4			;->0x0004
     3f0:	9f 00 44 ff 	LJMP      $-188     ;->0x278  278 <flash_write_buf>
     3f4:	e4 28       	ADD       SP, #4			;->0x04
     3f6:	06 5d       	POP       R6
     3f8:	0d 5d       	POP       LR
     3fa:	1d 5c       	JMP       LR
     3fc:	cc bb 55 aa 	.long     0xaa55bbcc ->-1437221940  [!!!@2@:STP.W     [R4], R1 << #3	@@: LD.H      R2, [R5 + #9]

00000400 <ee_init_section.part.0>:
##@@@F_:ee_init_section():
     400:	ff 5f       	PUSH      {R6-R12,LR}
     402:	e0 31       	SUB       SP, #16			;->0x10
     404:	58 11       	MOV       R5, #24			;->0x0018
     406:	68 cb       	MULS      R5, R0, R5
     408:	00 00       	NOP      NOP      
     40a:	03 25       	ST.W      [SP + #3], R5
     40c:	38 41       	LD        R1, [PC + #56]        ;->0x4ec  :=0x10000660
     40e:	6d c2       	ADD       R5, R5, R1
     410:	05 59       	MOV       R8, R5
     412:	38 45       	LD        R5, [PC + #56]        ;->0x4f0  :=0x1fec
     414:	03 7a       	LSL       R0, #3			;->0x03
     416:	25 c2       	ADD       R4, R5, R0
     418:	05 e8       	LD.W      R0, [R5 + R0]
     41a:	03 0a       	LD.W      R2, [SP + #3]
     41c:	50 ee       	ST.W      [R2 + R1], R0
     41e:	7c 98       	LD.W      R7, [R4 + #1]
     420:	68 58       	MOV       R3, R8
     422:	5f a0       	ST.W      [R3 + #1], R7
     424:	ba 7c       	LSR       R7, #10			;->0x0A
     426:	9f a0       	ST.W      [R3 + #2], R7
     428:	50 10       	MOV       R5, #0			;->0x0000
     42a:	85 58       	MOV       R4, R5
     42c:	dd a0       	ST.W      [R3 + #3], R5
     42e:	1d a1       	ST.W      [R3 + #4], R5
     430:	51 10       	MOV       R5, #1			;->0x0001
     432:	9d b2       	ST.H      [R3 + #10], R5
     434:	74 70       	CMP       R7, R4
     436:	6a f0       	JZ        $+106                 ;->0x50a
     438:	67 58       	MOV       R3, R7
     43a:	9a 7a       	LSL       R3, #10			;->0x0A
     43c:	23 59       	MOV       R9, R3
     43e:	b1 10       	MOV       R11, #1			;->0x0001
     440:	da 7a       	LSL       R11, #10			;->0x0A
     442:	2d 44       	LD        R4, [PC + #45]        ;->0x4f4  :=0xaa55bbcc
     444:	84 59       	MOV       R12, R4
     446:	06 04       	SJMP      $+6                   ;->0x452
     448:	7f cc       	SUB       R7, R7, #1
     44a:	9b 66       	SUB       R9, R11
     44c:	70 38       	CMP       R7, #0			;->0x00
     44e:	5b f0       	JZ        $+91                  ;->0x504
     450:	08 82       	LD.W      R0, [R8]
     452:	a9 58       	MOV       R5, R9
     454:	35 c2       	ADD       R6, R5, R0
     456:	26 58       	MOV       R1, R6
     458:	1b 66       	SUB       R1, R11
     45a:	41 59       	MOV       R10, R1
     45c:	01 58       	MOV       R0, R1
     45e:	2e 58       	MOV       R1, SP
     460:	18 28       	ADD       R1, #8			;->0x08
     462:	24 10       	MOV       R2, #4			;->0x0004
     464:	9f 00 ec fe 	LJMP      $-276     ;->0x23c  23c <flash_read_buf>
     468:	02 0d       	LD.W      R5, [SP + #2]
     46a:	5c 70       	CMP       R5, R12
     46c:	ee f1       	JNZ       $-18                  ;->0x448
     46e:	8a 58       	MOV       R4, R10
     470:	48 58       	MOV       R2, R8
     472:	d4 a0       	ST.W      [R2 + #3], R4
##@@@F_:ee_scan_page():
     474:	21 45       	LD        R5, [PC + #33]        ;->0x4f8  :=0x3f8
     476:	7e c7       	SUB       R7, R6, R5
     478:	90 10       	MOV       R9, #0			;->0x0000
     47a:	19 68       	NOT       R1, R9
     47c:	41 59       	MOV       R10, R1
     47e:	20 42       	LD        R2, [PC + #32]        ;->0x4fc  :=0x55aa33cc
     480:	62 59       	MOV       R11, R2
     482:	85 59       	MOV       R12, R5
     484:	28 10       	MOV       R2, #8			;->0x0008
     486:	af c2       	ADD       R5, R7, R2
     488:	56 70       	CMP       R5, R6
     48a:	25 f8       	JHI       $+37                  ;->0x4d4
     48c:	07 58       	MOV       R0, R7
     48e:	2e 58       	MOV       R1, SP
     490:	28 10       	MOV       R2, #8			;->0x0008
     492:	9f 00 d5 fe 	LJMP      $-299     ;->0x23c  23c <flash_read_buf>
     496:	5e 82       	LD.W      R5, [SP]
     498:	5a 70       	CMP       R5, R10
     49a:	56 f0       	JZ        $+86                  ;->0x546
     49c:	5b 70       	CMP       R5, R11
     49e:	56 f1       	JNZ       $+86                  ;->0x54a
     4a0:	a3 e0       	LD.H      R5, [SP + #3]
     4a2:	50 38       	CMP       R5, #0			;->0x00
     4a4:	18 f0       	JZ        $+24                  ;->0x4d4
     4a6:	ed c1       	ADD       R5, R5, #7
     4a8:	17 10       	MOV       R1, #7			;->0x0007
     4aa:	11 68       	NOT       R1, R1
     4ac:	6d d4       	ANL       R5, R5, R1
     4ae:	58 28       	ADD       R5, #8			;->0x08
     4b0:	5c 70       	CMP       R5, R12
     4b2:	43 f8       	JHI       $+67                  ;->0x538
     4b4:	7f c3       	ADD       R7, R7, R5
     4b6:	76 70       	CMP       R7, R6
     4b8:	40 f8       	JHI       $+64                  ;->0x538
     4ba:	a2 e0       	LD.H      R5, [SP + #2]
     4bc:	65 cc       	SUB       R4, R5, #1
     4be:	44 d0       	ZXT.H     R4, R4
     4c0:	10 41       	LD        R1, [PC + #16]        ;->0x500  :=0xfffd
     4c2:	41 70       	CMP       R4, R1
     4c4:	e0 f8       	JHI       $-32                  ;->0x484
     4c6:	59 70       	CMP       R5, R9
     4c8:	de f9       	JLS       $-34                  ;->0x484
     4ca:	25 59       	MOV       R9, R5
     4cc:	28 10       	MOV       R2, #8			;->0x0008
     4ce:	af c2       	ADD       R5, R7, R2
     4d0:	56 70       	CMP       R5, R6
     4d2:	dd f9       	JLS       $-35                  ;->0x48c
     4d4:	a6 58       	MOV       R5, R6
     4d6:	68 58       	MOV       R3, R8
     4d8:	1d a1       	ST.W      [R3 + #4], R5
     4da:	29 58       	MOV       R1, R9
     4dc:	69 c0       	ADD       R5, R1, #1
     4de:	9d b2       	ST.H      [R3 + #10], R5
##@@@F_:ee_init_section():
     4e0:	00 10       	MOV       R0, #0			;->0x0000
     4e2:	e0 29       	ADD       SP, #16			;->0x10
     4e4:	7f 5e       	POP       {R6-R12}
     4e6:	0d 5d       	POP       LR
     4e8:	1d 5c       	JMP       LR
     4ea:	00 00       	NOP      NOP      
     4ec:	60 06 00 10 	.long     0x10000660 ->268437088  [!!!@2@:SJMP      $-416                 ;->0x1ac	@@: MOV       R0, #0
     4f0:	ec 1f 00 00 	.long     0x00001fec ->000008172  [!!!@2@:MOV       SP, #252	@@: NOP      
     4f4:	cc bb 55 aa 	.long     0xaa55bbcc ->-1437221940  [!!!@2@:STP.W     [R4], R1 << #3	@@: LD.H      R2, [R5 + #9]
     4f8:	f8 03 00 00 	.long     0x000003f8 ->000001016  [!!!@4@:JMP       $-524288              ;->0xfff004f8
     4fc:	cc 33 aa 55 	.long     0x55aa33cc ->1437217740  [!!!@2@:SUB       R12, #60	@@: JB        R5, #26
     500:	fd ff 00 00 	.long     0x0000fffd ->000065533 
     504:	03 0d       	LD.W      R5, [SP + #3]
     506:	0c 41       	LD        R1, [PC + #12]        ;->0x534  :=0x10000660
     508:	45 e8       	LD.W      R0, [R5 + R1]
     50a:	9f 00 69 ff 	LJMP      $-151     ;->0x3dc  3dc <ee_format_page>
     50e:	a0 58       	MOV       R5, R0
     510:	05 10       	MOV       R0, #5			;->0x0005
     512:	50 38       	CMP       R5, #0			;->0x00
     514:	e7 f1       	JNZ       $-25                  ;->0x4e2
     516:	03 0a       	LD.W      R2, [SP + #3]
     518:	07 43       	LD        R3, [PC + #7]         ;->0x534  :=0x10000660
     51a:	e2 e8       	LD.W      R4, [R2 + R3]
     51c:	28 58       	MOV       R1, R8
     51e:	cc a0       	ST.W      [R1 + #3], R4
     520:	48 28       	ADD       R4, #8			;->0x08
     522:	0c a1       	ST.W      [R1 + #4], R4
     524:	41 10       	MOV       R4, #1			;->0x0001
     526:	8c b2       	ST.H      [R1 + #10], R4
     528:	05 58       	MOV       R0, R5
     52a:	e0 29       	ADD       SP, #16			;->0x10
     52c:	7f 5e       	POP       {R6-R12}
     52e:	0d 5d       	POP       LR
     530:	1d 5c       	JMP       LR
     532:	00 00       	NOP      NOP      
     534:	60 06 00 10 	.long     0x10000660 ->268437088  [!!!@2@:SJMP      $-416                 ;->0x1f4	@@: MOV       R0, #0
##@@@F_:ee_scan_page():
     538:	48 58       	MOV       R2, R8
     53a:	16 a1       	ST.W      [R2 + #4], R6
     53c:	29 58       	MOV       R1, R9
     53e:	69 c0       	ADD       R5, R1, #1
     540:	95 b2       	ST.H      [R2 + #10], R5
##@@@F_:ee_init_section():
     542:	00 10       	MOV       R0, #0			;->0x0000
     544:	cf 07       	SJMP      $-49                  ;->0x4e2
##@@@F_:ee_scan_page():
     546:	a7 58       	MOV       R5, R7
     548:	c7 07       	SJMP      $-57                  ;->0x4d6
     54a:	a8 58       	MOV       R5, R8
     54c:	2e a1       	ST.W      [R5 + #4], R6
     54e:	69 58       	MOV       R3, R9
     550:	6b c0       	ADD       R5, R3, #1
     552:	88 58       	MOV       R4, R8
     554:	a5 b2       	ST.H      [R4 + #10], R5
##@@@F_:ee_init_section():
     556:	00 10       	MOV       R0, #0			;->0x0000
     558:	c5 07       	SJMP      $-59                  ;->0x4e2
	...

0000055c <ee_write_record>:
##@@@F_:ee_write_record():
     55c:	87 5f       	PUSH      {R6-R8,LR}
     55e:	e8 30       	SUB       SP, #8			;->0x08
     560:	c0 58       	MOV       R6, R0
     562:	e2 58       	MOV       R7, R2
     564:	20 99       	LD.W      R4, [R0 + #4]
     566:	04 59       	MOV       R8, R4
     568:	08 45       	LD        R5, [PC + #8]         ;->0x588  :=0x55aa33cc
     56a:	e5 85       	ST.W      [SP], R5
     56c:	a8 aa       	LD.H      R5, [R0 + #10]
     56e:	a2 e2       	ST.H      [SP + #2], R5
     570:	43 e2       	ST.H      [SP + #3], R2
     572:	04 58       	MOV       R0, R4
     574:	08 28       	ADD       R0, #8			;->0x08
     576:	9f 00 81 fe 	LJMP      $-383     ;->0x278  278 <flash_write_buf>
     57a:	00 38       	CMP       R0, #0			;->0x00
     57c:	08 f0       	JZ        $+8                   ;->0x58c
     57e:	05 10       	MOV       R0, #5			;->0x0005
     580:	e8 28       	ADD       SP, #8			;->0x08
     582:	07 5e       	POP       {R6-R8}
     584:	0d 5d       	POP       LR
     586:	1d 5c       	JMP       LR
     588:	cc 33 aa 55 	.long     0x55aa33cc ->1437217740  [!!!@2@:SUB       R12, #60	@@: JB        R5, #26
     58c:	08 58       	MOV       R0, R8
     58e:	2e 58       	MOV       R1, SP
     590:	28 10       	MOV       R2, #8			;->0x0008
     592:	9f 00 73 fe 	LJMP      $-397     ;->0x278  278 <flash_write_buf>
     596:	00 38       	CMP       R0, #0			;->0x00
     598:	f3 f1       	JNZ       $-13                  ;->0x57e
     59a:	2e 99       	LD.W      R5, [R6 + #4]
     59c:	58 28       	ADD       R5, #8			;->0x08
     59e:	ff c1       	ADD       R7, R7, #7
     5a0:	47 10       	MOV       R4, #7			;->0x0007
     5a2:	44 68       	NOT       R4, R4
     5a4:	3f d5       	ANL       R7, R7, R4
     5a6:	fd c3       	ADD       R7, R5, R7
     5a8:	37 a1       	ST.W      [R6 + #4], R7
     5aa:	a6 aa       	LD.H      R4, [R6 + #10]
     5ac:	6c c0       	ADD       R5, R4, #1
     5ae:	b5 b2       	ST.H      [R6 + #10], R5
     5b0:	e8 07       	SJMP      $-24                  ;->0x580
	...

000005b4 <ee_save>:
##@@@F_:ee_save():
##@@@P_:flash_eeprom.c:287
##@@@L0282_: * @param  len: ķ£ĆĶ”üõ┐ØÕŁśńÜäµĢ░µŹ«ķĢ┐Õ║”’╝īÕŹĢõĮŹõĖ║ÕŁŚĶŖé   
##@@@L0283_: * @return EEPROM_OKĶĪ©ńż║µłÉÕŖ¤’╝īÕģČõ╗¢ÕĆ╝ĶĪ©ńż║õ┐ØÕŁśÕż▒Ķ┤ź   
##@@@L0284_: * @note   µ£¼ÕćĮµĢ░ķććńö©Ķ┐ĮÕŖĀÕåÖÕģź’╝øÕĮōÕēŹķĪĄń®║ķŚ┤õĖŹĶČ│µŚČÕłćµŹóÕł░õĖŗõĖĆń®║ķĪĄ’╝īÕłåÕī║ÕåÖµ╗ĪÕÉÄĶ¦”ÕÅæÕ×āÕ£ŠÕø×µöČ   
##@@@L0285_: */   
##@@@L0286_:uint8_t ee_save(eeprom_sec_t sec, const void *data, uint16_t len)   
##@@@L0287_:{   
     5b4:	ff 5f       	PUSH      {R6-R12,LR}
     5b6:	e8 30       	SUB       SP, #8			;->0x08
     5b8:	e1 58       	MOV       R7, R1
     5ba:	62 d0       	ZXT.H     R6, R2
##@@@P_:flash_eeprom.c:292
##@@@L0288_:    eeprom_sec_info_t *sec_info;   
##@@@L0289_:    uint32_t page_index;   
##@@@L0290_:    uint8_t ret;   
##@@@L0291_:
##@@@L0292_:    if ((data == 0) || (len == 0))   
     5bc:	10 38       	CMP       R1, #0			;->0x00
     5be:	0b f0       	JZ        $+11                  ;->0x5d4
##@@@P_:flash_eeprom.c:292 (discriminator 1)
     5c0:	60 38       	CMP       R6, #0			;->0x00
     5c2:	09 f0       	JZ        $+9                   ;->0x5d4
##@@@P_:flash_eeprom.c:299
##@@@L0294_:        return EEPROM_ERR_PARAM;   
##@@@L0295_:    }   
##@@@L0296_:
##@@@L0297_:    if ((uint32_t)sec >= SEC_MAX)   
##@@@L0298_:    {   
##@@@L0299_:        return EEPROM_ERR_SEC;   
     5c4:	52 10       	MOV       R5, #2			;->0x0002
##@@@P_:flash_eeprom.c:297
##@@@L0292_:    if ((data == 0) || (len == 0))   
##@@@L0293_:    {   
##@@@L0294_:        return EEPROM_ERR_PARAM;   
##@@@L0295_:    }   
##@@@L0296_:
##@@@L0297_:    if ((uint32_t)sec >= SEC_MAX)   
     5c6:	03 38       	CMP       R0, #3			;->0x03
     5c8:	0c f9       	JLS       $+12                  ;->0x5e0
##@@@P_:flash_eeprom.c:350
##@@@L0345_:        }   
##@@@L0346_:    }   
##@@@L0347_:
##@@@L0348_:    ret = ee_write_record(sec_info, data, len);   
##@@@L0349_:    return ret;   
##@@@L0350_:}   
     5ca:	05 58       	MOV       R0, R5
     5cc:	e8 28       	ADD       SP, #8			;->0x08
     5ce:	7f 5e       	POP       {R6-R12}
     5d0:	0d 5d       	POP       LR
     5d2:	1d 5c       	JMP       LR
##@@@F_:ee_gc_section():
##@@@P_:flash_eeprom.c:294
##@@@L0289_:    uint32_t page_index;   
##@@@L0290_:    uint8_t ret;   
##@@@L0291_:
##@@@L0292_:    if ((data == 0) || (len == 0))   
##@@@L0293_:    {   
##@@@L0294_:        return EEPROM_ERR_PARAM;   
     5d4:	51 10       	MOV       R5, #1			;->0x0001
##@@@F_:ee_save():
##@@@P_:flash_eeprom.c:350
##@@@L0345_:        }   
##@@@L0346_:    }   
##@@@L0347_:
##@@@L0348_:    ret = ee_write_record(sec_info, data, len);   
##@@@L0349_:    return ret;   
##@@@L0350_:}   
     5d6:	05 58       	MOV       R0, R5
     5d8:	e8 28       	ADD       SP, #8			;->0x08
     5da:	7f 5e       	POP       {R6-R12}
     5dc:	0d 5d       	POP       LR
     5de:	1d 5c       	JMP       LR
##@@@P_:flash_eeprom.c:302
##@@@L0297_:    if ((uint32_t)sec >= SEC_MAX)   
##@@@L0298_:    {   
##@@@L0299_:        return EEPROM_ERR_SEC;   
##@@@L0300_:    }   
##@@@L0301_:
##@@@L0302_:    sec_info = &ee_sec_info[sec];   
     5e0:	58 11       	MOV       R5, #24			;->0x0018
     5e2:	68 cb       	MULS      R5, R0, R5
     5e4:	00 00       	NOP      NOP      
     5e6:	01 25       	ST.W      [SP + #1], R5
     5e8:	3c 41       	LD        R1, [PC + #60]        ;->0x6d8  :=0x10000660
     5ea:	6d c2       	ADD       R5, R5, R1
     5ec:	05 59       	MOV       R8, R5
##@@@P_:flash_eeprom.c:303
##@@@L0303_:    if ((sec_info->page_count == 0) || (sec_info->active_page_addr == 0))   
     5ee:	45 58       	MOV       R2, R5
     5f0:	ad 98       	LD.W      R5, [R5 + #2]
     5f2:	50 38       	CMP       R5, #0			;->0x00
     5f4:	04 f0       	JZ        $+4                   ;->0x5fc
##@@@P_:flash_eeprom.c:303 (discriminator 1)
     5f6:	ea 98       	LD.W      R5, [R2 + #3]
     5f8:	50 38       	CMP       R5, #0			;->0x00
     5fa:	06 f1       	JNZ       $+6                   ;->0x606
     5fc:	9f 00 02 ff 	LJMP      $-254     ;->0x400  400 <ee_init_section.part.0>
##@@@P_:flash_eeprom.c:307
##@@@L0304_:    {   
##@@@L0305_:        if (ee_init_section(sec) != EEPROM_OK)   
##@@@L0306_:        {   
##@@@L0307_:            return EEPROM_ERR_FLASH;   
     600:	55 10       	MOV       R5, #5			;->0x0005
##@@@P_:flash_eeprom.c:305
##@@@L0300_:    }   
##@@@L0301_:
##@@@L0302_:    sec_info = &ee_sec_info[sec];   
##@@@L0303_:    if ((sec_info->page_count == 0) || (sec_info->active_page_addr == 0))   
##@@@L0304_:    {   
##@@@L0305_:        if (ee_init_section(sec) != EEPROM_OK)   
     602:	00 38       	CMP       R0, #0			;->0x00
     604:	e3 f1       	JNZ       $-29                  ;->0x5ca
##@@@P_:flash_eeprom.c:311
##@@@L0306_:        {   
##@@@L0307_:            return EEPROM_ERR_FLASH;   
##@@@L0308_:        }   
##@@@L0309_:    }   
##@@@L0310_:
##@@@L0311_:    if (RECORD_SIZE(len) > (FLASH_PAGE_SIZE - PAGE_HEAD_SIZE))   
     606:	e6 c1       	ADD       R4, R6, #7
     608:	57 10       	MOV       R5, #7			;->0x0007
     60a:	55 68       	NOT       R5, R5
     60c:	6c d5       	ANL       R5, R4, R5
     60e:	48 10       	MOV       R4, #8			;->0x0008
     610:	1d c3       	ADD       R3, R5, R4
     612:	33 44       	LD        R4, [PC + #51]        ;->0x6dc  :=0x3f8
     614:	34 70       	CMP       R3, R4
     616:	df f8       	JHI       $-33                  ;->0x5d4
##@@@P_:flash_eeprom.c:316
##@@@L0312_:    {   
##@@@L0313_:        return EEPROM_ERR_PARAM;   
##@@@L0314_:    }   
##@@@L0315_:
##@@@L0316_:    if ((sec_info->write_addr + RECORD_SIZE(len)) > (sec_info->active_page_addr + FLASH_PAGE_SIZE))   
     618:	28 58       	MOV       R1, R8
     61a:	e1 98       	LD.W      R4, [R1 + #3]
     61c:	19 99       	LD.W      R3, [R1 + #4]
     61e:	38 28       	ADD       R3, #8			;->0x08
     620:	6b c3       	ADD       R5, R3, R5
     622:	31 10       	MOV       R3, #1			;->0x0001
     624:	9a 7a       	LSL       R3, #10			;->0x0A
     626:	d4 c2       	ADD       R2, R4, R3
     628:	52 70       	CMP       R5, R2
     62a:	32 f9       	JLS       $+50                  ;->0x68e
##@@@P_:flash_eeprom.c:318
##@@@L0317_:    {   
##@@@L0318_:        for (page_index = ((sec_info->active_page_addr - sec_info->start_addr) / FLASH_PAGE_SIZE) + 1;   
     62c:	01 0a       	LD.W      R2, [SP + #1]
     62e:	2b 45       	LD        R5, [PC + #43]        ;->0x6d8  :=0x10000660
     630:	42 e9       	LD.W      R0, [R2 + R5]
     632:	24 c6       	SUB       R4, R4, R0
     634:	24 59       	MOV       R9, R4
     636:	ca 7c       	LSR       R9, #10			;->0x0A
     638:	91 28       	ADD       R9, #1			;->0x01
     63a:	a9 98       	LD.W      R5, [R1 + #2]
     63c:	59 70       	CMP       R5, R9
     63e:	32 f9       	JLS       $+50                  ;->0x6a2
     640:	29 58       	MOV       R1, R9
     642:	8a 7a       	LSL       R1, #10			;->0x0A
     644:	41 59       	MOV       R10, R1
##@@@P_:flash_eeprom.c:328
##@@@L0323_:            uint32_t page_flg;   
##@@@L0324_:
##@@@L0325_:            page_addr = sec_info->start_addr + (page_index * FLASH_PAGE_SIZE);   
##@@@L0326_:            flash_read_buf(page_addr, (uint8_t *)&page_flg, sizeof(page_flg));   
##@@@L0327_:
##@@@L0328_:            if (page_flg == PAGE_FREE)   
     646:	20 10       	MOV       R2, #0			;->0x0000
     648:	22 68       	NOT       R2, R2
     64a:	82 59       	MOV       R12, R2
     64c:	0a 04       	SJMP      $+10                  ;->0x660
##@@@P_:flash_eeprom.c:320
##@@@L0315_:
##@@@L0316_:    if ((sec_info->write_addr + RECORD_SIZE(len)) > (sec_info->active_page_addr + FLASH_PAGE_SIZE))   
##@@@L0317_:    {   
##@@@L0318_:        for (page_index = ((sec_info->active_page_addr - sec_info->start_addr) / FLASH_PAGE_SIZE) + 1;   
##@@@L0319_:             page_index < sec_info->page_count;   
##@@@L0320_:             page_index++)   
     64e:	91 28       	ADD       R9, #1			;->0x01
     650:	31 10       	MOV       R3, #1			;->0x0001
     652:	9a 7a       	LSL       R3, #10			;->0x0A
     654:	a3 64       	ADD       R10, R3
##@@@P_:flash_eeprom.c:318
##@@@L0313_:        return EEPROM_ERR_PARAM;   
##@@@L0314_:    }   
##@@@L0315_:
##@@@L0316_:    if ((sec_info->write_addr + RECORD_SIZE(len)) > (sec_info->active_page_addr + FLASH_PAGE_SIZE))   
##@@@L0317_:    {   
##@@@L0318_:        for (page_index = ((sec_info->active_page_addr - sec_info->start_addr) / FLASH_PAGE_SIZE) + 1;   
     656:	88 58       	MOV       R4, R8
     658:	ac 98       	LD.W      R5, [R4 + #2]
     65a:	59 70       	CMP       R5, R9
     65c:	20 f9       	JLS       $+32                  ;->0x69c
     65e:	08 82       	LD.W      R0, [R8]
##@@@P_:flash_eeprom.c:325
##@@@L0320_:             page_index++)   
##@@@L0321_:        {   
##@@@L0322_:            uint32_t page_addr;   
##@@@L0323_:            uint32_t page_flg;   
##@@@L0324_:
##@@@L0325_:            page_addr = sec_info->start_addr + (page_index * FLASH_PAGE_SIZE);   
     660:	0a 64       	ADD       R0, R10
     662:	60 59       	MOV       R11, R0
##@@@P_:flash_eeprom.c:326
##@@@L0326_:            flash_read_buf(page_addr, (uint8_t *)&page_flg, sizeof(page_flg));   
     664:	2e 58       	MOV       R1, SP
     666:	24 10       	MOV       R2, #4			;->0x0004
     668:	9f 00 ea fd 	LJMP      $-534     ;->0x23c  23c <flash_read_buf>
##@@@P_:flash_eeprom.c:328
##@@@L0327_:
##@@@L0328_:            if (page_flg == PAGE_FREE)   
     66c:	5e 82       	LD.W      R5, [SP]
     66e:	5c 70       	CMP       R5, R12
     670:	ef f1       	JNZ       $-17                  ;->0x64e
##@@@P_:flash_eeprom.c:330
##@@@L0329_:            {   
##@@@L0330_:                if (ee_format_page(page_addr) != 0)   
     672:	0b 58       	MOV       R0, R11
     674:	9f 00 b4 fe 	LJMP      $-332     ;->0x3dc  3dc <ee_format_page>
##@@@P_:flash_eeprom.c:332
##@@@L0331_:                {   
##@@@L0332_:                    return EEPROM_ERR_FLASH;   
     678:	55 10       	MOV       R5, #5			;->0x0005
##@@@P_:flash_eeprom.c:330
##@@@L0325_:            page_addr = sec_info->start_addr + (page_index * FLASH_PAGE_SIZE);   
##@@@L0326_:            flash_read_buf(page_addr, (uint8_t *)&page_flg, sizeof(page_flg));   
##@@@L0327_:
##@@@L0328_:            if (page_flg == PAGE_FREE)   
##@@@L0329_:            {   
##@@@L0330_:                if (ee_format_page(page_addr) != 0)   
     67a:	00 38       	CMP       R0, #0			;->0x00
     67c:	a7 f1       	JNZ       $-89                  ;->0x5ca
##@@@P_:flash_eeprom.c:335
##@@@L0331_:                {   
##@@@L0332_:                    return EEPROM_ERR_FLASH;   
##@@@L0333_:                }   
##@@@L0334_:
##@@@L0335_:                sec_info->active_page_addr = page_addr;   
     67e:	ab 58       	MOV       R5, R11
     680:	68 58       	MOV       R3, R8
     682:	dd a0       	ST.W      [R3 + #3], R5
##@@@P_:flash_eeprom.c:336
##@@@L0336_:                sec_info->write_addr = page_addr + PAGE_HEAD_SIZE;   
     684:	58 28       	ADD       R5, #8			;->0x08
     686:	1d a1       	ST.W      [R3 + #4], R5
##@@@P_:flash_eeprom.c:341
##@@@L0337_:                break;   
##@@@L0338_:            }   
##@@@L0339_:        }   
##@@@L0340_:
##@@@L0341_:        if (page_index >= sec_info->page_count)   
     688:	ab 98       	LD.W      R5, [R3 + #2]
     68a:	59 70       	CMP       R5, R9
     68c:	22 f9       	JLS       $+34                  ;->0x6d0
##@@@P_:flash_eeprom.c:348
##@@@L0343_:            ret = ee_gc_section(sec, data, len);   
##@@@L0344_:            return ret;   
##@@@L0345_:        }   
##@@@L0346_:    }   
##@@@L0347_:
##@@@L0348_:    ret = ee_write_record(sec_info, data, len);   
     68e:	08 58       	MOV       R0, R8
     690:	27 58       	MOV       R1, R7
     692:	46 58       	MOV       R2, R6
     694:	9f 00 64 ff 	LJMP      $-156     ;->0x55c  55c <ee_write_record>
     698:	a0 58       	MOV       R5, R0
##@@@P_:flash_eeprom.c:349
##@@@L0349_:    return ret;   
     69a:	98 07       	SJMP      $-104                 ;->0x5ca
     69c:	01 0d       	LD.W      R5, [SP + #1]
     69e:	0f 41       	LD        R1, [PC + #15]        ;->0x6d8  :=0x10000660
     6a0:	45 e8       	LD.W      R0, [R5 + R1]
##@@@F_:ee_gc_section():
##@@@P_:flash_eeprom.c:217
##@@@L0212_:static uint8_t ee_gc_section(eeprom_sec_t sec, const void *data, uint16_t len)   
##@@@L0213_:{   
##@@@L0214_:    eeprom_sec_info_t *sec_info = &ee_sec_info[sec];   
##@@@L0215_:    uint8_t ret;   
##@@@L0216_:
##@@@L0217_:    flash_erase_range(sec_info->start_addr, sec_info->start_addr + sec_info->size);   
     6a2:	88 58       	MOV       R4, R8
     6a4:	64 98       	LD.W      R4, [R4 + #1]
     6a6:	08 c3       	ADD       R1, R0, R4
     6a8:	9f 00 b4 fd 	LJMP      $-588     ;->0x210  210 <flash_erase_range>
##@@@P_:flash_eeprom.c:219
##@@@L0218_:
##@@@L0219_:    if (ee_format_page(sec_info->start_addr) != 0)   
     6ac:	01 0d       	LD.W      R5, [SP + #1]
     6ae:	0b 41       	LD        R1, [PC + #11]        ;->0x6d8  :=0x10000660
     6b0:	45 e8       	LD.W      R0, [R5 + R1]
     6b2:	9f 00 95 fe 	LJMP      $-363     ;->0x3dc  3dc <ee_format_page>
##@@@P_:flash_eeprom.c:221
##@@@L0220_:    {   
##@@@L0221_:        return EEPROM_ERR_FLASH;   
     6b6:	55 10       	MOV       R5, #5			;->0x0005
##@@@P_:flash_eeprom.c:219
##@@@L0214_:    eeprom_sec_info_t *sec_info = &ee_sec_info[sec];   
##@@@L0215_:    uint8_t ret;   
##@@@L0216_:
##@@@L0217_:    flash_erase_range(sec_info->start_addr, sec_info->start_addr + sec_info->size);   
##@@@L0218_:
##@@@L0219_:    if (ee_format_page(sec_info->start_addr) != 0)   
     6b8:	00 38       	CMP       R0, #0			;->0x00
     6ba:	88 f1       	JNZ       $-120                 ;->0x5ca
##@@@P_:flash_eeprom.c:224
##@@@L0220_:    {   
##@@@L0221_:        return EEPROM_ERR_FLASH;   
##@@@L0222_:    }   
##@@@L0223_:
##@@@L0224_:    sec_info->active_page_addr = sec_info->start_addr;   
     6bc:	01 0a       	LD.W      R2, [SP + #1]
     6be:	07 43       	LD        R3, [PC + #7]         ;->0x6d8  :=0x10000660
     6c0:	ea e8       	LD.W      R5, [R2 + R3]
     6c2:	88 58       	MOV       R4, R8
     6c4:	e5 a0       	ST.W      [R4 + #3], R5
##@@@P_:flash_eeprom.c:225
##@@@L0225_:    sec_info->write_addr = sec_info->start_addr + PAGE_HEAD_SIZE;   
     6c6:	58 28       	ADD       R5, #8			;->0x08
     6c8:	25 a1       	ST.W      [R4 + #4], R5
##@@@P_:flash_eeprom.c:226
##@@@L0226_:    sec_info->next_record_seq = 1;   
     6ca:	51 10       	MOV       R5, #1			;->0x0001
     6cc:	a5 b2       	ST.H      [R4 + #10], R5
     6ce:	e0 07       	SJMP      $-32                  ;->0x68e
     6d0:	01 0a       	LD.W      R2, [SP + #1]
     6d2:	02 43       	LD        R3, [PC + #2]         ;->0x6d8  :=0x10000660
     6d4:	c2 e8       	LD.W      R0, [R2 + R3]
     6d6:	e6 07       	SJMP      $-26                  ;->0x6a2
##@@@F_:ee_save():
     6d8:	60 06 00 10 	.long     0x10000660 ->268437088  [!!!@2@:SJMP      $-416                 ;->0x398	@@: MOV       R0, #0
     6dc:	f8 03 00 00 	.long     0x000003f8 ->000001016  [!!!@4@:JMP       $-524288              ;->0xfff006dc

000006e0 <ee_load>:
##@@@F_:ee_load():
##@@@P_:flash_eeprom.c:361
##@@@L0356_: * @param  len: ķ£ĆĶ”üĶ»╗ÕÅ¢ńÜäµĢ░µŹ«ķĢ┐Õ║”’╝īÕŹĢõĮŹõĖ║ÕŁŚĶŖé   
##@@@L0357_: * @return EEPROM_OKĶĪ©ńż║µłÉÕŖ¤’╝īÕģČõ╗¢ÕĆ╝ĶĪ©ńż║Ķ»╗ÕÅ¢Õż▒Ķ┤ź   
##@@@L0358_: * @note   ńø«ÕēŹķĆÜĶ┐ćlenÕī╣ķģŹĶ«░ÕĮĢ’╝īÕ╣ČÕÅ¢seqµ£ĆÕż¦ńÜäµ£ēµĢłĶ«░ÕĮĢ’╝øÕ”éµ×£ÕÉīõĖĆÕłåÕī║õ┐ØÕŁśÕżÜń¦Źń╗ōµ×äõĮōõĖöķĢ┐Õ║”ńøĖÕÉī’╝īÕÉÄń╗Łķ£ĆĶ”üÕó×ÕŖĀkeyÕī║Õłå   
##@@@L0359_: */   
##@@@L0360_:uint8_t ee_load(eeprom_sec_t sec, void *data, uint16_t len)   
##@@@L0361_:{   
     6e0:	ff 5f       	PUSH      {R6-R12,LR}
     6e2:	e8 31       	SUB       SP, #24			;->0x18
     6e4:	03 21       	ST.W      [SP + #3], R1
     6e6:	a2 d0       	ZXT.H     R10, R2
##@@@P_:flash_eeprom.c:370
##@@@L0365_:    uint16_t best_seq = 0;   
##@@@L0366_:    eeprom_record_head_t record_head;   
##@@@L0367_:
##@@@L0368_:    if ((data == 0) || (len == 0))   
##@@@L0369_:    {   
##@@@L0370_:        return EEPROM_ERR_PARAM;   
     6e8:	51 10       	MOV       R5, #1			;->0x0001
##@@@P_:flash_eeprom.c:368
##@@@L0363_:    uint32_t page_index;   
##@@@L0364_:    uint32_t best_data_addr = 0;   
##@@@L0365_:    uint16_t best_seq = 0;   
##@@@L0366_:    eeprom_record_head_t record_head;   
##@@@L0367_:
##@@@L0368_:    if ((data == 0) || (len == 0))   
     6ea:	10 38       	CMP       R1, #0			;->0x00
     6ec:	06 f0       	JZ        $+6                   ;->0x6f8
##@@@P_:flash_eeprom.c:368 (discriminator 1)
     6ee:	a0 38       	CMP       R10, #0			;->0x00
     6f0:	04 f0       	JZ        $+4                   ;->0x6f8
##@@@P_:flash_eeprom.c:375
##@@@L0370_:        return EEPROM_ERR_PARAM;   
##@@@L0371_:    }   
##@@@L0372_:
##@@@L0373_:    if ((uint32_t)sec >= SEC_MAX)   
##@@@L0374_:    {   
##@@@L0375_:        return EEPROM_ERR_SEC;   
     6f2:	52 10       	MOV       R5, #2			;->0x0002
##@@@P_:flash_eeprom.c:373
##@@@L0368_:    if ((data == 0) || (len == 0))   
##@@@L0369_:    {   
##@@@L0370_:        return EEPROM_ERR_PARAM;   
##@@@L0371_:    }   
##@@@L0372_:
##@@@L0373_:    if ((uint32_t)sec >= SEC_MAX)   
     6f4:	03 38       	CMP       R0, #3			;->0x03
     6f6:	06 f9       	JLS       $+6                   ;->0x702
##@@@P_:flash_eeprom.c:440
##@@@L0435_:        return EEPROM_ERR_NO_DATA;   
##@@@L0436_:    }   
##@@@L0437_:
##@@@L0438_:    flash_read_buf(best_data_addr, (uint8_t *)data, len);   
##@@@L0439_:    return EEPROM_OK;   
##@@@L0440_:}   
     6f8:	05 58       	MOV       R0, R5
     6fa:	e8 29       	ADD       SP, #24			;->0x18
     6fc:	7f 5e       	POP       {R6-R12}
     6fe:	0d 5d       	POP       LR
     700:	1d 5c       	JMP       LR
##@@@P_:flash_eeprom.c:378
##@@@L0373_:    if ((uint32_t)sec >= SEC_MAX)   
##@@@L0374_:    {   
##@@@L0375_:        return EEPROM_ERR_SEC;   
##@@@L0376_:    }   
##@@@L0377_:
##@@@L0378_:    sec_info = &ee_sec_info[sec];   
     702:	48 11       	MOV       R4, #24			;->0x0018
     704:	20 cb       	MULS      R4, R0, R4
     706:	00 00       	NOP      NOP      
     708:	33 45       	LD        R5, [PC + #51]        ;->0x7d4  :=0x10000660
     70a:	64 c3       	ADD       R4, R4, R5
     70c:	64 59       	MOV       R11, R4
##@@@P_:flash_eeprom.c:379
##@@@L0379_:    if ((sec_info->page_count == 0) || (sec_info->active_page_addr == 0))   
     70e:	ac 98       	LD.W      R5, [R4 + #2]
     710:	50 38       	CMP       R5, #0			;->0x00
     712:	04 f0       	JZ        $+4                   ;->0x71a
##@@@P_:flash_eeprom.c:379 (discriminator 1)
     714:	ec 98       	LD.W      R5, [R4 + #3]
     716:	50 38       	CMP       R5, #0			;->0x00
     718:	0a f1       	JNZ       $+10                  ;->0x72c
     71a:	9f 00 73 fe 	LJMP      $-397     ;->0x400  400 <ee_init_section.part.0>
##@@@P_:flash_eeprom.c:383
##@@@L0380_:    {   
##@@@L0381_:        if (ee_init_section(sec) != EEPROM_OK)   
##@@@L0382_:        {   
##@@@L0383_:            return EEPROM_ERR_FLASH;   
     71e:	55 10       	MOV       R5, #5			;->0x0005
##@@@P_:flash_eeprom.c:381
##@@@L0376_:    }   
##@@@L0377_:
##@@@L0378_:    sec_info = &ee_sec_info[sec];   
##@@@L0379_:    if ((sec_info->page_count == 0) || (sec_info->active_page_addr == 0))   
##@@@L0380_:    {   
##@@@L0381_:        if (ee_init_section(sec) != EEPROM_OK)   
     720:	00 38       	CMP       R0, #0			;->0x00
     722:	eb f1       	JNZ       $-21                  ;->0x6f8
##@@@P_:flash_eeprom.c:387 (discriminator 1)
##@@@L0382_:        {   
##@@@L0383_:            return EEPROM_ERR_FLASH;   
##@@@L0384_:        }   
##@@@L0385_:    }   
##@@@L0386_:
##@@@L0387_:    for (page_index = 0; page_index < sec_info->page_count; page_index++)   
     724:	6b 58       	MOV       R3, R11
     726:	ab 98       	LD.W      R5, [R3 + #2]
     728:	50 38       	CMP       R5, #0			;->0x00
     72a:	4c f0       	JZ        $+76                  ;->0x7c2
##@@@P_:flash_eeprom.c:361
##@@@L0356_: * @param  len: ķ£ĆĶ”üĶ»╗ÕÅ¢ńÜäµĢ░µŹ«ķĢ┐Õ║”’╝īÕŹĢõĮŹõĖ║ÕŁŚĶŖé   
##@@@L0357_: * @return EEPROM_OKĶĪ©ńż║µłÉÕŖ¤’╝īÕģČõ╗¢ÕĆ╝ĶĪ©ńż║Ķ»╗ÕÅ¢Õż▒Ķ┤ź   
##@@@L0358_: * @note   ńø«ÕēŹķĆÜĶ┐ćlenÕī╣ķģŹĶ«░ÕĮĢ’╝īÕ╣ČÕÅ¢seqµ£ĆÕż¦ńÜäµ£ēµĢłĶ«░ÕĮĢ’╝øÕ”éµ×£ÕÉīõĖĆÕłåÕī║õ┐ØÕŁśÕżÜń¦Źń╗ōµ×äõĮōõĖöķĢ┐Õ║”ńøĖÕÉī’╝īÕÉÄń╗Łķ£ĆĶ”üÕó×ÕŖĀkeyÕī║Õłå   
##@@@L0359_: */   
##@@@L0360_:uint8_t ee_load(eeprom_sec_t sec, void *data, uint16_t len)   
##@@@L0361_:{   
     72c:	50 10       	MOV       R5, #0			;->0x0000
     72e:	04 25       	ST.W      [SP + #4], R5
     730:	05 25       	ST.W      [SP + #5], R5
     732:	25 59       	MOV       R9, R5
##@@@P_:flash_eeprom.c:412
##@@@L0407_:            if (record_head.record_flg == RECORD_FREE)   
##@@@L0408_:            {   
##@@@L0409_:                break;   
##@@@L0410_:            }   
##@@@L0411_:
##@@@L0412_:            if ((record_head.record_flg != RECORD_USED) ||   
     734:	29 45       	LD        R5, [PC + #41]        ;->0x7d8  :=0x55aa33cc
     736:	85 59       	MOV       R12, R5
     738:	06 04       	SJMP      $+6                   ;->0x744
##@@@P_:flash_eeprom.c:387
##@@@L0382_:        {   
##@@@L0383_:            return EEPROM_ERR_FLASH;   
##@@@L0384_:        }   
##@@@L0385_:    }   
##@@@L0386_:
##@@@L0387_:    for (page_index = 0; page_index < sec_info->page_count; page_index++)   
     73a:	91 28       	ADD       R9, #1			;->0x01
     73c:	8b 58       	MOV       R4, R11
     73e:	ac 98       	LD.W      R5, [R4 + #2]
     740:	59 70       	CMP       R5, R9
     742:	3d f9       	JLS       $+61                  ;->0x7bc
##@@@P_:flash_eeprom.c:360
##@@@L0355_: * @param  data: Ķ»╗ÕÅ¢µĢ░µŹ«ńÜäńø«µĀćń╝ōÕå▓Õī║   
##@@@L0356_: * @param  len: ķ£ĆĶ”üĶ»╗ÕÅ¢ńÜäµĢ░µŹ«ķĢ┐Õ║”’╝īÕŹĢõĮŹõĖ║ÕŁŚĶŖé   
##@@@L0357_: * @return EEPROM_OKĶĪ©ńż║µłÉÕŖ¤’╝īÕģČõ╗¢ÕĆ╝ĶĪ©ńż║Ķ»╗ÕÅ¢Õż▒Ķ┤ź   
##@@@L0358_: * @note   ńø«ÕēŹķĆÜĶ┐ćlenÕī╣ķģŹĶ«░ÕĮĢ’╝īÕ╣ČÕÅ¢seqµ£ĆÕż¦ńÜäµ£ēµĢłĶ«░ÕĮĢ’╝øÕ”éµ×£ÕÉīõĖĆÕłåÕī║õ┐ØÕŁśÕżÜń¦Źń╗ōµ×äõĮōõĖöķĢ┐Õ║”ńøĖÕÉī’╝īÕÉÄń╗Łķ£ĆĶ”üÕó×ÕŖĀkeyÕī║Õłå   
##@@@L0359_: */   
##@@@L0360_:uint8_t ee_load(eeprom_sec_t sec, void *data, uint16_t len)   
     744:	69 58       	MOV       R3, R9
     746:	9a 7a       	LSL       R3, #10			;->0x0A
     748:	03 59       	MOV       R8, R3
##@@@P_:flash_eeprom.c:393
##@@@L0388_:    {   
##@@@L0389_:        uint32_t page_addr;   
##@@@L0390_:        uint32_t page_flg;   
##@@@L0391_:        uint32_t addr;   
##@@@L0392_:
##@@@L0393_:        page_addr = sec_info->start_addr + (page_index * FLASH_PAGE_SIZE);   
     74a:	4b 82       	LD.W      R4, [R11]
     74c:	84 64       	ADD       R8, R4
##@@@P_:flash_eeprom.c:394
##@@@L0394_:        flash_read_buf(page_addr, (uint8_t *)&page_flg, sizeof(page_flg));   
     74e:	08 58       	MOV       R0, R8
     750:	2e 58       	MOV       R1, SP
     752:	18 28       	ADD       R1, #8			;->0x08
     754:	24 10       	MOV       R2, #4			;->0x0004
     756:	9f 00 73 fd 	LJMP      $-653     ;->0x23c  23c <flash_read_buf>
##@@@P_:flash_eeprom.c:396
##@@@L0395_:
##@@@L0396_:        if (page_flg != PAGE_USED)   
     75a:	02 0d       	LD.W      R5, [SP + #2]
     75c:	20 43       	LD        R3, [PC + #32]        ;->0x7dc  :=0xaa55bbcc
     75e:	53 70       	CMP       R5, R3
     760:	ed f1       	JNZ       $-19                  ;->0x73a
##@@@P_:flash_eeprom.c:401
##@@@L0397_:        {   
##@@@L0398_:            continue;   
##@@@L0399_:        }   
##@@@L0400_:
##@@@L0401_:        addr = page_addr + PAGE_HEAD_SIZE;   
     762:	c8 58       	MOV       R6, R8
     764:	68 28       	ADD       R6, #8			;->0x08
     766:	41 10       	MOV       R4, #1			;->0x0001
     768:	a2 7a       	LSL       R4, #10			;->0x0A
     76a:	84 64       	ADD       R8, R4
##@@@P_:flash_eeprom.c:403 (discriminator 1)
##@@@L0402_:
##@@@L0403_:        while ((addr + sizeof(record_head)) <= (page_addr + FLASH_PAGE_SIZE))   
     76c:	38 10       	MOV       R3, #8			;->0x0008
     76e:	fe c2       	ADD       R7, R6, R3
     770:	78 70       	CMP       R7, R8
     772:	e4 f8       	JHI       $-28                  ;->0x73a
##@@@P_:flash_eeprom.c:405
##@@@L0404_:        {   
##@@@L0405_:            flash_read_buf(addr, (uint8_t *)&record_head, sizeof(record_head));   
     774:	06 58       	MOV       R0, R6
     776:	2e 58       	MOV       R1, SP
     778:	28 10       	MOV       R2, #8			;->0x0008
     77a:	9f 00 61 fd 	LJMP      $-671     ;->0x23c  23c <flash_read_buf>
##@@@P_:flash_eeprom.c:412
##@@@L0407_:            if (record_head.record_flg == RECORD_FREE)   
##@@@L0408_:            {   
##@@@L0409_:                break;   
##@@@L0410_:            }   
##@@@L0411_:
##@@@L0412_:            if ((record_head.record_flg != RECORD_USED) ||   
     77e:	5e 82       	LD.W      R5, [SP]
     780:	5c 70       	CMP       R5, R12
     782:	dc f1       	JNZ       $-36                  ;->0x73a
##@@@P_:flash_eeprom.c:413 (discriminator 1)
##@@@L0413_:                (record_head.len == 0) ||   
     784:	a3 e0       	LD.H      R5, [SP + #3]
##@@@P_:flash_eeprom.c:412
##@@@L0407_:            if (record_head.record_flg == RECORD_FREE)   
##@@@L0408_:            {   
##@@@L0409_:                break;   
##@@@L0410_:            }   
##@@@L0411_:
##@@@L0412_:            if ((record_head.record_flg != RECORD_USED) ||   
     786:	50 38       	CMP       R5, #0			;->0x00
     788:	d9 f0       	JZ        $-39                  ;->0x73a
##@@@P_:flash_eeprom.c:414
##@@@L0413_:                (record_head.len == 0) ||   
##@@@L0414_:                (RECORD_SIZE(record_head.len) > (FLASH_PAGE_SIZE - PAGE_HEAD_SIZE)) ||   
     78a:	e5 c1       	ADD       R4, R5, #7
     78c:	37 10       	MOV       R3, #7			;->0x0007
     78e:	33 68       	NOT       R3, R3
     790:	e4 d4       	ANL       R4, R4, R3
     792:	48 28       	ADD       R4, #8			;->0x08
##@@@P_:flash_eeprom.c:413
##@@@L0408_:            {   
##@@@L0409_:                break;   
##@@@L0410_:            }   
##@@@L0411_:
##@@@L0412_:            if ((record_head.record_flg != RECORD_USED) ||   
##@@@L0413_:                (record_head.len == 0) ||   
     794:	13 43       	LD        R3, [PC + #19]        ;->0x7e0  :=0x3f8
     796:	43 70       	CMP       R4, R3
     798:	d1 f8       	JHI       $-47                  ;->0x73a
##@@@P_:flash_eeprom.c:415
##@@@L0414_:                (RECORD_SIZE(record_head.len) > (FLASH_PAGE_SIZE - PAGE_HEAD_SIZE)) ||   
##@@@L0415_:                ((addr + RECORD_SIZE(record_head.len)) > (page_addr + FLASH_PAGE_SIZE)))   
     79a:	36 c3       	ADD       R6, R6, R4
##@@@P_:flash_eeprom.c:414
##@@@L0409_:                break;   
##@@@L0410_:            }   
##@@@L0411_:
##@@@L0412_:            if ((record_head.record_flg != RECORD_USED) ||   
##@@@L0413_:                (record_head.len == 0) ||   
##@@@L0414_:                (RECORD_SIZE(record_head.len) > (FLASH_PAGE_SIZE - PAGE_HEAD_SIZE)) ||   
     79c:	68 70       	CMP       R6, R8
     79e:	ce f8       	JHI       $-50                  ;->0x73a
##@@@P_:flash_eeprom.c:420
##@@@L0415_:                ((addr + RECORD_SIZE(record_head.len)) > (page_addr + FLASH_PAGE_SIZE)))   
##@@@L0416_:            {   
##@@@L0417_:                break;   
##@@@L0418_:            }   
##@@@L0419_:
##@@@L0420_:            if ((record_head.len == len) &&   
     7a0:	a5 70       	CMP       R10, R5
     7a2:	e5 f1       	JNZ       $-27                  ;->0x76c
##@@@P_:flash_eeprom.c:421 (discriminator 1)
##@@@L0421_:                (record_head.seq != 0) &&   
     7a4:	a2 e0       	LD.H      R5, [SP + #2]
##@@@P_:flash_eeprom.c:420
##@@@L0415_:                ((addr + RECORD_SIZE(record_head.len)) > (page_addr + FLASH_PAGE_SIZE)))   
##@@@L0416_:            {   
##@@@L0417_:                break;   
##@@@L0418_:            }   
##@@@L0419_:
##@@@L0420_:            if ((record_head.len == len) &&   
     7a6:	50 38       	CMP       R5, #0			;->0x00
     7a8:	e2 f0       	JZ        $-30                  ;->0x76c
##@@@P_:flash_eeprom.c:421
##@@@L0421_:                (record_head.seq != 0) &&   
     7aa:	0f 44       	LD        R4, [PC + #15]        ;->0x7e4  :=0xffff
     7ac:	54 70       	CMP       R5, R4
     7ae:	df f0       	JZ        $-33                  ;->0x76c
##@@@P_:flash_eeprom.c:422
##@@@L0422_:                (record_head.seq != 0xFFFF) &&   
     7b0:	04 0b       	LD.W      R3, [SP + #4]
     7b2:	53 70       	CMP       R5, R3
     7b4:	dc f9       	JLS       $-36                  ;->0x76c
     7b6:	04 25       	ST.W      [SP + #4], R5
     7b8:	05 27       	ST.W      [SP + #5], R7
     7ba:	d9 07       	SJMP      $-39                  ;->0x76c
##@@@P_:flash_eeprom.c:433
##@@@L0428_:
##@@@L0429_:            addr += RECORD_SIZE(record_head.len);   
##@@@L0430_:        }   
##@@@L0431_:    }   
##@@@L0432_:
##@@@L0433_:    if (best_data_addr == 0)   
     7bc:	05 0d       	LD.W      R5, [SP + #5]
     7be:	50 38       	CMP       R5, #0			;->0x00
     7c0:	03 f1       	JNZ       $+3                   ;->0x7c6
##@@@P_:flash_eeprom.c:435
##@@@L0434_:    {   
##@@@L0435_:        return EEPROM_ERR_NO_DATA;   
     7c2:	53 10       	MOV       R5, #3			;->0x0003
     7c4:	9a 07       	SJMP      $-102                 ;->0x6f8
##@@@P_:flash_eeprom.c:438
##@@@L0436_:    }   
##@@@L0437_:
##@@@L0438_:    flash_read_buf(best_data_addr, (uint8_t *)data, len);   
     7c6:	05 58       	MOV       R0, R5
     7c8:	03 09       	LD.W      R1, [SP + #3]
     7ca:	4a 58       	MOV       R2, R10
     7cc:	9f 00 38 fd 	LJMP      $-712     ;->0x23c  23c <flash_read_buf>
##@@@P_:flash_eeprom.c:439
##@@@L0439_:    return EEPROM_OK;   
     7d0:	50 10       	MOV       R5, #0			;->0x0000
     7d2:	93 07       	SJMP      $-109                 ;->0x6f8
     7d4:	60 06 00 10 	.long     0x10000660 ->268437088  [!!!@2@:SJMP      $-416                 ;->0x494	@@: MOV       R0, #0
     7d8:	cc 33 aa 55 	.long     0x55aa33cc ->1437217740  [!!!@2@:SUB       R12, #60	@@: JB        R5, #26
     7dc:	cc bb 55 aa 	.long     0xaa55bbcc ->-1437221940  [!!!@2@:STP.W     [R4], R1 << #3	@@: LD.H      R2, [R5 + #9]
     7e0:	f8 03 00 00 	.long     0x000003f8 ->000001016  [!!!@4@:JMP       $-524288              ;->0xfff007e0
     7e4:	ff ff 00 00 	.long     0x0000ffff ->000065535 

000007e8 <md5_step>:
##@@@F_:md5_step():
##@@@P_:md5.c:253
##@@@L0248_:    md5_init();   
##@@@L0249_:    md5_update((uint8_t *)input, strlen(input));   
##@@@L0250_:    md5_finalize(result);   
##@@@L0251_:
##@@@L0252_:    // memcpy(result, ctx.digest, 16);   
##@@@L0253_:}   
     7e8:	ff 5f       	PUSH      {R6-R12,LR}
     7ea:	e8 31       	SUB       SP, #24			;->0x18
     7ec:	60 59       	MOV       R11, R0
     7ee:	41 59       	MOV       R10, R1
     7f0:	10 82       	LD.W      R1, [R0]
     7f2:	01 58       	MOV       R0, R1
     7f4:	e1 85       	ST.W      [SP], R1
     7f6:	6b 58       	MOV       R3, R11
     7f8:	5b 98       	LD.W      R3, [R3 + #1]
     7fa:	01 23       	ST.W      [SP + #1], R3
     7fc:	8b 58       	MOV       R4, R11
     7fe:	a4 98       	LD.W      R4, [R4 + #2]
     800:	02 24       	ST.W      [SP + #2], R4
     802:	ab 58       	MOV       R5, R11
     804:	ed 98       	LD.W      R5, [R5 + #3]
     806:	03 25       	ST.W      [SP + #3], R5
     808:	30 46       	LD        R6, [PC + #48]        ;->0x8c8  :=0x200c
     80a:	65 58       	MOV       R3, R5
     80c:	44 58       	MOV       R2, R4
     80e:	01 0c       	LD.W      R4, [SP + #1]
     810:	50 10       	MOV       R5, #0			;->0x0000
     812:	cf 10       	MOV       R12, #15			;->0x000F
##@@@F_:rotateLeft():
     814:	10 12       	MOV       R1, #32			;->0x0020
     816:	a2 59       	MOV       LR, R2
     818:	26 59       	MOV       R9, R6
     81a:	00 59       	MOV       R8, R0
     81c:	1c 04       	SJMP      $+28                  ;->0x854
##@@@F_:md5_step():
     81e:	74 68       	NOT       R7, R4
     820:	ff d4       	ANL       R7, R7, R3
     822:	04 27       	ST.W      [SP + #4], R7
     824:	0d 58       	MOV       R0, LR
     826:	38 d5       	ANL       R7, R0, R4
     828:	04 0e       	LD.W      R6, [SP + #4]
     82a:	fe d7       	ORL       R7, R6, R7
     82c:	69 72       	LD.W      R6, [R9++]
     82e:	bf c3       	ADD       R7, R7, R6
     830:	12 7a       	LSL       R2, #2			;->0x02
     832:	0a 58       	MOV       R0, R10
     834:	90 e8       	LD.W      R2, [R0 + R2]
     836:	bf c2       	ADD       R7, R7, R2
     838:	78 64       	ADD       R7, R8
     83a:	25 46       	LD        R6, [PC + #37]        ;->0x8cc  :=0x210c
     83c:	76 e5       	LD.B      R6, [R6 + R5]
     83e:	26 d1       	ZXT.B     R2, R6
##@@@F_:rotateLeft():
     840:	91 c6       	SUB       R2, R1, R2
     842:	72 6f       	ROR       R7, R2
##@@@F_:md5_step():
     844:	3f c3       	ADD       R7, R7, R4
     846:	6d c0       	ADD       R5, R5, #1
     848:	03 59       	MOV       R8, R3
     84a:	50 3c       	CMP       R5, #64			;->0x40
     84c:	28 f0       	JZ        $+40                  ;->0x89c
     84e:	6d 58       	MOV       R3, LR
     850:	a4 59       	MOV       LR, R4
     852:	87 58       	MOV       R4, R7
     854:	25 d0       	ZXT.H     R2, R5
     856:	74 10       	MOV       R7, #4			;->0x0004
     858:	f2 dd       	LSR       R6, R2, R7
     85a:	61 38       	CMP       R6, #1			;->0x01
     85c:	0d f0       	JZ        $+13                  ;->0x876
     85e:	60 38       	CMP       R6, #0			;->0x00
     860:	df f0       	JZ        $-33                  ;->0x81e
     862:	62 38       	CMP       R6, #2			;->0x02
     864:	13 f0       	JZ        $+19                  ;->0x88a
     866:	73 68       	NOT       R7, R3
     868:	3f d7       	ORL       R7, R7, R4
     86a:	7d 6b       	XRL       R7, LR
     86c:	67 10       	MOV       R6, #7			;->0x0007
     86e:	92 cb       	MULS      R2, R2, R6
     870:	00 00       	NOP      NOP      
     872:	2c 69       	ANL       R2, R12
     874:	dc 07       	SJMP      $-36                  ;->0x82c
     876:	73 68       	NOT       R7, R3
     878:	7d 69       	ANL       R7, LR
     87a:	33 d5       	ANL       R6, R3, R4
     87c:	bf d7       	ORL       R7, R7, R6
     87e:	05 10       	MOV       R0, #5			;->0x0005
     880:	12 ca       	MULS      R2, R2, R0
     882:	00 00       	NOP      NOP      
     884:	52 c0       	ADD       R2, R2, #1
     886:	2c 69       	ANL       R2, R12
     888:	d2 07       	SJMP      $-46                  ;->0x82c
     88a:	cd 58       	MOV       R6, LR
     88c:	3e d9       	XRL       R7, R6, R4
     88e:	ff d8       	XRL       R7, R7, R3
     890:	03 10       	MOV       R0, #3			;->0x0003
     892:	12 ca       	MULS      R2, R2, R0
     894:	00 00       	NOP      NOP      
     896:	52 c1       	ADD       R2, R2, #5
     898:	2c 69       	ANL       R2, R12
     89a:	c9 07       	SJMP      $-55                  ;->0x82c
     89c:	27 59       	MOV       R9, R7
     89e:	4d 58       	MOV       R2, LR
     8a0:	7e 82       	LD.W      R7, [SP]
     8a2:	db c3       	ADD       R3, R3, R7
     8a4:	b3 85       	ST.W      [R11], R3
     8a6:	01 0f       	LD.W      R7, [SP + #1]
     8a8:	79 64       	ADD       R7, R9
     8aa:	0b 58       	MOV       R0, R11
     8ac:	47 a0       	ST.W      [R0 + #1], R7
     8ae:	02 0d       	LD.W      R5, [SP + #2]
     8b0:	64 c3       	ADD       R4, R4, R5
     8b2:	c4 58       	MOV       R6, R4
     8b4:	84 a0       	ST.W      [R0 + #2], R4
     8b6:	03 08       	LD.W      R0, [SP + #3]
     8b8:	12 c2       	ADD       R2, R2, R0
     8ba:	2b 58       	MOV       R1, R11
     8bc:	ca a0       	ST.W      [R1 + #3], R2
     8be:	e8 29       	ADD       SP, #24			;->0x18
     8c0:	7f 5e       	POP       {R6-R12}
     8c2:	0d 5d       	POP       LR
     8c4:	1d 5c       	JMP       LR
     8c6:	00 00       	NOP      NOP      
     8c8:	0c 20 00 00 	.long     0x0000200c ->000008204  [!!!@2@:ST.W      [SP + #12], R0	@@: NOP      
     8cc:	0c 21 00 00 	.long     0x0000210c ->000008460  [!!!@2@:ST.W      [SP + #12], R1	@@: NOP      

000008d0 <md5_update>:
##@@@F_:md5_update():
     8d0:	bf 5f       	PUSH      {R6-R11,LR}
     8d2:	e0 34       	SUB       SP, #64			;->0x40
     8d4:	20 59       	MOV       R9, R0
     8d6:	01 59       	MOV       R8, R1
     8d8:	1d 46       	LD        R6, [PC + #29]        ;->0x94c  :=0x100006c0
     8da:	0f 13       	MOV       R0, #63			;->0x003F
     8dc:	26 82       	LD.W      R2, [R6]
     8de:	88 d4       	ANL       R1, R0, R2
     8e0:	88 58       	MOV       R4, R8
     8e2:	50 10       	MOV       R5, #0			;->0x0000
     8e4:	26 82       	LD.W      R2, [R6]
     8e6:	5e 98       	LD.W      R3, [R6 + #1]
     8e8:	12 c3       	ADD       R2, R2, R4
     8ea:	5b c5       	ADDC      R3, R3, R5
     8ec:	62 85       	ST.W      [R6], R2
     8ee:	73 a0       	ST.W      [R6 + #1], R3
     8f0:	85 70       	CMP       R8, R5
     8f2:	29 f0       	JZ        $+41                  ;->0x944
     8f4:	85 58       	MOV       R4, R5
     8f6:	45 59       	MOV       R10, R5
     8f8:	60 59       	MOV       R11, R0
     8fa:	16 47       	LD        R7, [PC + #22]        ;->0x950  :=0x10000718
     8fc:	69 58       	MOV       R3, R9
     8fe:	23 e5       	LD.B      R4, [R3 + R4]
     900:	44 d1       	ZXT.B     R4, R4
     902:	6e c2       	ADD       R5, R6, R1
     904:	2c 96       	ST.B      [R5 + #24], R4
     906:	49 c0       	ADD       R1, R1, #1
     908:	11 d0       	ZXT.H     R1, R1
     90a:	8b 58       	MOV       R4, R11
     90c:	29 d5       	ANL       R5, R1, R4
     90e:	16 f1       	JNZ       $+22                  ;->0x93a
     910:	11 45       	LD        R5, [PC + #17]        ;->0x954  :=0x100006d8
     912:	8e 58       	MOV       R4, SP
     914:	d5 88       	LD.B      R2, [R5 + #3]
     916:	90 7b       	LSL       R2, #24			;->0x18
     918:	9d 88       	LD.B      R3, [R5 + #2]
     91a:	18 7b       	LSL       R3, #16			;->0x10
     91c:	da d6       	ORL       R3, R2, R3
     91e:	25 80       	LD.B      R2, [R5]
     920:	9b d6       	ORL       R3, R3, R2
     922:	55 88       	LD.B      R2, [R5 + #1]
     924:	90 7a       	LSL       R2, #8			;->0x08
     926:	9b d6       	ORL       R3, R3, R2
     928:	43 73       	ST.W      [R4++], R3
     92a:	2d c1       	ADD       R5, R5, #4
     92c:	57 70       	CMP       R5, R7
     92e:	f3 f1       	JNZ       $-13                  ;->0x914
     930:	0a 40       	LD        R0, [PC + #10]        ;->0x958  :=0x100006c8
     932:	2e 58       	MOV       R1, SP
     934:	9f 00 5a ff 	LJMP      $-166     ;->0x7e8  7e8 <md5_step>
     938:	10 10       	MOV       R1, #0			;->0x0000
     93a:	a1 28       	ADD       R10, #1			;->0x01
     93c:	aa d0       	ZXT.H     R10, R10
     93e:	8a 58       	MOV       R4, R10
     940:	8a 70       	CMP       R8, R10
     942:	dd f8       	JHI       $-35                  ;->0x8fc
     944:	e0 2c       	ADD       SP, #64			;->0x40
     946:	3f 5e       	POP       {R6-R11}
     948:	0d 5d       	POP       LR
     94a:	1d 5c       	JMP       LR
     94c:	c0 06 00 10 	.long     0x100006c0 ->268437184  [!!!@2@:SJMP      $-320                 ;->0x6cc	@@: MOV       R0, #0
     950:	18 07 00 10 	.long     0x10000718 ->268437272  [!!!@2@:SJMP      $-232                 ;->0x780	@@: MOV       R0, #0
     954:	d8 06 00 10 	.long     0x100006d8 ->268437208  [!!!@2@:SJMP      $-296                 ;->0x704	@@: MOV       R0, #0
     958:	c8 06 00 10 	.long     0x100006c8 ->268437192  [!!!@2@:SJMP      $-312                 ;->0x6e8	@@: MOV       R0, #0

0000095c <md5_finalize>:
##@@@F_:md5_finalize():
     95c:	87 5f       	PUSH      {R6-R8,LR}
     95e:	e0 34       	SUB       SP, #64			;->0x40
     960:	e0 58       	MOV       R7, R0
     962:	27 46       	LD        R6, [PC + #39]        ;->0x9fc  :=0x100006c0
     964:	5f 13       	MOV       R5, #63			;->0x003F
     966:	26 82       	LD.W      R2, [R6]
     968:	6a d5       	ANL       R5, R2, R5
     96a:	57 3b       	CMP       R5, #55			;->0x37
     96c:	5a f8       	JHI       $+90                  ;->0xa20
     96e:	88 13       	MOV       R8, #56			;->0x0038
     970:	85 66       	SUB       R8, R5
     972:	88 d0       	ZXT.H     R8, R8
     974:	23 40       	LD        R0, [PC + #35]        ;->0xa00  :=0x100001f4
     976:	28 58       	MOV       R1, R8
     978:	9f 00 ac ff 	LJMP      $-84      ;->0x8d0  8d0 <md5_update>
     97c:	88 58       	MOV       R4, R8
     97e:	50 10       	MOV       R5, #0			;->0x0000
     980:	26 82       	LD.W      R2, [R6]
     982:	5e 98       	LD.W      R3, [R6 + #1]
     984:	22 c7       	SUB       R4, R2, R4
     986:	6b c9       	SUBC      R5, R3, R5
     988:	64 85       	ST.W      [R6], R4
     98a:	75 a0       	ST.W      [R6 + #1], R5
     98c:	1e 43       	LD        R3, [PC + #30]        ;->0xa04  :=0x100006d8
     98e:	ce 58       	MOV       R6, SP
     990:	1e 40       	LD        R0, [PC + #30]        ;->0xa08  :=0x10000710
     992:	cb 88       	LD.B      R1, [R3 + #3]
     994:	88 7b       	LSL       R1, #24			;->0x18
     996:	93 88       	LD.B      R2, [R3 + #2]
     998:	10 7b       	LSL       R2, #16			;->0x10
     99a:	91 d6       	ORL       R2, R1, R2
     99c:	13 80       	LD.B      R1, [R3]
     99e:	52 d6       	ORL       R2, R2, R1
     9a0:	4b 88       	LD.B      R1, [R3 + #1]
     9a2:	88 7a       	LSL       R1, #8			;->0x08
     9a4:	52 d6       	ORL       R2, R2, R1
     9a6:	62 73       	ST.W      [R6++], R2
     9a8:	1b c1       	ADD       R3, R3, #4
     9aa:	30 70       	CMP       R3, R0
     9ac:	f3 f1       	JNZ       $-13                  ;->0x992
     9ae:	23 10       	MOV       R2, #3			;->0x0003
     9b0:	9c da       	LSL       R3, R4, R2
     9b2:	0e 23       	ST.W      [SP + #14], R3
     9b4:	a5 7d       	LSR       R4, #29			;->0x1D
     9b6:	ad da       	LSL       R5, R5, R2
     9b8:	6c d7       	ORL       R5, R4, R5
     9ba:	0f 25       	ST.W      [SP + #15], R5
     9bc:	14 40       	LD        R0, [PC + #20]        ;->0xa0c  :=0x100006c8
     9be:	2e 58       	MOV       R1, SP
     9c0:	9f 00 14 ff 	LJMP      $-236     ;->0x7e8  7e8 <md5_step>
     9c4:	12 43       	LD        R3, [PC + #18]        ;->0xa0c  :=0x100006c8
     9c6:	13 45       	LD        R5, [PC + #19]        ;->0xa10  :=0x10000718
     9c8:	13 46       	LD        R6, [PC + #19]        ;->0xa14  :=0x10000728
     9ca:	14 40       	LD        R0, [PC + #20]        ;->0xa18  :=0xff00
     9cc:	14 41       	LD        R1, [PC + #20]        ;->0xa1c  :=0xff0000
     9ce:	43 72       	LD.W      R4, [R3++]
     9d0:	54 83       	ST.B      [R5], R4
     9d2:	14 d4       	ANL       R2, R4, R0
     9d4:	90 7c       	LSR       R2, #8			;->0x08
     9d6:	6a 90       	ST.B      [R5 + #1], R2
     9d8:	54 d4       	ANL       R2, R4, R1
     9da:	10 7d       	LSR       R2, #16			;->0x10
     9dc:	aa 90       	ST.B      [R5 + #2], R2
     9de:	a0 7d       	LSR       R4, #24			;->0x18
     9e0:	ec 90       	ST.B      [R5 + #3], R4
     9e2:	2d c1       	ADD       R5, R5, #4
     9e4:	56 70       	CMP       R5, R6
     9e6:	f4 f1       	JNZ       $-12                  ;->0x9ce
     9e8:	07 58       	MOV       R0, R7
     9ea:	0a 41       	LD        R1, [PC + #10]        ;->0xa10  :=0x10000718
     9ec:	20 11       	MOV       R2, #16			;->0x0010
     9ee:	80 00 2c 08 	LJMP      $+2092    ;->0x1a46  1a46 <memcpy>
     9f2:	e0 2c       	ADD       SP, #64			;->0x40
     9f4:	07 5e       	POP       {R6-R8}
     9f6:	0d 5d       	POP       LR
     9f8:	1d 5c       	JMP       LR
     9fa:	00 00       	NOP      NOP      
     9fc:	c0 06 00 10 	.long     0x100006c0 ->268437184  [!!!@2@:SJMP      $-320                 ;->0x77c	@@: MOV       R0, #0
     a00:	f4 01 00 10 	.long     0x100001f4 ->268435956  [!!!@2@:CMN       PC, R4	@@: MOV       R0, #0
     a04:	d8 06 00 10 	.long     0x100006d8 ->268437208  [!!!@2@:SJMP      $-296                 ;->0x7b4	@@: MOV       R0, #0
     a08:	10 07 00 10 	.long     0x10000710 ->268437264  [!!!@2@:SJMP      $-240                 ;->0x828	@@: MOV       R0, #0
     a0c:	c8 06 00 10 	.long     0x100006c8 ->268437192  [!!!@2@:SJMP      $-312                 ;->0x79c	@@: MOV       R0, #0
     a10:	18 07 00 10 	.long     0x10000718 ->268437272  [!!!@2@:SJMP      $-232                 ;->0x840	@@: MOV       R0, #0
     a14:	28 07 00 10 	.long     0x10000728 ->268437288  [!!!@2@:SJMP      $-216                 ;->0x864	@@: MOV       R0, #0
     a18:	00 ff 00 00 	.long     0x0000ff00 ->000065280 
     a1c:	00 00 ff 00 	.long     0x00ff0000 ->016711680 
     a20:	88 17       	MOV       R8, #120			;->0x0078
     a22:	85 66       	SUB       R8, R5
     a24:	88 d0       	ZXT.H     R8, R8
     a26:	a7 07       	SJMP      $-89                  ;->0x974

00000a28 <md5_flash>:
##@@@F_:md5_flash():
##@@@P_:md5.c:263
##@@@L0258_: * @param size: ķ£ĆĶ”üĶ«Īń«ŚMD5ńÜäµĢ░µŹ«ķĢ┐Õ║”’╝īÕŹĢõĮŹõĖ║ÕŁŚĶŖé   
##@@@L0259_: * @param *result: ĶŠōÕć║MD5ń╗ōµ×£ńÜäń╝ōÕå▓Õī║’╝īķĢ┐Õ║”Ķć│Õ░æõĖ║16ÕŁŚĶŖé   
##@@@L0260_: * @return : µŚĀ   
##@@@L0261_: */   
##@@@L0262_:void md5_flash(uint32_t start_addr, uint32_t size, uint8_t* result)   
##@@@L0263_:{   
     a28:	bf 5f       	PUSH      {R6-R11,LR}
     a2a:	50 18       	MOV       R5, #128			;->0x0080
     a2c:	e5 66       	SUB       SP, R5
     a2e:	40 59       	MOV       R10, R0
     a30:	01 59       	MOV       R8, R1
     a32:	62 59       	MOV       R11, R2
##@@@F_:md5_init():
##@@@P_:md5.c:89
##@@@L0084_: * @brief : ÕłØÕ¦ŗÕī¢MD5õĖŖõĖŗµ¢ć’╝īµĖģķøČµĢ░µŹ«ķĢ┐Õ║”’╝īÕ╣ČĶ«ŠńĮ«MD5ÕłØÕ¦ŗÕ»äÕŁśÕÖ©ÕĆ╝A/B/C/D   
##@@@L0085_: * @param : µŚĀ   
##@@@L0086_: * @return : µŚĀ   
##@@@L0087_: */   
##@@@L0088_:void md5_init(void){   
##@@@L0089_:    ctx.size = (uint64_t)0;   
     a34:	16 43       	LD        R3, [PC + #22]        ;->0xa8c  :=0x100006c0
     a36:	40 10       	MOV       R4, #0			;->0x0000
     a38:	50 10       	MOV       R5, #0			;->0x0000
     a3a:	34 85       	ST.W      [R3], R4
     a3c:	5d a0       	ST.W      [R3 + #1], R5
##@@@P_:md5.c:91
##@@@L0090_:
##@@@L0091_:    ctx.buffer[0] = (uint32_t)A;   
     a3e:	15 45       	LD        R5, [PC + #21]        ;->0xa90  :=0x67452301
     a40:	9d a0       	ST.W      [R3 + #2], R5
##@@@P_:md5.c:92
##@@@L0092_:    ctx.buffer[1] = (uint32_t)B;   
     a42:	15 45       	LD        R5, [PC + #21]        ;->0xa94  :=0xefcdab89
     a44:	dd a0       	ST.W      [R3 + #3], R5
##@@@P_:md5.c:93
##@@@L0093_:    ctx.buffer[2] = (uint32_t)C;   
     a46:	15 45       	LD        R5, [PC + #21]        ;->0xa98  :=0x98badcfe
     a48:	1d a1       	ST.W      [R3 + #4], R5
##@@@P_:md5.c:94
##@@@L0094_:    ctx.buffer[3] = (uint32_t)D;   
     a4a:	15 45       	LD        R5, [PC + #21]        ;->0xa9c  :=0x10325476
     a4c:	5d a1       	ST.W      [R3 + #5], R5
##@@@F_:md5_flash():
##@@@P_:md5.c:270
##@@@L0265_:    uint32_t offset = 0;   
##@@@L0266_:    uint32_t read_len = 0;   
##@@@L0267_:
##@@@L0268_:    md5_init();   
##@@@L0269_:
##@@@L0270_:    while (offset < size)   
     a4e:	70 10       	MOV       R7, #0			;->0x0000
     a50:	90 18       	MOV       R9, #128			;->0x0080
     a52:	17 70       	CMP       R1, R7
     a54:	13 f0       	JZ        $+19                  ;->0xa7a
##@@@P_:md5.c:272
##@@@L0271_:    {   
##@@@L0272_:        read_len = size - offset;   
     a56:	a8 58       	MOV       R5, R8
     a58:	f5 c7       	SUB       R6, R5, R7
     a5a:	69 70       	CMP       R6, R9
     a5c:	02 f9       	JLS       $+2                   ;->0xa60
     a5e:	60 18       	MOV       R6, #128			;->0x0080
##@@@P_:md5.c:278
##@@@L0273_:        if (read_len > sizeof(input_buffer))   
##@@@L0274_:        {   
##@@@L0275_:            read_len = sizeof(input_buffer);   
##@@@L0276_:        }   
##@@@L0277_:
##@@@L0278_:        flash_read_buf(start_addr + offset, input_buffer, read_len);   
     a60:	aa 58       	MOV       R5, R10
     a62:	47 c3       	ADD       R0, R7, R5
     a64:	2e 58       	MOV       R1, SP
     a66:	46 58       	MOV       R2, R6
     a68:	9f 00 ea fb 	LJMP      $-1046    ;->0x23c  23c <flash_read_buf>
##@@@P_:md5.c:279
##@@@L0279_:        md5_update(input_buffer, read_len);   
     a6c:	0e 58       	MOV       R0, SP
     a6e:	26 58       	MOV       R1, R6
     a70:	9f 00 30 ff 	LJMP      $-208     ;->0x8d0  8d0 <md5_update>
##@@@P_:md5.c:281
##@@@L0280_:
##@@@L0281_:        offset += read_len;   
     a74:	bf c3       	ADD       R7, R7, R6
##@@@P_:md5.c:270
##@@@L0265_:    uint32_t offset = 0;   
##@@@L0266_:    uint32_t read_len = 0;   
##@@@L0267_:
##@@@L0268_:    md5_init();   
##@@@L0269_:
##@@@L0270_:    while (offset < size)   
     a76:	87 70       	CMP       R8, R7
     a78:	ef f8       	JHI       $-17                  ;->0xa56
##@@@P_:md5.c:284
##@@@L0279_:        md5_update(input_buffer, read_len);   
##@@@L0280_:
##@@@L0281_:        offset += read_len;   
##@@@L0282_:    }   
##@@@L0283_:
##@@@L0284_:    md5_finalize(result);   
     a7a:	0b 58       	MOV       R0, R11
     a7c:	9f 00 70 ff 	LJMP      $-144     ;->0x95c  95c <md5_finalize>
##@@@P_:md5.c:285
##@@@L0285_:}   
     a80:	50 18       	MOV       R5, #128			;->0x0080
     a82:	e5 64       	ADD       SP, R5
     a84:	3f 5e       	POP       {R6-R11}
     a86:	0d 5d       	POP       LR
     a88:	1d 5c       	JMP       LR
     a8a:	00 00       	NOP      NOP      
     a8c:	c0 06 00 10 	.long     0x100006c0 ->268437184  [!!!@2@:SJMP      $-320                 ;->0x80c	@@: MOV       R0, #0
     a90:	01 23 45 67 	.long     0x67452301 ->1732584193  [!!!@2@:ST.W      [SP + #1], R3	@@: SUBC      R4, R5
     a94:	89 ab cd ef 	.long     0xefcdab89 ->-271733879  [!!!@2@:LD.H      R1, [R1 + #14]	@@: ST.W      [R1 + R7], R5
     a98:	fe dc ba 98 	.long     0x98badcfe ->-1732584194  [!!!@2@:LSR       R7, R6, R3	@@: LD.W      R7, [R2 + #2]
     a9c:	76 54 32 10 	.long     0x10325476 ->271733878  [!!!@2@:JB        SP, #6	@@: MOV       R3, #2

00000aa0 <is_app_valid>:
##@@@F_:get_appstackpointer():
##@@@P_:ota_boot.c:17
##@@@L0012_: * @param  app_addr: App ķ”¢Õ£░ÕØĆ   
##@@@L0013_: * @return * App ńÜäÕłØÕ¦ŗõĖ╗ÕĀåµĀłµīćķÆłÕĆ╝   
##@@@L0014_: */   
##@@@L0015_:static uint32_t get_appstackpointer(uint32_t app_addr)   
##@@@L0016_:{   
##@@@L0017_:    return (*((volatile uint32_t*)app_addr));   
     aa0:	50 82       	LD.W      R5, [R0]
##@@@F_:is_app_valid():
##@@@P_:ota_boot.c:40
##@@@L0035_: */   
##@@@L0036_:uint8_t is_app_valid(uint32_t app_addr)   
##@@@L0037_:{   
##@@@L0038_:    uint32_t app_stack = get_appstackpointer(app_addr);   
##@@@L0039_:
##@@@L0040_:    if ((app_stack < SRAM_START_ADDR) || (app_stack > SRAM_END_ADDR) || ((app_stack & 0x3U) != 0U))   
     aa2:	31 10       	MOV       R3, #1			;->0x0001
     aa4:	9c 7b       	LSL       R3, #28			;->0x1C
     aa6:	dd c6       	SUB       R3, R5, R3
##@@@P_:ota_boot.c:42
##@@@L0041_:    {   
##@@@L0042_:        return 0;   
     aa8:	00 10       	MOV       R0, #0			;->0x0000
##@@@P_:ota_boot.c:40
##@@@L0035_: */   
##@@@L0036_:uint8_t is_app_valid(uint32_t app_addr)   
##@@@L0037_:{   
##@@@L0038_:    uint32_t app_stack = get_appstackpointer(app_addr);   
##@@@L0039_:
##@@@L0040_:    if ((app_stack < SRAM_START_ADDR) || (app_stack > SRAM_END_ADDR) || ((app_stack & 0x3U) != 0U))   
     aaa:	06 44       	LD        R4, [PC + #6]         ;->0xac0  :=0x18000
     aac:	34 70       	CMP       R3, R4
     aae:	07 f8       	JHI       $+7                   ;->0xabc
##@@@P_:ota_boot.c:40 (discriminator 1)
     ab0:	43 10       	MOV       R4, #3			;->0x0003
     ab2:	2d d5       	ANL       R5, R5, R4
     ab4:	41 10       	MOV       R4, #1			;->0x0001
     ab6:	50 70       	CMP       R5, R0
     ab8:	06 f1       	JNZ       $+6                   ;->0xac4
##@@@P_:ota_boot.c:42
##@@@L0041_:    {   
##@@@L0042_:        return 0;   
     aba:	04 d1       	ZXT.B     R0, R4
##@@@P_:ota_boot.c:46
##@@@L0043_:    }   
##@@@L0044_:
##@@@L0045_:    return 1;   
##@@@L0046_:}   
     abc:	1d 5c       	JMP       LR
     abe:	00 00       	NOP      NOP      
     ac0:	00 80 01 00 	.long     0x00018000 ->000098304  [!!!@2@:LD.B      R0, [R0]	@@: .short    0x0001
##@@@P_:ota_boot.c:40 (discriminator 1)
##@@@L0035_: */   
##@@@L0036_:uint8_t is_app_valid(uint32_t app_addr)   
##@@@L0037_:{   
##@@@L0038_:    uint32_t app_stack = get_appstackpointer(app_addr);   
##@@@L0039_:
##@@@L0040_:    if ((app_stack < SRAM_START_ADDR) || (app_stack > SRAM_END_ADDR) || ((app_stack & 0x3U) != 0U))   
     ac4:	80 58       	MOV       R4, R0
##@@@P_:ota_boot.c:42
##@@@L0041_:    {   
##@@@L0042_:        return 0;   
     ac6:	04 d1       	ZXT.B     R0, R4
     ac8:	fa 07       	SJMP      $-6                   ;->0xabc
	...

00000acc <jump_to_app>:
##@@@F_:jump_to_app():
##@@@P_:ota_boot.c:54
##@@@L0049_: * @brief : ĶĘ│ĶĮ¼Õł░ App ń©ŗÕ║Åµē¦ĶĪī   
##@@@L0050_: * @param  app_addr: App ķ”¢Õ£░ÕØĆ   
##@@@L0051_: * @return * µŚĀ   
##@@@L0052_: */   
##@@@L0053_:__attribute__((noreturn)) void jump_to_app(uint32_t app_addr)   
##@@@L0054_:{   
     acc:	2d 5d       	PUSH      LR
##@@@P_:ota_boot.c:55
##@@@L0055_:    SYS_VECTOFF = app_addr; //Ķ«ŠńĮ«ÕÉæķćÅĶĪ©ÕüÅń¦╗ÕĆ╝’╝īÕŹ│ķćŹµśĀÕ░äÕÉæķćÅĶĪ©’╝īĶ┐ÖÕ»╣õĖŁµ¢Łµ£ŹÕŖĪÕćĮµĢ░µŁŻńĪ«µē¦ĶĪīĶć│Õģ│ķćŹĶ”ü   
     ace:	03 45       	LD        R5, [PC + #3]         ;->0xad8  :=0x402000b0
     ad0:	e8 a0       	ST.W      [R5 + #3], R0
##@@@F_:get_jumpaddress():
##@@@P_:ota_boot.c:27
##@@@L0022_: * @param  app_addr: App ķ”¢Õ£░ÕØĆ   
##@@@L0023_: * @return * App ńÜä Reset_Handler Õ£░ÕØĆ   
##@@@L0024_: */   
##@@@L0025_:static uint32_t get_jumpaddress(uint32_t app_addr)   
##@@@L0026_:{   
##@@@L0027_:    return (*((volatile uint32_t*)(app_addr + 4U)));   
     ad2:	68 98       	LD.W      R5, [R0 + #1]
##@@@F_:jump_to_app():
##@@@P_:ota_boot.c:59
##@@@L0054_:{   
##@@@L0055_:    SYS_VECTOFF = app_addr; //Ķ«ŠńĮ«ÕÉæķćÅĶĪ©ÕüÅń¦╗ÕĆ╝’╝īÕŹ│ķćŹµśĀÕ░äÕÉæķćÅĶĪ©’╝īĶ┐ÖÕ»╣õĖŁµ¢Łµ£ŹÕŖĪÕćĮµĢ░µŁŻńĪ«µē¦ĶĪīĶć│Õģ│ķćŹĶ”ü   
##@@@L0056_:    uint32_t jump_address = get_jumpaddress(app_addr); //ĶÄĘÕÅ¢APPńÜästartup()ÕģźÕÅŻÕ£░ÕØĆ   
##@@@L0057_:    pFunction jump_to_app = (pFunction)jump_address; //Õ░åstartup()ÕģźÕÅŻÕ£░ÕØĆĶĄŗÕĆ╝ń╗ÖÕćĮµĢ░µīćķÆł   
##@@@L0058_:
##@@@L0059_:    jump_to_app(); //õĮ┐ńö©µ¢░ńÜäÕćĮµĢ░µīćķÆł’╝īĶĮ¼ÕÉæµē¦ĶĪīAPPńÜästartup()ÕćĮµĢ░’╝īĶ┐ÖÕ░åÕ»╝Ķć┤APPń©ŗÕ║ÅÕÉ»ÕŖ©   
     ad4:	05 5c       	LJMP      R5  ; <????>
     ad6:	00 00       	NOP      NOP      
     ad8:	b0 00 20 40 	.long     0x402000b0 ->1075839152 

00000adc <ota_app_verify>:
##@@@F_:ota_app_verify():
##@@@P_:ota_boot.c:82
##@@@L0077_: * @brief : Ķ»╗ÕÅ¢ÕŹćń║¦µĀćÕ┐ŚÕ╣ČµĀĪķ¬īAPP2Õżćõ╗ĮÕī║Õø║õ╗Č’╝īµĀĪķ¬īÕåģÕ«╣ÕīģÕÉ½ń┤»ÕŖĀÕÆīõĖÄMD5   
##@@@L0078_: * @param : µŚĀ   
##@@@L0079_: * @return : µŚĀ   
##@@@L0080_: */   
##@@@L0081_:uint8_t ota_app_verify(void)   
##@@@L0082_:{   
     adc:	81 5f       	PUSH      {R6,LR}
     ade:	e0 31       	SUB       SP, #16			;->0x10
##@@@P_:ota_boot.c:87
##@@@L0083_:    uint32_t byte_index = 0;   
##@@@L0084_:    uint32_t checksum = 0;   
##@@@L0085_:    uint8_t md5_result[16];   
##@@@L0086_:
##@@@L0087_:    flash_read_buf(SEC_OTA_FLAG_ADDRESS, (uint8_t*)&ota_info, sizeof(ota_info));   
     ae0:	08 46       	LD        R6, [PC + #8]         ;->0xb00  :=0x10000728
     ae2:	09 40       	LD        R0, [PC + #9]         ;->0xb04  :=0x3f800
     ae4:	26 58       	MOV       R1, R6
     ae6:	28 11       	MOV       R2, #24			;->0x0018
     ae8:	9f 00 aa fb 	LJMP      $-1110    ;->0x23c  23c <flash_read_buf>
##@@@P_:ota_boot.c:97
##@@@L0092_:    {   
##@@@L0093_:        OTA_BOOT_PRINTF("%02x", ota_info.md5[i]);   
##@@@L0094_:    }   
##@@@L0095_:    OTA_BOOT_PRINTF("\r\n");   
##@@@L0096_:
##@@@L0097_:    if (ota_info.iap_flg != IAP_FLG)   
     aec:	46 82       	LD.W      R4, [R6]
##@@@P_:ota_boot.c:99
##@@@L0098_:    {   
##@@@L0099_:        return 1;   
     aee:	01 10       	MOV       R0, #1			;->0x0001
##@@@P_:ota_boot.c:97
##@@@L0092_:    {   
##@@@L0093_:        OTA_BOOT_PRINTF("%02x", ota_info.md5[i]);   
##@@@L0094_:    }   
##@@@L0095_:    OTA_BOOT_PRINTF("\r\n");   
##@@@L0096_:
##@@@L0097_:    if (ota_info.iap_flg != IAP_FLG)   
     af0:	06 45       	LD        R5, [PC + #6]         ;->0xb08  :=0x56ab56ab
     af2:	45 70       	CMP       R4, R5
     af4:	0c f0       	JZ        $+12                  ;->0xb0c
##@@@P_:ota_boot.c:121
##@@@L0116_:    {   
##@@@L0117_:        return 1;   
##@@@L0118_:    }   
##@@@L0119_:
##@@@L0120_:    return 0;   
##@@@L0121_:}   
     af6:	e0 29       	ADD       SP, #16			;->0x10
     af8:	06 5d       	POP       R6
     afa:	0d 5d       	POP       LR
     afc:	1d 5c       	JMP       LR
     afe:	00 00       	NOP      NOP      
     b00:	28 07 00 10 	.long     0x10000728 ->268437288  [!!!@2@:SJMP      $-216                 ;->0x950	@@: MOV       R0, #0
     b04:	00 f8 03 00 	.long     0x0003f800 ->000260096 
     b08:	ab 56 ab 56 	.long     0x56ab56ab ->1454069419  [!!!@2@:JNB       R5, #11	@@: JNB       R5, #11
##@@@P_:ota_boot.c:102
##@@@L0097_:    if (ota_info.iap_flg != IAP_FLG)   
##@@@L0098_:    {   
##@@@L0099_:        return 1;   
##@@@L0100_:    }   
##@@@L0101_:
##@@@L0102_:    if ((ota_info.fw_len == 0) || (ota_info.fw_len > APP2_FLASH_SIZE))   
     b0c:	4e 98       	LD.W      R1, [R6 + #1]
     b0e:	21 c6       	SUB       R4, R1, R0
     b10:	0a 45       	LD        R5, [PC + #10]        ;->0xb38  :=0x187ff
     b12:	45 70       	CMP       R4, R5
     b14:	f1 f8       	JHI       $-15                  ;->0xaf6
##@@@P_:ota_boot.c:113
##@@@L0108_:    // if (checksum != ota_info.checksum)   
##@@@L0109_:    // {   
##@@@L0110_:    //     return 1;   
##@@@L0111_:    // }   
##@@@L0112_:
##@@@L0113_:    md5_flash(APP2_FLASH_START_ADDR, ota_info.fw_len, md5_result);   
     b16:	0a 40       	LD        R0, [PC + #10]        ;->0xb3c  :=0x1b800
     b18:	4e 58       	MOV       R2, SP
     b1a:	9f 00 87 ff 	LJMP      $-121     ;->0xa28  a28 <md5_flash>
##@@@P_:ota_boot.c:115
##@@@L0114_:
##@@@L0115_:    if (memcmp(md5_result, ota_info.md5, sizeof(md5_result)) != 0)   
     b1e:	0e 58       	MOV       R0, SP
     b20:	08 41       	LD        R1, [PC + #8]         ;->0xb40  :=0x10000730
     b22:	20 11       	MOV       R2, #16			;->0x0010
     b24:	80 00 84 07 	LJMP      $+1924    ;->0x1a2c  1a2c <memcmp>
     b28:	50 10       	MOV       R5, #0			;->0x0000
     b2a:	2d c6       	SUB       R5, R5, R0
     b2c:	05 d6       	ORL       R0, R5, R0
##@@@P_:ota_boot.c:99
##@@@L0094_:    }   
##@@@L0095_:    OTA_BOOT_PRINTF("\r\n");   
##@@@L0096_:
##@@@L0097_:    if (ota_info.iap_flg != IAP_FLG)   
##@@@L0098_:    {   
##@@@L0099_:        return 1;   
     b2e:	87 7d       	LSR       R0, #31			;->0x1F
##@@@P_:ota_boot.c:121
##@@@L0116_:    {   
##@@@L0117_:        return 1;   
##@@@L0118_:    }   
##@@@L0119_:
##@@@L0120_:    return 0;   
##@@@L0121_:}   
     b30:	e0 29       	ADD       SP, #16			;->0x10
     b32:	06 5d       	POP       R6
     b34:	0d 5d       	POP       LR
     b36:	1d 5c       	JMP       LR
     b38:	ff 87 01 00 	.long     0x000187ff ->000100351  [!!!@2@:LDS.B     PC, [PC]	@@: .short    0x0001
     b3c:	00 b8 01 00 	.long     0x0001b800 ->000112640  [!!!@2@:LDP.B     R0, [R0] << #0	@@: .short    0x0001
     b40:	30 07 00 10 	.long     0x10000730 ->268437296  [!!!@2@:SJMP      $-208                 ;->0x9a0	@@: MOV       R0, #0

00000b44 <ota_info_clear>:
##@@@F_:ota_info_clear():
##@@@P_:ota_boot.c:129
##@@@L0124_: * @brief : µĖģķÖżÕŹćń║¦õ┐Īµü»µĀćÕ┐ŚķĪĄ   
##@@@L0125_: * @param : µŚĀ   
##@@@L0126_: * @return : µŚĀ   
##@@@L0127_: */   
##@@@L0128_:void ota_info_clear(void)   
##@@@L0129_:{   
     b44:	2d 5d       	PUSH      LR
##@@@P_:ota_boot.c:130
##@@@L0130_:    flash_erase_page(SEC_OTA_FLAG_ADDRESS);   
     b46:	0a 40       	LD        R0, [PC + #10]        ;->0xb6c  :=0x3f800
     b48:	9f 00 5c fb 	LJMP      $-1188    ;->0x200  200 <flash_erase_page>
##@@@P_:ota_boot.c:131
##@@@L0131_:    memset(&ota_info, 0, sizeof(ota_info));   
     b4c:	40 10       	MOV       R4, #0			;->0x0000
     b4e:	09 45       	LD        R5, [PC + #9]         ;->0xb70  :=0x10000728
     b50:	54 85       	ST.W      [R5], R4
     b52:	09 45       	LD        R5, [PC + #9]         ;->0xb74  :=0x1000072c
     b54:	54 85       	ST.W      [R5], R4
     b56:	09 45       	LD        R5, [PC + #9]         ;->0xb78  :=0x10000730
     b58:	54 85       	ST.W      [R5], R4
     b5a:	09 45       	LD        R5, [PC + #9]         ;->0xb7c  :=0x10000734
     b5c:	54 85       	ST.W      [R5], R4
     b5e:	09 45       	LD        R5, [PC + #9]         ;->0xb80  :=0x10000738
     b60:	54 85       	ST.W      [R5], R4
     b62:	09 45       	LD        R5, [PC + #9]         ;->0xb84  :=0x1000073c
     b64:	54 85       	ST.W      [R5], R4
##@@@P_:ota_boot.c:132
##@@@L0132_:}   
     b66:	0d 5d       	POP       LR
     b68:	1d 5c       	JMP       LR
     b6a:	00 00       	NOP      NOP      
     b6c:	00 f8 03 00 	.long     0x0003f800 ->000260096 
     b70:	28 07 00 10 	.long     0x10000728 ->268437288  [!!!@2@:SJMP      $-216                 ;->0x9c0	@@: MOV       R0, #0
     b74:	2c 07 00 10 	.long     0x1000072c ->268437292  [!!!@2@:SJMP      $-212                 ;->0x9cc	@@: MOV       R0, #0
     b78:	30 07 00 10 	.long     0x10000730 ->268437296  [!!!@2@:SJMP      $-208                 ;->0x9d8	@@: MOV       R0, #0
     b7c:	34 07 00 10 	.long     0x10000734 ->268437300  [!!!@2@:SJMP      $-204                 ;->0x9e4	@@: MOV       R0, #0
     b80:	38 07 00 10 	.long     0x10000738 ->268437304  [!!!@2@:SJMP      $-200                 ;->0x9f0	@@: MOV       R0, #0
     b84:	3c 07 00 10 	.long     0x1000073c ->268437308  [!!!@2@:SJMP      $-196                 ;->0x9fc	@@: MOV       R0, #0

00000b88 <ota_app_update>:
##@@@F_:ota_app_update():
##@@@P_:ota_boot.c:140
##@@@L0135_: * @brief : Õ░åAPP2Õżćõ╗ĮÕī║Õø║õ╗ČÕåģÕ«╣µÉ¼Ķ┐ÉÕł░APP1   
##@@@L0136_: * @param : µŚĀ   
##@@@L0137_: * @return : µŚĀ   
##@@@L0138_: */   
##@@@L0139_:void ota_app_update(void)   
##@@@L0140_:{   
     b88:	9f 5f       	PUSH      {R6-R10,LR}
     b8a:	51 10       	MOV       R5, #1			;->0x0001
     b8c:	aa 7a       	LSL       R5, #10			;->0x0A
     b8e:	e5 66       	SUB       SP, R5
##@@@P_:ota_boot.c:142
##@@@L0141_:    uint32_t buffer[256];   
##@@@L0142_:    uint32_t len = ota_info.fw_len;   
     b90:	15 45       	LD        R5, [PC + #21]        ;->0xbe4  :=0x10000728
     b92:	75 98       	LD.W      R6, [R5 + #1]
##@@@P_:ota_boot.c:147
##@@@L0143_:    uint32_t addr_read = APP2_FLASH_START_ADDR;   
##@@@L0144_:    uint32_t addr_write = APP1_FLASH_START_ADDR;   
##@@@L0145_:
##@@@L0146_:    /*µō”ķÖżAPP1Õī║*/   
##@@@L0147_:    flash_erase_range(APP1_FLASH_START_ADDR, APP1_FLASH_START_ADDR + APP1_FLASH_SIZE);   
     b94:	15 40       	LD        R0, [PC + #21]        ;->0xbe8  :=0x3000
     b96:	16 41       	LD        R1, [PC + #22]        ;->0xbec  :=0x1b800
     b98:	9f 00 3c fb 	LJMP      $-1220    ;->0x210  210 <flash_erase_range>
##@@@P_:ota_boot.c:150
##@@@L0148_:
##@@@L0149_:    /*µÉ¼Ķ┐ÉAPP2Õżćõ╗ĮÕī║Õø║õ╗ČÕåģÕ«╣Õł░APP1*/   
##@@@L0150_:    while (len)   
     b9c:	60 38       	CMP       R6, #0			;->0x00
     b9e:	1c f0       	JZ        $+28                  ;->0xbd6
##@@@P_:ota_boot.c:152
##@@@L0151_:    {   
##@@@L0152_:        if (len >= sizeof(buffer))   
     ba0:	14 45       	LD        R5, [PC + #20]        ;->0xbf0  :=0x3ff
     ba2:	65 70       	CMP       R6, R5
     ba4:	28 f9       	JLS       $+40                  ;->0xbf4
     ba6:	11 44       	LD        R4, [PC + #17]        ;->0xbe8  :=0x3000
     ba8:	04 59       	MOV       R8, R4
     baa:	11 47       	LD        R7, [PC + #17]        ;->0xbec  :=0x1b800
##@@@P_:ota_boot.c:154
##@@@L0153_:        {   
##@@@L0154_:            flash_read_buf(addr_read, (uint8_t*)buffer, sizeof(buffer));   
     bac:	91 10       	MOV       R9, #1			;->0x0001
     bae:	ca 7a       	LSL       R9, #10			;->0x0A
##@@@P_:ota_boot.c:152
##@@@L0147_:    flash_erase_range(APP1_FLASH_START_ADDR, APP1_FLASH_START_ADDR + APP1_FLASH_SIZE);   
##@@@L0148_:
##@@@L0149_:    /*µÉ¼Ķ┐ÉAPP2Õżćõ╗ĮÕī║Õø║õ╗ČÕåģÕ«╣Õł░APP1*/   
##@@@L0150_:    while (len)   
##@@@L0151_:    {   
##@@@L0152_:        if (len >= sizeof(buffer))   
     bb0:	45 59       	MOV       R10, R5
     bb2:	03 04       	SJMP      $+3                   ;->0xbb8
     bb4:	6a 70       	CMP       R6, R10
     bb6:	22 f9       	JLS       $+34                  ;->0xbfa
##@@@P_:ota_boot.c:154
##@@@L0153_:        {   
##@@@L0154_:            flash_read_buf(addr_read, (uint8_t*)buffer, sizeof(buffer));   
     bb8:	07 58       	MOV       R0, R7
     bba:	2e 58       	MOV       R1, SP
     bbc:	21 10       	MOV       R2, #1			;->0x0001
     bbe:	92 7a       	LSL       R2, #10			;->0x0A
     bc0:	9f 00 3e fb 	LJMP      $-1218    ;->0x23c  23c <flash_read_buf>
##@@@P_:ota_boot.c:156
##@@@L0155_:
##@@@L0156_:            flash_write_page(addr_write, buffer);   
     bc4:	08 58       	MOV       R0, R8
     bc6:	2e 58       	MOV       R1, SP
     bc8:	9f 00 8a fb 	LJMP      $-1142    ;->0x2dc  2dc <flash_write_page>
##@@@P_:ota_boot.c:158
##@@@L0157_:
##@@@L0158_:            len -= sizeof(buffer);   
     bcc:	69 66       	SUB       R6, R9
##@@@P_:ota_boot.c:159
##@@@L0159_:            addr_read += sizeof(buffer);   
     bce:	79 64       	ADD       R7, R9
##@@@P_:ota_boot.c:160
##@@@L0160_:            addr_write += sizeof(buffer);   
     bd0:	89 64       	ADD       R8, R9
##@@@P_:ota_boot.c:150
##@@@L0145_:
##@@@L0146_:    /*µō”ķÖżAPP1Õī║*/   
##@@@L0147_:    flash_erase_range(APP1_FLASH_START_ADDR, APP1_FLASH_START_ADDR + APP1_FLASH_SIZE);   
##@@@L0148_:
##@@@L0149_:    /*µÉ¼Ķ┐ÉAPP2Õżćõ╗ĮÕī║Õø║õ╗ČÕåģÕ«╣Õł░APP1*/   
##@@@L0150_:    while (len)   
     bd2:	60 38       	CMP       R6, #0			;->0x00
     bd4:	f0 f1       	JNZ       $-16                  ;->0xbb4
##@@@P_:ota_boot.c:171
##@@@L0166_:            flash_write_buf(addr_write, (uint8_t*)buffer, len);   
##@@@L0167_:
##@@@L0168_:            break;   
##@@@L0169_:        }   
##@@@L0170_:    }   
##@@@L0171_:}   
     bd6:	51 10       	MOV       R5, #1			;->0x0001
     bd8:	aa 7a       	LSL       R5, #10			;->0x0A
     bda:	e5 64       	ADD       SP, R5
     bdc:	1f 5e       	POP       {R6-R10}
     bde:	0d 5d       	POP       LR
     be0:	1d 5c       	JMP       LR
     be2:	00 00       	NOP      NOP      
     be4:	28 07 00 10 	.long     0x10000728 ->268437288  [!!!@2@:SJMP      $-216                 ;->0xa34	@@: MOV       R0, #0
     be8:	00 30 00 00 	.long     0x00003000 ->000012288  [!!!@2@:SUB       R0, #0	@@: NOP      
     bec:	00 b8 01 00 	.long     0x0001b800 ->000112640  [!!!@2@:LDP.B     R0, [R0] << #0	@@: .short    0x0001
     bf0:	ff 03 00 00 	.long     0x000003ff ->000001023  [!!!@4@:JMP       $-65536               ;->0xfffe0bf0
##@@@P_:ota_boot.c:144
##@@@L0139_:void ota_app_update(void)   
##@@@L0140_:{   
##@@@L0141_:    uint32_t buffer[256];   
##@@@L0142_:    uint32_t len = ota_info.fw_len;   
##@@@L0143_:    uint32_t addr_read = APP2_FLASH_START_ADDR;   
##@@@L0144_:    uint32_t addr_write = APP1_FLASH_START_ADDR;   
     bf4:	0a 45       	LD        R5, [PC + #10]        ;->0xc1c  :=0x3000
     bf6:	05 59       	MOV       R8, R5
##@@@P_:ota_boot.c:143
##@@@L0138_: */   
##@@@L0139_:void ota_app_update(void)   
##@@@L0140_:{   
##@@@L0141_:    uint32_t buffer[256];   
##@@@L0142_:    uint32_t len = ota_info.fw_len;   
##@@@L0143_:    uint32_t addr_read = APP2_FLASH_START_ADDR;   
     bf8:	0a 47       	LD        R7, [PC + #10]        ;->0xc20  :=0x1b800
##@@@P_:ota_boot.c:164
##@@@L0159_:            addr_read += sizeof(buffer);   
##@@@L0160_:            addr_write += sizeof(buffer);   
##@@@L0161_:        }   
##@@@L0162_:        else   
##@@@L0163_:        {   
##@@@L0164_:            flash_read_buf(addr_read, (uint8_t*)buffer, len);   
     bfa:	07 58       	MOV       R0, R7
     bfc:	2e 58       	MOV       R1, SP
     bfe:	46 58       	MOV       R2, R6
     c00:	9f 00 1e fb 	LJMP      $-1250    ;->0x23c  23c <flash_read_buf>
##@@@P_:ota_boot.c:166
##@@@L0165_:
##@@@L0166_:            flash_write_buf(addr_write, (uint8_t*)buffer, len);   
     c04:	08 58       	MOV       R0, R8
     c06:	2e 58       	MOV       R1, SP
     c08:	46 58       	MOV       R2, R6
     c0a:	9f 00 37 fb 	LJMP      $-1225    ;->0x278  278 <flash_write_buf>
##@@@P_:ota_boot.c:171
##@@@L0167_:
##@@@L0168_:            break;   
##@@@L0169_:        }   
##@@@L0170_:    }   
##@@@L0171_:}   
     c0e:	51 10       	MOV       R5, #1			;->0x0001
     c10:	aa 7a       	LSL       R5, #10			;->0x0A
     c12:	e5 64       	ADD       SP, R5
     c14:	1f 5e       	POP       {R6-R10}
     c16:	0d 5d       	POP       LR
     c18:	1d 5c       	JMP       LR
     c1a:	00 00       	NOP      NOP      
     c1c:	00 30 00 00 	.long     0x00003000 ->000012288  [!!!@2@:SUB       R0, #0	@@: NOP      
     c20:	00 b8 01 00 	.long     0x0001b800 ->000112640  [!!!@2@:LDP.B     R0, [R0] << #0	@@: .short    0x0001

00000c24 <kf_eval_usart_init>:
##@@@F_:kf_eval_usart_init():
##@@@P_:KF32_EVAL.c:124
##@@@L0119_:  * Ķ┐öÕø×  µŚĀŃĆé   
##@@@L0120_:  */   
##@@@L0121_:void kf_eval_led_off(led_typedef Led)   
##@@@L0122_:{   
##@@@L0123_:	GPIO_Set_Output_Data_Bits(GPIO_PORT[Led],GPIO_PIN[Led],Bit_RESET);				//Ķ«ŠńĮ«õĖ║õĮÄńöĄÕ╣│   
##@@@L0124_:}   
     c24:	9f 5f       	PUSH      {R6-R10,LR}
     c26:	e4 33       	SUB       SP, #52			;->0x34
     c28:	c0 58       	MOV       R6, R0
     c2a:	03 38       	CMP       R0, #3			;->0x03
     c2c:	05 f9       	JLS       $+5                   ;->0xc36
     c2e:	e4 2b       	ADD       SP, #52			;->0x34
     c30:	1f 5e       	POP       {R6-R10}
     c32:	0d 5d       	POP       LR
     c34:	1d 5c       	JMP       LR
     c36:	60 58       	MOV       R3, R0
     c38:	1a 7a       	LSL       R3, #2			;->0x02
     c3a:	23 59       	MOV       R9, R3
     c3c:	31 45       	LD        R5, [PC + #49]        ;->0xd00  :=0x2154
     c3e:	fd e8       	LD.W      R7, [R5 + R3]
     c40:	20 c2       	ADD       R4, R0, R0
     c42:	04 59       	MOV       R8, R4
     c44:	30 45       	LD        R5, [PC + #48]        ;->0xd04  :=0x2164
     c46:	2d e7       	LD.H      R5, [R5 + R4]
     c48:	a5 d0       	ZXT.H     R10, R5
     c4a:	07 58       	MOV       R0, R7
     c4c:	2a 58       	MOV       R1, R10
     c4e:	22 10       	MOV       R2, #2			;->0x0002
     c50:	80 00 25 02 	LJMP      $+549     ;->0x109a  109a <GPIO_Write_Mode_Bits>
     c54:	07 58       	MOV       R0, R7
     c56:	2d 45       	LD        R5, [PC + #45]        ;->0xd08  :=0x216c
     c58:	68 58       	MOV       R3, R8
     c5a:	ed e6       	LD.H      R5, [R5 + R3]
     c5c:	15 d0       	ZXT.H     R1, R5
     c5e:	2c 45       	LD        R5, [PC + #44]        ;->0xd0c  :=0x2174
     c60:	95 e5       	LD.B      R2, [R5 + R6]
     c62:	80 00 37 02 	LJMP      $+567     ;->0x10d0  10d0 <GPIO_Pin_RMP_Config>
     c66:	07 58       	MOV       R0, R7
     c68:	2a 58       	MOV       R1, R10
     c6a:	21 10       	MOV       R2, #1			;->0x0001
     c6c:	80 00 08 02 	LJMP      $+520     ;->0x107c  107c <GPIO_Pin_Lock_Config>
     c70:	28 45       	LD        R5, [PC + #40]        ;->0xd10  :=0x2178
     c72:	88 58       	MOV       R4, R8
     c74:	2d e7       	LD.H      R5, [R5 + R4]
     c76:	a5 d0       	ZXT.H     R10, R5
     c78:	07 58       	MOV       R0, R7
     c7a:	2a 58       	MOV       R1, R10
     c7c:	22 10       	MOV       R2, #2			;->0x0002
     c7e:	80 00 0e 02 	LJMP      $+526     ;->0x109a  109a <GPIO_Write_Mode_Bits>
     c82:	07 58       	MOV       R0, R7
     c84:	24 45       	LD        R5, [PC + #36]        ;->0xd14  :=0x2180
     c86:	68 58       	MOV       R3, R8
     c88:	ed e6       	LD.H      R5, [R5 + R3]
     c8a:	15 d0       	ZXT.H     R1, R5
     c8c:	23 45       	LD        R5, [PC + #35]        ;->0xd18  :=0x2188
     c8e:	95 e5       	LD.B      R2, [R5 + R6]
     c90:	80 00 20 02 	LJMP      $+544     ;->0x10d0  10d0 <GPIO_Pin_RMP_Config>
     c94:	07 58       	MOV       R0, R7
     c96:	2a 58       	MOV       R1, R10
     c98:	21 10       	MOV       R2, #1			;->0x0001
     c9a:	80 00 f1 01 	LJMP      $+497     ;->0x107c  107c <GPIO_Pin_Lock_Config>
     c9e:	0e 58       	MOV       R0, SP
     ca0:	80 00 a8 04 	LJMP      $+1192    ;->0x15f0  15f0 <USART_Struct_Init>
     ca4:	50 10       	MOV       R5, #0			;->0x0000
     ca6:	e5 85       	ST.W      [SP], R5
     ca8:	1d 44       	LD        R4, [PC + #29]        ;->0xd1c  :=0x18000
     caa:	02 24       	ST.W      [SP + #2], R4
     cac:	03 25       	ST.W      [SP + #3], R5
     cae:	04 25       	ST.W      [SP + #4], R5
     cb0:	42 10       	MOV       R4, #2			;->0x0002
     cb2:	96 e2       	ST.H      [SP + #22], R4
     cb4:	1b 44       	LD        R4, [PC + #27]        ;->0xd20  :=0x218c
     cb6:	69 58       	MOV       R3, R9
     cb8:	e4 e8       	LD.W      R4, [R4 + R3]
     cba:	1b 43       	LD        R3, [PC + #27]        ;->0xd24  :=0x1c200
     cbc:	43 70       	CMP       R4, R3
     cbe:	3e f0       	JZ        $+62                  ;->0xd3a
     cc0:	1a 43       	LD        R3, [PC + #26]        ;->0xd28  :=0x2580
     cc2:	43 70       	CMP       R4, R3
     cc4:	36 f0       	JZ        $+54                  ;->0xd30
     cc6:	1a 45       	LD        R5, [PC + #26]        ;->0xd2c  :=0x219c
     cc8:	89 58       	MOV       R4, R9
     cca:	35 e9       	LD.W      R6, [R5 + R4]
     ccc:	06 58       	MOV       R0, R6
     cce:	80 00 b3 03 	LJMP      $+947     ;->0x1434  1434 <USART_Reset>
     cd2:	06 58       	MOV       R0, R6
     cd4:	2e 58       	MOV       R1, SP
     cd6:	80 00 5f 04 	LJMP      $+1119    ;->0x1594  1594 <USART_Configuration>
     cda:	06 58       	MOV       R0, R6
     cdc:	10 10       	MOV       R1, #0			;->0x0000
     cde:	80 00 a9 04 	LJMP      $+1193    ;->0x1630  1630 <USART_Passageway_Select_Config>
     ce2:	06 58       	MOV       R0, R6
     ce4:	80 00 ad 04 	LJMP      $+1197    ;->0x163e  163e <USART_Clear_Transmit_BUFR_INT_Flag>
     ce8:	06 58       	MOV       R0, R6
     cea:	11 10       	MOV       R1, #1			;->0x0001
     cec:	80 00 9c 04 	LJMP      $+1180    ;->0x1624  1624 <USART_RESHD_Enable>
     cf0:	06 58       	MOV       R0, R6
     cf2:	11 10       	MOV       R1, #1			;->0x0001
     cf4:	80 00 92 04 	LJMP      $+1170    ;->0x1618  1618 <USART_Cmd>
     cf8:	e4 2b       	ADD       SP, #52			;->0x34
     cfa:	1f 5e       	POP       {R6-R10}
     cfc:	0d 5d       	POP       LR
     cfe:	1d 5c       	JMP       LR
     d00:	54 21 00 00 	.long     0x00002154 ->000008532  [!!!@2@:ST.W      [SP + #84], R1	@@: NOP      
     d04:	64 21 00 00 	.long     0x00002164 ->000008548  [!!!@2@:ST.W      [SP + #100], R1	@@: NOP      
     d08:	6c 21 00 00 	.long     0x0000216c ->000008556  [!!!@2@:ST.W      [SP + #108], R1	@@: NOP      
     d0c:	74 21 00 00 	.long     0x00002174 ->000008564  [!!!@2@:ST.W      [SP + #116], R1	@@: NOP      
     d10:	78 21 00 00 	.long     0x00002178 ->000008568  [!!!@2@:ST.W      [SP + #120], R1	@@: NOP      
     d14:	80 21 00 00 	.long     0x00002180 ->000008576  [!!!@2@:ST.W      [SP + #128], R1	@@: NOP      
     d18:	88 21 00 00 	.long     0x00002188 ->000008584  [!!!@2@:ST.W      [SP + #136], R1	@@: NOP      
     d1c:	00 80 01 00 	.long     0x00018000 ->000098304  [!!!@2@:LD.B      R0, [R0]	@@: .short    0x0001
     d20:	8c 21 00 00 	.long     0x0000218c ->000008588  [!!!@2@:ST.W      [SP + #140], R1	@@: NOP      
     d24:	00 c2 01 00 	.long     0x0001c200 ->000115200  [!!!@2@:ADD       R0, R0, R0	@@: .short    0x0001
     d28:	80 25 00 00 	.long     0x00002580 ->000009600  [!!!@2@:ST.W      [SP + #128], R5	@@: NOP      
     d2c:	9c 21 00 00 	.long     0x0000219c ->000008604  [!!!@2@:ST.W      [SP + #156], R1	@@: NOP      
     d30:	48 16       	MOV       R4, #104			;->0x0068
     d32:	97 e2       	ST.H      [SP + #23], R4
     d34:	b8 e2       	ST.H      [SP + #24], R5
     d36:	b9 e2       	ST.H      [SP + #25], R5
     d38:	c7 07       	SJMP      $-57                  ;->0xcc6
     d3a:	58 10       	MOV       R5, #8			;->0x0008
     d3c:	b7 e2       	ST.H      [SP + #23], R5
     d3e:	51 10       	MOV       R5, #1			;->0x0001
     d40:	b8 e2       	ST.H      [SP + #24], R5
     d42:	5d 10       	MOV       R5, #13			;->0x000D
     d44:	b9 e2       	ST.H      [SP + #25], R5
     d46:	c0 07       	SJMP      $-64                  ;->0xcc6

00000d48 <kf_eval_led_init>:
##@@@F_:kf_eval_led_init():
     d48:	81 5f       	PUSH      {R6,LR}
     d4a:	e8 31       	SUB       SP, #24			;->0x18
     d4c:	c0 58       	MOV       R6, R0
     d4e:	0e 58       	MOV       R0, SP
     d50:	80 00 8a 01 	LJMP      $+394     ;->0x1064  1064 <GPIO_Struct_Init>
     d54:	ae c3       	ADD       R5, R6, R6
     d56:	0a 44       	LD        R4, [PC + #10]        ;->0xd7c  :=0x214c
     d58:	6c e7       	LD.H      R5, [R4 + R5]
     d5a:	e5 85       	ST.W      [SP], R5
     d5c:	50 10       	MOV       R5, #0			;->0x0000
     d5e:	02 25       	ST.W      [SP + #2], R5
     d60:	41 10       	MOV       R4, #1			;->0x0001
     d62:	01 24       	ST.W      [SP + #1], R4
     d64:	04 25       	ST.W      [SP + #4], R5
     d66:	05 25       	ST.W      [SP + #5], R5
     d68:	32 7a       	LSL       R6, #2			;->0x02
     d6a:	06 45       	LD        R5, [PC + #6]         ;->0xd80  :=0x10000234
     d6c:	85 e9       	LD.W      R0, [R5 + R6]
     d6e:	2e 58       	MOV       R1, SP
     d70:	80 00 32 01 	LJMP      $+306     ;->0xfd4  fd4 <GPIO_Configuration>
     d74:	e8 29       	ADD       SP, #24			;->0x18
     d76:	06 5d       	POP       R6
     d78:	0d 5d       	POP       LR
     d7a:	1d 5c       	JMP       LR
     d7c:	4c 21 00 00 	.long     0x0000214c ->000008524  [!!!@2@:ST.W      [SP + #76], R1	@@: NOP      
     d80:	34 02 00 10 	.long     0x10000234 ->268436020  [!!!@2@:SVC       SVC, #52	@@: MOV       R0, #0

00000d84 <kf_eval_led_toggle>:
##@@@F_:kf_eval_led_toggle():
##@@@P_:KF32_EVAL.c:127
##@@@L0125_:
##@@@L0126_:void kf_eval_led_toggle(led_typedef Led)   
##@@@L0127_:{   
     d84:	2d 5d       	PUSH      LR
##@@@P_:KF32_EVAL.c:128
##@@@L0128_:	GPIO_Toggle_Output_Data_Config(GPIO_PORT[Led], GPIO_PIN[Led]);   
     d86:	52 10       	MOV       R5, #2			;->0x0002
     d88:	60 db       	LSL       R4, R0, R5
     d8a:	28 c2       	ADD       R5, R0, R0
     d8c:	04 43       	LD        R3, [PC + #4]         ;->0xd9c  :=0x10000234
     d8e:	03 e9       	LD.W      R0, [R3 + R4]
     d90:	04 44       	LD        R4, [PC + #4]         ;->0xda0  :=0x214c
     d92:	4c e7       	LD.H      R1, [R4 + R5]
     d94:	80 00 99 01 	LJMP      $+409     ;->0x10c6  10c6 <GPIO_Toggle_Output_Data_Config>
##@@@P_:KF32_EVAL.c:129
##@@@L0129_:}   
     d98:	0d 5d       	POP       LR
     d9a:	1d 5c       	JMP       LR
     d9c:	34 02 00 10 	.long     0x10000234 ->268436020  [!!!@2@:SVC       SVC, #52	@@: MOV       R0, #0
     da0:	4c 21 00 00 	.long     0x0000214c ->000008524  [!!!@2@:ST.W      [SP + #76], R1	@@: NOP      

00000da4 <_NMI_exception>:
##@@@F_:_NMI_exception():
##@@@P_:kf_it.c:20
##@@@L0015_://                                 NMIõĖŁµ¢ŁÕćĮµĢ░   
##@@@L0016_://*****************************************************************************************	   
##@@@L0017_:void __attribute__((interrupt)) _NMI_exception (void)   
##@@@L0018_:{	   
##@@@L0019_:
##@@@L0020_:}   
     da4:	1d 5c       	JMP       LR

00000da6 <_HardFault_exception>:
##@@@F_:_HardFault_exception():
##@@@P_:kf_it.c:28
##@@@L0023_://                               ńĪ¼õ╗ČķöÖĶ»»õĖŁµ¢ŁÕćĮµĢ░   
##@@@L0024_://*****************************************************************************************	   
##@@@L0025_:void __attribute__((interrupt)) _HardFault_exception (void)   
##@@@L0026_:{   
##@@@L0027_:
##@@@L0028_:}   
     da6:	1d 5c       	JMP       LR

00000da8 <_StackFault_exception>:
##@@@F_:_StackFault_exception():
##@@@P_:kf_it.c:36
##@@@L0031_://                                ÕĀåµĀłķöÖĶ»»õĖŁµ¢ŁÕćĮµĢ░   
##@@@L0032_://*****************************************************************************************	   
##@@@L0033_:void __attribute__((interrupt)) _StackFault_exception (void)   
##@@@L0034_:{   
##@@@L0035_:
##@@@L0036_:}   
     da8:	1d 5c       	JMP       LR

00000daa <_SVC_exception>:
##@@@F_:_SVC_exception():
##@@@P_:kf_it.c:44
##@@@L0039_://                               SVCõĖŁµ¢ŁÕćĮµĢ░   
##@@@L0040_://*****************************************************************************************	   
##@@@L0041_:void __attribute__((interrupt)) _SVC_exception (void)   
##@@@L0042_:{   
##@@@L0043_:
##@@@L0044_:}   
     daa:	1d 5c       	JMP       LR

00000dac <_SoftSV_exception>:
##@@@F_:_SoftSV_exception():
##@@@P_:kf_it.c:52
##@@@L0047_://                              SoftSVõĖŁµ¢ŁÕćĮµĢ░   
##@@@L0048_://*****************************************************************************************	   
##@@@L0049_:void __attribute__((interrupt)) _SoftSV_exception (void)   
##@@@L0050_:{   
##@@@L0051_:
##@@@L0052_:}   
     dac:	1d 5c       	JMP       LR

00000dae <_SysTick_exception>:
##@@@F_:_SysTick_exception():
##@@@P_:kf_it.c:58
##@@@L0053_:
##@@@L0054_://*****************************************************************************************   
##@@@L0055_://                              SysTickõĖŁµ¢ŁÕćĮµĢ░   
##@@@L0056_://*****************************************************************************************	   
##@@@L0057_:void __attribute__((interrupt)) _SysTick_exception (void)   
##@@@L0058_:{   
     dae:	2d 5d       	PUSH      LR
     db0:	25 5d       	PUSH      R5
##@@@P_:kf_it.c:59
##@@@L0059_:    systick_tick_cnt_up();   
     db2:	9f 00 07 fb 	LJMP      $-1273    ;->0x3c0  3c0 <systick_tick_cnt_up>
##@@@P_:kf_it.c:60
##@@@L0060_:    softtimer_tick_cnt_up();   
     db6:	80 00 07 01 	LJMP      $+263     ;->0xfc4  fc4 <softtimer_tick_cnt_up>
##@@@P_:kf_it.c:61
##@@@L0061_:    INT_Clear_Interrupt_Flag(INT_SysTick);   
     dba:	0f 10       	MOV       R0, #15			;->0x000F
     dbc:	80 00 d6 01 	LJMP      $+470     ;->0x1168  1168 <INT_Clear_Interrupt_Flag>
##@@@P_:kf_it.c:63
##@@@L0062_:	   
##@@@L0063_:}   
     dc0:	05 5d       	POP       R5
     dc2:	0d 5d       	POP       LR
     dc4:	1d 5c       	JMP       LR

00000dc6 <_USART0_exception>:
##@@@F_:_USART0_exception():
##@@@P_:kf_it.c:71
##@@@L0066_://                                 USART0õĖŁµ¢ŁÕćĮµĢ░   
##@@@L0067_://*****************************************************************************************	   
##@@@L0068_:void __attribute__((interrupt))_USART0_exception (void)   
##@@@L0069_:{   
##@@@L0070_:
##@@@L0071_:}   
     dc6:	1d 5c       	JMP       LR

00000dc8 <_USART1_exception>:
##@@@F_:_USART1_exception():
##@@@P_:kf_it.c:79
##@@@L0074_://                                 USART1õĖŁµ¢ŁÕćĮµĢ░   
##@@@L0075_://*****************************************************************************************	   
##@@@L0076_:void __attribute__((interrupt))_USART1_exception (void)   
##@@@L0077_:{   
##@@@L0078_:
##@@@L0079_:}   
     dc8:	1d 5c       	JMP       LR

00000dca <_USART2_exception>:
##@@@F_:_USART2_exception():
##@@@P_:kf_it.c:87
##@@@L0082_://                                 USART2õĖŁµ¢ŁÕćĮµĢ░   
##@@@L0083_://*****************************************************************************************   
##@@@L0084_:void __attribute__((interrupt))_USART2_exception (void)   
##@@@L0085_:{   
##@@@L0086_:
##@@@L0087_:}   
     dca:	1d 5c       	JMP       LR

00000dcc <_USART3_exception>:
##@@@F_:_USART3_exception():
##@@@P_:kf_it.c:95
##@@@L0090_://                                 USART3õĖŁµ¢ŁÕćĮµĢ░   
##@@@L0091_://*****************************************************************************************   
##@@@L0092_:void __attribute__((interrupt))_USART3_exception (void)   
##@@@L0093_:{   
##@@@L0094_:
##@@@L0095_:}   
     dcc:	1d 5c       	JMP       LR

00000dce <_USART4_exception>:
##@@@F_:_USART4_exception():
##@@@P_:kf_it.c:103
##@@@L0098_://                                 USART4õĖŁµ¢ŁÕćĮµĢ░   
##@@@L0099_://*****************************************************************************************   
##@@@L0100_:void __attribute__((interrupt))_USART4_exception (void)   
##@@@L0101_:{   
##@@@L0102_:
##@@@L0103_:}   
     dce:	1d 5c       	JMP       LR

00000dd0 <_USART5_exception>:
##@@@F_:_USART5_exception():
##@@@P_:kf_it.c:111
##@@@L0106_://                                 USART5õĖŁµ¢ŁÕćĮµĢ░   
##@@@L0107_://*****************************************************************************************   
##@@@L0108_:void __attribute__((interrupt))_USART5_exception (void)   
##@@@L0109_:{   
##@@@L0110_:
##@@@L0111_:}   
     dd0:	1d 5c       	JMP       LR
	...

00000dd4 <runtime_param_test>:
##@@@F_:runtime_param_test():
##@@@P_:main.c:71
##@@@L0066_:    g_runtime_param.mode = 1;   
##@@@L0067_:    g_runtime_param.reserve = 0;   
##@@@L0068_:}   
##@@@L0069_:
##@@@L0070_:void runtime_param_test(void)   
##@@@L0071_:{   
     dd4:	83 5f       	PUSH      {R6-R7,LR}
     dd6:	e4 30       	SUB       SP, #4			;->0x04
##@@@P_:main.c:74
##@@@L0072_:    uint8_t ret;   
##@@@L0073_:
##@@@L0074_:    MAIN_PRINTF("\r\nruntime param test start\r\n");   
     dd8:	23 40       	LD        R0, [PC + #35]        ;->0xe64  :=0x40000980
     dda:	24 41       	LD        R1, [PC + #36]        ;->0xe68  :=0x22f8
     ddc:	80 00 c4 04 	LJMP      $+1220    ;->0x1764  1764 <fprintf>
##@@@P_:main.c:76
##@@@L0075_:
##@@@L0076_:    ret = ee_load(EEPROM_SEC_RUNTIME, &g_runtime_param, sizeof(g_runtime_param));   
     de0:	23 46       	LD        R6, [PC + #35]        ;->0xe6c  :=0x10000740
     de2:	00 10       	MOV       R0, #0			;->0x0000
     de4:	26 58       	MOV       R1, R6
     de6:	2c 10       	MOV       R2, #12			;->0x000C
     de8:	9f 00 7c fc 	LJMP      $-900     ;->0x6e0  6e0 <ee_load>
     dec:	e0 58       	MOV       R7, R0
##@@@P_:main.c:77
##@@@L0077_:    MAIN_PRINTF("load ret=%d\r\n", ret);   
     dee:	1e 40       	LD        R0, [PC + #30]        ;->0xe64  :=0x40000980
     df0:	20 41       	LD        R1, [PC + #32]        ;->0xe70  :=0x2318
     df2:	47 58       	MOV       R2, R7
     df4:	80 00 b8 04 	LJMP      $+1208    ;->0x1764  1764 <fprintf>
##@@@P_:main.c:78
##@@@L0078_:    if (ret == EEPROM_OK)   
     df8:	70 38       	CMP       R7, #0			;->0x00
     dfa:	45 f0       	JZ        $+69                  ;->0xe84
##@@@F_:runtime_param_set_default():
##@@@P_:main.c:63
##@@@L0058_:
##@@@L0059_:runtime_param_t g_runtime_param;   
##@@@L0060_:
##@@@L0061_:void runtime_param_set_default(void)   
##@@@L0062_:{   
##@@@L0063_:    g_runtime_param.run_time = 0;   
     dfc:	50 10       	MOV       R5, #0			;->0x0000
     dfe:	65 85       	ST.W      [R6], R5
##@@@P_:main.c:64
##@@@L0064_:    g_runtime_param.save_count = 0;   
     e00:	75 a0       	ST.W      [R6 + #1], R5
##@@@P_:main.c:65
##@@@L0065_:    g_runtime_param.brightness = 10;   
     e02:	4a 10       	MOV       R4, #10			;->0x000A
     e04:	34 b1       	ST.H      [R6 + #4], R4
##@@@P_:main.c:66
##@@@L0066_:    g_runtime_param.mode = 1;   
     e06:	41 10       	MOV       R4, #1			;->0x0001
     e08:	b4 92       	ST.B      [R6 + #10], R4
##@@@P_:main.c:67
##@@@L0067_:    g_runtime_param.reserve = 0;   
     e0a:	f5 92       	ST.B      [R6 + #11], R5
##@@@F_:runtime_param_test():
##@@@P_:main.c:89
##@@@L0084_:                    g_runtime_param.mode);   
##@@@L0085_:    }   
##@@@L0086_:    else   
##@@@L0087_:    {   
##@@@L0088_:        runtime_param_set_default();   
##@@@L0089_:        MAIN_PRINTF("use default runtime param\r\n");   
     e0c:	16 40       	LD        R0, [PC + #22]        ;->0xe64  :=0x40000980
     e0e:	1a 41       	LD        R1, [PC + #26]        ;->0xe74  :=0x2368
     e10:	80 00 aa 04 	LJMP      $+1194    ;->0x1764  1764 <fprintf>
##@@@P_:main.c:92
##@@@L0090_:    }   
##@@@L0091_:
##@@@L0092_:    g_runtime_param.run_time += 60;   
     e14:	56 82       	LD.W      R5, [R6]
     e16:	5c 2b       	ADD       R5, #60			;->0x3C
     e18:	65 85       	ST.W      [R6], R5
##@@@P_:main.c:93
##@@@L0093_:    g_runtime_param.save_count++;   
     e1a:	66 98       	LD.W      R4, [R6 + #1]
     e1c:	6c c0       	ADD       R5, R4, #1
     e1e:	75 a0       	ST.W      [R6 + #1], R5
##@@@P_:main.c:94
##@@@L0094_:    g_runtime_param.brightness++;   
     e20:	26 a9       	LD.H      R4, [R6 + #4]
     e22:	6c c0       	ADD       R5, R4, #1
     e24:	35 b1       	ST.H      [R6 + #4], R5
##@@@P_:main.c:95
##@@@L0095_:    g_runtime_param.mode++;   
     e26:	ae 8a       	LD.B      R5, [R6 + #10]
     e28:	6d c0       	ADD       R5, R5, #1
     e2a:	b5 92       	ST.B      [R6 + #10], R5
##@@@P_:main.c:97
##@@@L0096_:
##@@@L0097_:    ret = ee_save(EEPROM_SEC_RUNTIME, &g_runtime_param, sizeof(g_runtime_param));   
     e2c:	00 10       	MOV       R0, #0			;->0x0000
     e2e:	10 41       	LD        R1, [PC + #16]        ;->0xe6c  :=0x10000740
     e30:	2c 10       	MOV       R2, #12			;->0x000C
     e32:	9f 00 c1 fb 	LJMP      $-1087    ;->0x5b4  5b4 <ee_save>
     e36:	40 58       	MOV       R2, R0
##@@@P_:main.c:98
##@@@L0098_:    MAIN_PRINTF("save ret=%d\r\n", ret);   
     e38:	0b 40       	LD        R0, [PC + #11]        ;->0xe64  :=0x40000980
     e3a:	10 41       	LD        R1, [PC + #16]        ;->0xe78  :=0x2384
     e3c:	80 00 94 04 	LJMP      $+1172    ;->0x1764  1764 <fprintf>
##@@@P_:main.c:99
##@@@L0099_:    MAIN_PRINTF("save: run_time=%lu, save_count=%lu, brightness=%u, mode=%u\r\n",   
     e40:	5e 98       	LD.W      R3, [R6 + #1]
     e42:	26 a9       	LD.H      R4, [R6 + #4]
     e44:	ae 8a       	LD.B      R5, [R6 + #10]
     e46:	e5 85       	ST.W      [SP], R5
     e48:	07 40       	LD        R0, [PC + #7]         ;->0xe64  :=0x40000980
     e4a:	0d 41       	LD        R1, [PC + #13]        ;->0xe7c  :=0x2394
     e4c:	26 82       	LD.W      R2, [R6]
     e4e:	80 00 8b 04 	LJMP      $+1163    ;->0x1764  1764 <fprintf>
##@@@P_:main.c:105
##@@@L0100_:                (unsigned long)g_runtime_param.run_time,   
##@@@L0101_:                (unsigned long)g_runtime_param.save_count,   
##@@@L0102_:                g_runtime_param.brightness,   
##@@@L0103_:                g_runtime_param.mode);   
##@@@L0104_:
##@@@L0105_:    MAIN_PRINTF("runtime param test done\r\n");   
     e52:	05 40       	LD        R0, [PC + #5]         ;->0xe64  :=0x40000980
     e54:	0b 41       	LD        R1, [PC + #11]        ;->0xe80  :=0x23d4
     e56:	80 00 87 04 	LJMP      $+1159    ;->0x1764  1764 <fprintf>
##@@@P_:main.c:106
##@@@L0106_:}   
     e5a:	e4 28       	ADD       SP, #4			;->0x04
     e5c:	03 5e       	POP       {R6-R7}
     e5e:	0d 5d       	POP       LR
     e60:	1d 5c       	JMP       LR
     e62:	00 00       	NOP      NOP      
     e64:	80 09 00 40 	.long     0x40000980 ->1073744256  [!!!@2@:LD.W      R1, [SP + #128]	@@: LD        R0, [PC + #0]         ;->0xe64  :=0x40000980
     e68:	f8 22 00 00 	.long     0x000022f8 ->000008952  [!!!@2@:ST.W      [SP + #248], R2	@@: NOP      
     e6c:	40 07 00 10 	.long     0x10000740 ->268437312  [!!!@2@:SJMP      $-192                 ;->0xcec	@@: MOV       R0, #0
     e70:	18 23 00 00 	.long     0x00002318 ->000008984  [!!!@2@:ST.W      [SP + #24], R3	@@: NOP      
     e74:	68 23 00 00 	.long     0x00002368 ->000009064  [!!!@2@:ST.W      [SP + #104], R3	@@: NOP      
     e78:	84 23 00 00 	.long     0x00002384 ->000009092  [!!!@2@:ST.W      [SP + #132], R3	@@: NOP      
     e7c:	94 23 00 00 	.long     0x00002394 ->000009108  [!!!@2@:ST.W      [SP + #148], R3	@@: NOP      
     e80:	d4 23 00 00 	.long     0x000023d4 ->000009172  [!!!@2@:ST.W      [SP + #212], R3	@@: NOP      
##@@@P_:main.c:80
##@@@L0075_:
##@@@L0076_:    ret = ee_load(EEPROM_SEC_RUNTIME, &g_runtime_param, sizeof(g_runtime_param));   
##@@@L0077_:    MAIN_PRINTF("load ret=%d\r\n", ret);   
##@@@L0078_:    if (ret == EEPROM_OK)   
##@@@L0079_:    {   
##@@@L0080_:        MAIN_PRINTF("load: run_time=%lu, save_count=%lu, brightness=%u, mode=%u\r\n",   
     e84:	5e 98       	LD.W      R3, [R6 + #1]
     e86:	26 a9       	LD.H      R4, [R6 + #4]
     e88:	ae 8a       	LD.B      R5, [R6 + #10]
     e8a:	e5 85       	ST.W      [SP], R5
     e8c:	03 40       	LD        R0, [PC + #3]         ;->0xe98  :=0x40000980
     e8e:	04 41       	LD        R1, [PC + #4]         ;->0xe9c  :=0x2328
     e90:	26 82       	LD.W      R2, [R6]
     e92:	80 00 69 04 	LJMP      $+1129    ;->0x1764  1764 <fprintf>
     e96:	bf 07       	SJMP      $-65                  ;->0xe14
     e98:	80 09 00 40 	.long     0x40000980 ->1073744256  [!!!@2@:LD.W      R1, [SP + #128]	@@: LD        R0, [PC + #0]         ;->0xe98  :=0x40000980
     e9c:	28 23 00 00 	.long     0x00002328 ->000009000  [!!!@2@:ST.W      [SP + #40], R3	@@: NOP      

00000ea0 <__FLASH_Wipe_Configuration_RAM_veneer>:
##@@@F_:__FLASH_Wipe_Configuration_RAM_veneer():
     ea0:	25 5c 00 00 	MOVL      R5, #0			;->0x0000
     ea4:	45 5c 00 10 	MOVH      R5, #4096			;->0x1000
     ea8:	15 5c       	JMP       R5
     eaa:	00 58       	MOV       R0, R0

00000eac <__FLASH_Program_Configuration_RAM_veneer>:
##@@@F_:__FLASH_Program_Configuration_RAM_veneer():
     eac:	25 5c bc 00 	MOVL      R5, #188			;->0x00BC
     eb0:	45 5c 00 10 	MOVH      R5, #4096			;->0x1000
     eb4:	15 5c       	JMP       R5
     eb6:	00 58       	MOV       R0, R0

00000eb8 <main>:
##@@@F_:main():
##@@@P_:main.c:109
##@@@L0104_:
##@@@L0105_:    MAIN_PRINTF("runtime param test done\r\n");   
##@@@L0106_:}   
##@@@L0107_:
##@@@L0108_:void main()   
##@@@L0109_:{   
     eb8:	bf 5f       	PUSH      {R6-R11,LR}
##@@@P_:main.c:110
##@@@L0110_:    SystemInit();   
     eba:	80 00 cd 03 	LJMP      $+973     ;->0x1654  1654 <SystemInit>
##@@@P_:main.c:111
##@@@L0111_:    systick_timer_init(SystemCoreClock/1000);   
     ebe:	35 45       	LD        R5, [PC + #53]        ;->0xf90  :=0x10000240
     ec0:	05 82       	LD.W      R0, [R5]
     ec2:	35 43       	LD        R3, [PC + #53]        ;->0xf94  :=0x3e8
     ec4:	03 59       	MOV       R8, R3
     ec6:	c0 d2       	DIVU      R0, R0, R3
     ec8:	9f 00 6a fa 	LJMP      $-1430    ;->0x39c  39c <systick_timer_init>
##@@@P_:main.c:113
##@@@L0112_:
##@@@L0113_:    kf_eval_usart_init(EVAL_COM3);   
     ecc:	02 10       	MOV       R0, #2			;->0x0002
     ece:	9f 00 ab fe 	LJMP      $-341     ;->0xc24  c24 <kf_eval_usart_init>
##@@@P_:main.c:115
##@@@L0114_:
##@@@L0115_:    kf_eval_led_init(LED1);   
     ed2:	00 10       	MOV       R0, #0			;->0x0000
     ed4:	9f 00 3a ff 	LJMP      $-198     ;->0xd48  d48 <kf_eval_led_init>
##@@@P_:main.c:117
##@@@L0116_:    // kf_eval_led_off(LED1);   
##@@@L0117_:    kf_eval_led_init(LED2);   
     ed8:	01 10       	MOV       R0, #1			;->0x0001
     eda:	9f 00 37 ff 	LJMP      $-201     ;->0xd48  d48 <kf_eval_led_init>
##@@@P_:main.c:119
##@@@L0118_:    // kf_eval_led_off(LED2);   
##@@@L0119_:    kf_eval_led_init(LED3);   
     ede:	02 10       	MOV       R0, #2			;->0x0002
     ee0:	9f 00 34 ff 	LJMP      $-204     ;->0xd48  d48 <kf_eval_led_init>
##@@@P_:main.c:122
##@@@L0120_:    // kf_eval_led_off(LED3);   
##@@@L0121_:
##@@@L0122_:    MAIN_PRINTF("Bootloader Init!\r\n");   
     ee4:	2d 40       	LD        R0, [PC + #45]        ;->0xf98  :=0x40000980
     ee6:	2e 41       	LD        R1, [PC + #46]        ;->0xf9c  :=0x23f0
     ee8:	80 00 3e 04 	LJMP      $+1086    ;->0x1764  1764 <fprintf>
##@@@P_:main.c:154
##@@@L0149_:
##@@@L0150_:
##@@@L0151_:    // md5_flash_test();   
##@@@L0152_:
##@@@L0153_:#if (RUNTIME_PARAM_TEST_EN)   
##@@@L0154_:    runtime_param_test();   
     eec:	9f 00 74 ff 	LJMP      $-140     ;->0xdd4  dd4 <runtime_param_test>
     ef0:	2c 46       	LD        R6, [PC + #44]        ;->0xfa0  :=0x1000074c
     ef2:	2d 47       	LD        R7, [PC + #45]        ;->0xfa4  :=0x10000750
##@@@P_:main.c:186
##@@@L0181_:        // kf_eval_led_toggle(LED3);   
##@@@L0182_:        // MAIN_PRINTF("tick=%d\r\n", systick_tick_get());   
##@@@L0183_:
##@@@L0184_:        static uint32_t last_tick = 0;   
##@@@L0185_:        uint32_t current_tick = systick_tick_get();   
##@@@L0186_:        if (current_tick != last_tick)   
     ef4:	26 59       	MOV       R9, R6
##@@@P_:main.c:191
##@@@L0187_:        {   
##@@@L0188_:            last_tick = current_tick;   
##@@@L0189_:               
##@@@L0190_:            static uint16_t cnt1 = 0;   
##@@@L0191_:            cnt1++;   
     ef6:	67 59       	MOV       R11, R7
##@@@P_:main.c:198
##@@@L0193_:            if (cnt1 % 1000 == 0)   
##@@@L0194_:            {   
##@@@L0195_:                // MAIN_PRINTF("time=%d\r\n", systick_tick_get());   
##@@@L0196_:                kf_eval_led_toggle(LED3);   
##@@@L0197_:            }   
##@@@L0198_:            else if (cnt1 >= 3000)   
     ef8:	2c 44       	LD        R4, [PC + #44]        ;->0xfa8  :=0xbb7
     efa:	44 59       	MOV       R10, R4
     efc:	0b 04       	SJMP      $+11                  ;->0xf12
##@@@P_:main.c:173
##@@@L0168_:            ota_info_clear();   
##@@@L0169_:            MAIN_PRINTF("clear flg\r\n");   
##@@@L0170_:        }   
##@@@L0171_:
##@@@L0172_:
##@@@L0173_:        if (is_app_valid(APP1_FLASH_START_ADDR))   
     efe:	2c 40       	LD        R0, [PC + #44]        ;->0xfac  :=0x3000
     f00:	9f 00 d0 fd 	LJMP      $-560     ;->0xaa0  aa0 <is_app_valid>
     f04:	00 38       	CMP       R0, #0			;->0x00
     f06:	23 f1       	JNZ       $+35                  ;->0xf4c
##@@@P_:main.c:185
##@@@L0180_:        // delay_ms(500);   
##@@@L0181_:        // kf_eval_led_toggle(LED3);   
##@@@L0182_:        // MAIN_PRINTF("tick=%d\r\n", systick_tick_get());   
##@@@L0183_:
##@@@L0184_:        static uint32_t last_tick = 0;   
##@@@L0185_:        uint32_t current_tick = systick_tick_get();   
     f08:	9f 00 64 fa 	LJMP      $-1436    ;->0x3d0  3d0 <systick_tick_get>
##@@@P_:main.c:186
##@@@L0186_:        if (current_tick != last_tick)   
     f0c:	56 82       	LD.W      R5, [R6]
     f0e:	05 70       	CMP       R0, R5
     f10:	2a f1       	JNZ       $+42                  ;->0xf64
##@@@P_:main.c:162
##@@@L0157_:
##@@@L0158_:
##@@@L0159_:    while(1)   
##@@@L0160_:    {   
##@@@L0161_:
##@@@L0162_:        if (!ota_app_verify())   
     f12:	9f 00 e5 fd 	LJMP      $-539     ;->0xadc  adc <ota_app_verify>
     f16:	00 38       	CMP       R0, #0			;->0x00
     f18:	f3 f1       	JNZ       $-13                  ;->0xefe
##@@@P_:main.c:164
##@@@L0163_:        {   
##@@@L0164_:            MAIN_PRINTF("app verify ok\r\n");   
     f1a:	20 40       	LD        R0, [PC + #32]        ;->0xf98  :=0x40000980
     f1c:	25 41       	LD        R1, [PC + #37]        ;->0xfb0  :=0x2404
     f1e:	80 00 23 04 	LJMP      $+1059    ;->0x1764  1764 <fprintf>
##@@@P_:main.c:165
##@@@L0165_:            MAIN_PRINTF("update fw start\r\n");   
     f22:	1e 40       	LD        R0, [PC + #30]        ;->0xf98  :=0x40000980
     f24:	24 41       	LD        R1, [PC + #36]        ;->0xfb4  :=0x2414
     f26:	80 00 1f 04 	LJMP      $+1055    ;->0x1764  1764 <fprintf>
##@@@P_:main.c:166
##@@@L0166_:            ota_app_update();   
     f2a:	9f 00 2f fe 	LJMP      $-465     ;->0xb88  b88 <ota_app_update>
##@@@P_:main.c:167
##@@@L0167_:            MAIN_PRINTF("update fw done\r\n");   
     f2e:	1b 40       	LD        R0, [PC + #27]        ;->0xf98  :=0x40000980
     f30:	22 41       	LD        R1, [PC + #34]        ;->0xfb8  :=0x2428
     f32:	80 00 19 04 	LJMP      $+1049    ;->0x1764  1764 <fprintf>
##@@@P_:main.c:168
##@@@L0168_:            ota_info_clear();   
     f36:	9f 00 07 fe 	LJMP      $-505     ;->0xb44  b44 <ota_info_clear>
##@@@P_:main.c:169
##@@@L0169_:            MAIN_PRINTF("clear flg\r\n");   
     f3a:	18 40       	LD        R0, [PC + #24]        ;->0xf98  :=0x40000980
     f3c:	20 41       	LD        R1, [PC + #32]        ;->0xfbc  :=0x243c
     f3e:	80 00 13 04 	LJMP      $+1043    ;->0x1764  1764 <fprintf>
##@@@P_:main.c:173
##@@@L0170_:        }   
##@@@L0171_:
##@@@L0172_:
##@@@L0173_:        if (is_app_valid(APP1_FLASH_START_ADDR))   
     f42:	1b 40       	LD        R0, [PC + #27]        ;->0xfac  :=0x3000
     f44:	9f 00 ae fd 	LJMP      $-594     ;->0xaa0  aa0 <is_app_valid>
     f48:	00 38       	CMP       R0, #0			;->0x00
     f4a:	df f0       	JZ        $-33                  ;->0xf08
##@@@P_:main.c:175
##@@@L0174_:        {   
##@@@L0175_:            MAIN_PRINTF("jump to app\r\n");   
     f4c:	13 40       	LD        R0, [PC + #19]        ;->0xf98  :=0x40000980
     f4e:	1d 41       	LD        R1, [PC + #29]        ;->0xfc0  :=0x2448
     f50:	80 00 0a 04 	LJMP      $+1034    ;->0x1764  1764 <fprintf>
##@@@P_:main.c:176
##@@@L0176_:            jump_to_app(APP1_FLASH_START_ADDR);   
     f54:	16 40       	LD        R0, [PC + #22]        ;->0xfac  :=0x3000
     f56:	9f 00 bb fd 	LJMP      $-581     ;->0xacc  acc <jump_to_app>
##@@@P_:main.c:185
##@@@L0180_:        // delay_ms(500);   
##@@@L0181_:        // kf_eval_led_toggle(LED3);   
##@@@L0182_:        // MAIN_PRINTF("tick=%d\r\n", systick_tick_get());   
##@@@L0183_:
##@@@L0184_:        static uint32_t last_tick = 0;   
##@@@L0185_:        uint32_t current_tick = systick_tick_get();   
     f5a:	9f 00 3b fa 	LJMP      $-1477    ;->0x3d0  3d0 <systick_tick_get>
##@@@P_:main.c:186
##@@@L0186_:        if (current_tick != last_tick)   
     f5e:	56 82       	LD.W      R5, [R6]
     f60:	05 70       	CMP       R0, R5
     f62:	d8 f0       	JZ        $-40                  ;->0xf12
##@@@P_:main.c:188
##@@@L0187_:        {   
##@@@L0188_:            last_tick = current_tick;   
     f64:	90 85       	ST.W      [R9], R0
##@@@P_:main.c:191
##@@@L0189_:               
##@@@L0190_:            static uint16_t cnt1 = 0;   
##@@@L0191_:            cnt1++;   
     f66:	37 81       	LD.H      R3, [R7]
     f68:	6b c0       	ADD       R5, R3, #1
     f6a:	55 d0       	ZXT.H     R5, R5
     f6c:	75 84       	ST.H      [R7], R5
##@@@P_:main.c:193
##@@@L0192_:
##@@@L0193_:            if (cnt1 % 1000 == 0)   
     f6e:	68 58       	MOV       R3, R8
     f70:	e5 d2       	DIVU      R4, R5, R3
     f72:	e4 ca       	MULS      R4, R4, R3
     f74:	00 00       	NOP      NOP      
     f76:	25 c7       	SUB       R4, R5, R4
     f78:	44 d0       	ZXT.H     R4, R4
     f7a:	40 38       	CMP       R4, #0			;->0x00
     f7c:	06 f0       	JZ        $+6                   ;->0xf88
##@@@P_:main.c:198
##@@@L0194_:            {   
##@@@L0195_:                // MAIN_PRINTF("time=%d\r\n", systick_tick_get());   
##@@@L0196_:                kf_eval_led_toggle(LED3);   
##@@@L0197_:            }   
##@@@L0198_:            else if (cnt1 >= 3000)   
     f7e:	5a 70       	CMP       R5, R10
     f80:	c9 f9       	JLS       $-55                  ;->0xf12
##@@@P_:main.c:200
##@@@L0199_:			{   
##@@@L0200_:				cnt1 = 0;   
     f82:	50 10       	MOV       R5, #0			;->0x0000
     f84:	b5 84       	ST.H      [R11], R5
     f86:	c6 07       	SJMP      $-58                  ;->0xf12
##@@@P_:main.c:196
##@@@L0191_:            cnt1++;   
##@@@L0192_:
##@@@L0193_:            if (cnt1 % 1000 == 0)   
##@@@L0194_:            {   
##@@@L0195_:                // MAIN_PRINTF("time=%d\r\n", systick_tick_get());   
##@@@L0196_:                kf_eval_led_toggle(LED3);   
     f88:	02 10       	MOV       R0, #2			;->0x0002
     f8a:	9f 00 fd fe 	LJMP      $-259     ;->0xd84  d84 <kf_eval_led_toggle>
     f8e:	c2 07       	SJMP      $-62                  ;->0xf12
     f90:	40 02 00 10 	.long     0x10000240 ->268436032  [!!!@2@:SVC       SVC, #64	@@: MOV       R0, #0
     f94:	e8 03 00 00 	.long     0x000003e8 ->000001000  [!!!@4@:JMP       $-1572864             ;->0xffd00f94
     f98:	80 09 00 40 	.long     0x40000980 ->1073744256  [!!!@2@:LD.W      R1, [SP + #128]	@@: LD        R0, [PC + #0]         ;->0xf98  :=0x40000980
     f9c:	f0 23 00 00 	.long     0x000023f0 ->000009200  [!!!@2@:ST.W      [SP + #240], R3	@@: NOP      
     fa0:	4c 07 00 10 	.long     0x1000074c ->268437324  [!!!@2@:SJMP      $-180                 ;->0xe38	@@: MOV       R0, #0
     fa4:	50 07 00 10 	.long     0x10000750 ->268437328  [!!!@2@:SJMP      $-176                 ;->0xe44	@@: MOV       R0, #0
     fa8:	b7 0b 00 00 	.long     0x00000bb7 ->000002999  [!!!@2@:LD.W      R3, [SP + #183]	@@: NOP      
     fac:	00 30 00 00 	.long     0x00003000 ->000012288  [!!!@2@:SUB       R0, #0	@@: NOP      
     fb0:	04 24 00 00 	.long     0x00002404 ->000009220  [!!!@2@:ST.W      [SP + #4], R4	@@: NOP      
     fb4:	14 24 00 00 	.long     0x00002414 ->000009236  [!!!@2@:ST.W      [SP + #20], R4	@@: NOP      
     fb8:	28 24 00 00 	.long     0x00002428 ->000009256  [!!!@2@:ST.W      [SP + #40], R4	@@: NOP      
     fbc:	3c 24 00 00 	.long     0x0000243c ->000009276  [!!!@2@:ST.W      [SP + #60], R4	@@: NOP      
     fc0:	48 24 00 00 	.long     0x00002448 ->000009288  [!!!@2@:ST.W      [SP + #72], R4	@@: NOP      

00000fc4 <softtimer_tick_cnt_up>:
##@@@F_:softtimer_tick_cnt_up():
##@@@P_:soft_timer.c:47
##@@@L0042_: * @param  *   
##@@@L0043_: * @return *   
##@@@L0044_: */   
##@@@L0045_:void softtimer_tick_cnt_up(void)   
##@@@L0046_:{   
##@@@L0047_:    cur_date.cur_day_tick ++;   
     fc4:	03 45       	LD        R5, [PC + #3]         ;->0xfd0  :=0x10000754
     fc6:	35 82       	LD.W      R3, [R5]
     fc8:	63 c0       	ADD       R4, R3, #1
     fca:	54 85       	ST.W      [R5], R4
##@@@P_:soft_timer.c:48
##@@@L0048_:}   
     fcc:	1d 5c       	JMP       LR
     fce:	00 00       	NOP      NOP      
     fd0:	54 07 00 10 	.long     0x10000754 ->268437332  [!!!@2@:SJMP      $-172                 ;->0xe78	@@: MOV       R0, #0

00000fd4 <GPIO_Configuration>:
##@@@F_:GPIO_Configuration():
##@@@P_:kf32f_basic_gpio.c:643
##@@@L0638_:    else   
##@@@L0639_:    {   
##@@@L0640_:        /* ķĆ╗ĶŠæõĮÄńöĄÕ╣│ */   
##@@@L0641_:        GPIOx->POR &= ~((uint32_t)GpioPin);   
##@@@L0642_:    }   
##@@@L0643_:}   
     fd4:	1f 5f       	PUSH      {R6-R10}
     fd6:	61 82       	LD.W      R6, [R1]
     fd8:	50 10       	MOV       R5, #0			;->0x0000
     fda:	21 10       	MOV       R2, #1			;->0x0001
     fdc:	a3 10       	MOV       R10, #3			;->0x0003
     fde:	04 04       	SJMP      $+4                   ;->0xfe6
     fe0:	6d c0       	ADD       R5, R5, #1
     fe2:	50 39       	CMP       R5, #16			;->0x10
     fe4:	31 f0       	JZ        $+49                  ;->0x1046
     fe6:	62 db       	LSL       R4, R2, R5
     fe8:	9c d5       	ANL       R3, R4, R6
     fea:	34 70       	CMP       R3, R4
     fec:	fa f1       	JNZ       $-6                   ;->0xfe0
     fee:	65 c3       	ADD       R4, R5, R5
     ff0:	78 99       	LD.W      R7, [R0 + #5]
     ff2:	27 59       	MOV       R9, R7
     ff4:	ea 58       	MOV       R7, R10
     ff6:	3f db       	LSL       R7, R7, R4
     ff8:	87 68       	NOT       R8, R7
##@@@F_:SFR_Config():
     ffa:	89 69       	ANL       R8, R9
##@@@F_:GPIO_Configuration():
     ffc:	79 98       	LD.W      R7, [R1 + #1]
     ffe:	3f db       	LSL       R7, R7, R4
##@@@F_:SFR_Config():
    1000:	87 6a       	ORL       R8, R7
##@@@F_:GPIO_Configuration():
    1002:	e8 58       	MOV       R7, R8
    1004:	47 a1       	ST.W      [R0 + #5], R7
    1006:	79 98       	LD.W      R7, [R1 + #1]
    1008:	7f cc       	SUB       R7, R7, #1
    100a:	71 38       	CMP       R7, #1			;->0x01
    100c:	1f f9       	JLS       $+31                  ;->0x104a
    100e:	33 68       	NOT       R3, R3
    1010:	b8 99       	LD.W      R7, [R0 + #6]
    1012:	27 59       	MOV       R9, R7
    1014:	3a db       	LSL       R7, R2, R4
    1016:	87 68       	NOT       R8, R7
##@@@F_:SFR_Config():
    1018:	89 69       	ANL       R8, R9
##@@@F_:GPIO_Configuration():
    101a:	b9 98       	LD.W      R7, [R1 + #2]
    101c:	27 db       	LSL       R4, R7, R4
##@@@F_:SFR_Config():
    101e:	e8 58       	MOV       R7, R8
    1020:	27 d7       	ORL       R4, R7, R4
##@@@F_:GPIO_Configuration():
    1022:	84 a1       	ST.W      [R0 + #6], R4
    1024:	a0 98       	LD.W      R4, [R0 + #2]
##@@@F_:SFR_Config():
    1026:	23 d5       	ANL       R4, R3, R4
    1028:	04 59       	MOV       R8, R4
##@@@F_:GPIO_Configuration():
    102a:	39 99       	LD.W      R7, [R1 + #4]
    102c:	67 db       	LSL       R4, R7, R5
##@@@F_:SFR_Config():
    102e:	e8 58       	MOV       R7, R8
    1030:	27 d7       	ORL       R4, R7, R4
##@@@F_:GPIO_Configuration():
    1032:	84 a0       	ST.W      [R0 + #2], R4
    1034:	e0 98       	LD.W      R4, [R0 + #3]
##@@@F_:SFR_Config():
    1036:	1b d5       	ANL       R3, R3, R4
##@@@F_:GPIO_Configuration():
    1038:	79 99       	LD.W      R7, [R1 + #5]
    103a:	67 db       	LSL       R4, R7, R5
##@@@F_:SFR_Config():
    103c:	1b d7       	ORL       R3, R3, R4
##@@@F_:GPIO_Configuration():
    103e:	c3 a0       	ST.W      [R0 + #3], R3
    1040:	6d c0       	ADD       R5, R5, #1
    1042:	50 39       	CMP       R5, #16			;->0x10
    1044:	d1 f1       	JNZ       $-47                  ;->0xfe6
    1046:	1f 5e       	POP       {R6-R10}
    1048:	1d 5c       	JMP       LR
    104a:	38 99       	LD.W      R7, [R0 + #4]
    104c:	07 59       	MOV       R8, R7
    104e:	33 68       	NOT       R3, R3
##@@@F_:SFR_Config():
    1050:	e3 58       	MOV       R7, R3
    1052:	78 69       	ANL       R7, R8
    1054:	07 59       	MOV       R8, R7
##@@@F_:GPIO_Configuration():
    1056:	f9 98       	LD.W      R7, [R1 + #3]
    1058:	7f db       	LSL       R7, R7, R5
##@@@F_:SFR_Config():
    105a:	87 6a       	ORL       R8, R7
##@@@F_:GPIO_Configuration():
    105c:	e8 58       	MOV       R7, R8
    105e:	07 a1       	ST.W      [R0 + #4], R7
    1060:	d8 07       	SJMP      $-40                  ;->0x1010
	...

00001064 <GPIO_Struct_Init>:
##@@@F_:GPIO_Struct_Init():
    1064:	05 45       	LD        R5, [PC + #5]         ;->0x1078  :=0xffff
    1066:	05 85       	ST.W      [R0], R5
    1068:	53 10       	MOV       R5, #3			;->0x0003
    106a:	45 a0       	ST.W      [R0 + #1], R5
    106c:	50 10       	MOV       R5, #0			;->0x0000
    106e:	85 a0       	ST.W      [R0 + #2], R5
    1070:	c5 a0       	ST.W      [R0 + #3], R5
    1072:	05 a1       	ST.W      [R0 + #4], R5
    1074:	45 a1       	ST.W      [R0 + #5], R5
    1076:	1d 5c       	JMP       LR
    1078:	ff ff 00 00 	.long     0x0000ffff ->000065535 

0000107c <GPIO_Pin_Lock_Config>:
##@@@F_:GPIO_Pin_Lock_Config():
    107c:	11 d0       	ZXT.H     R1, R1
    107e:	e0 99       	LD.W      R4, [R0 + #7]
    1080:	04 45       	LD        R5, [PC + #4]         ;->0x1090  :=0x5c5a0000
    1082:	6c d7       	ORL       R5, R4, R5
    1084:	20 38       	CMP       R2, #0			;->0x00
    1086:	07 f1       	JNZ       $+7                   ;->0x1094
    1088:	11 68       	NOT       R1, R1
    108a:	69 d5       	ANL       R5, R1, R5
    108c:	c5 a1       	ST.W      [R0 + #7], R5
    108e:	1d 5c       	JMP       LR
    1090:	00 00 5a 5c 	.long     0x5c5a0000 ->1549402112  [!!!@2@:NOP      	@@: MOVH      R26, #23642
    1094:	69 d7       	ORL       R5, R1, R5
    1096:	c5 a1       	ST.W      [R0 + #7], R5
    1098:	1d 5c       	JMP       LR

0000109a <GPIO_Write_Mode_Bits>:
##@@@F_:GPIO_Write_Mode_Bits():
    109a:	03 5f       	PUSH      {R6-R7}
    109c:	11 d0       	ZXT.H     R1, R1
    109e:	58 99       	LD.W      R3, [R0 + #5]
    10a0:	10 38       	CMP       R1, #0			;->0x00
    10a2:	0f f0       	JZ        $+15                  ;->0x10c0
    10a4:	50 10       	MOV       R5, #0			;->0x0000
    10a6:	61 10       	MOV       R6, #1			;->0x0001
    10a8:	73 10       	MOV       R7, #3			;->0x0003
    10aa:	a1 d5       	ANL       R4, R1, R6
    10ac:	06 f0       	JZ        $+6                   ;->0x10b8
    10ae:	67 db       	LSL       R4, R7, R5
    10b0:	44 68       	NOT       R4, R4
    10b2:	dc d4       	ANL       R3, R4, R3
    10b4:	62 db       	LSL       R4, R2, R5
    10b6:	1b d7       	ORL       R3, R3, R4
    10b8:	09 7c       	LSR       R1, #1			;->0x01
    10ba:	ad c0       	ADD       R5, R5, #2
    10bc:	10 38       	CMP       R1, #0			;->0x00
    10be:	f6 f1       	JNZ       $-10                  ;->0x10aa
    10c0:	43 a1       	ST.W      [R0 + #5], R3
    10c2:	03 5e       	POP       {R6-R7}
    10c4:	1d 5c       	JMP       LR

000010c6 <GPIO_Toggle_Output_Data_Config>:
##@@@F_:GPIO_Toggle_Output_Data_Config():
##@@@P_:kf32f_basic_gpio.c:654
##@@@L0649_:  *                õĖĆõĖ¬µł¢ÕżÜõĖ¬ń╗äÕÉłŃĆé   
##@@@L0650_:  * Ķ┐öÕø×  µŚĀŃĆé   
##@@@L0651_:  */   
##@@@L0652_:void   
##@@@L0653_:GPIO_Toggle_Output_Data_Config (GPIO_SFRmap* GPIOx, uint16_t GpioPin)   
##@@@L0654_:{   
    10c6:	11 d0       	ZXT.H     R1, R1
##@@@P_:kf32f_basic_gpio.c:659
##@@@L0655_:    /* ÕÅéµĢ░µĀĪķ¬ī */   
##@@@L0656_:    CHECK_RESTRICTION(CHECK_GPIO_ALL_PERIPH(GPIOx));   
##@@@L0657_:
##@@@L0658_:    /*----------- Ķ«ŠńĮ«GPIOx_PORÕ»äÕŁśÕÖ© -----------*/   
##@@@L0659_:    GPIOx->POR ^= (uint32_t)GpioPin;   
    10c8:	68 98       	LD.W      R5, [R0 + #1]
    10ca:	49 d9       	XRL       R1, R1, R5
    10cc:	41 a0       	ST.W      [R0 + #1], R1
##@@@P_:kf32f_basic_gpio.c:660
##@@@L0660_:}   
    10ce:	1d 5c       	JMP       LR

000010d0 <GPIO_Pin_RMP_Config>:
##@@@F_:GPIO_Pin_RMP_Config():
##@@@P_:kf32f_basic_gpio.c:737
##@@@L0732_:  * Ķ┐öÕø×  µŚĀŃĆé   
##@@@L0733_:  */   
##@@@L0734_:void   
##@@@L0735_:GPIO_Pin_RMP_Config (GPIO_SFRmap* GPIOx,   
##@@@L0736_:                    uint16_t GpioPinNum, uint8_t PinRemap)   
##@@@L0737_:{   
    10d0:	11 d0       	ZXT.H     R1, R1
    10d2:	22 d1       	ZXT.B     R2, R2
##@@@P_:kf32f_basic_gpio.c:747
##@@@L0742_:    CHECK_RESTRICTION(CHECK_GPIO_ALL_PERIPH(GPIOx));   
##@@@L0743_:    CHECK_RESTRICTION(CHECK_GPIO_PIN_NUM(GpioPinNum));   
##@@@L0744_:    CHECK_RESTRICTION(CHECK_GPIO_RMP(PinRemap));   
##@@@L0745_:
##@@@L0746_:    /* ĶÄĘÕÅ¢ÕÄ¤Õ¦ŗGPIO_RMPH/LµĢ░µŹ« */   
##@@@L0747_:    tmpreg1 = GPIOx->RMP[GpioPinNum >> 0x03];   
    10d4:	43 10       	MOV       R4, #3			;->0x0003
    10d6:	29 dd       	LSR       R5, R1, R4
    10d8:	58 28       	ADD       R5, #8			;->0x08
    10da:	2a 7a       	LSL       R5, #2			;->0x02
    10dc:	58 e9       	LD.W      R3, [R0 + R5]
##@@@P_:kf32f_basic_gpio.c:750
##@@@L0748_:
##@@@L0749_:    /* õ┐«µö╣Õ»╣Õ║öńÜäµĢ░ÕĆ╝ */   
##@@@L0750_:    tmpreg = ((uint32_t)PinRemap << (((uint32_t)GpioPinNum & 0x07) * 4));   
    10de:	47 10       	MOV       R4, #7			;->0x0007
    10e0:	09 d5       	ANL       R1, R1, R4
    10e2:	0a 7a       	LSL       R1, #2			;->0x02
##@@@P_:kf32f_basic_gpio.c:751
##@@@L0751_:    tmpreg1 &= ~((uint32_t)0xF << (((uint32_t)GpioPinNum & 0x07) * 4));   
    10e4:	4f 10       	MOV       R4, #15			;->0x000F
    10e6:	64 da       	LSL       R4, R4, R1
    10e8:	44 68       	NOT       R4, R4
    10ea:	e4 d4       	ANL       R4, R4, R3
##@@@P_:kf32f_basic_gpio.c:750
##@@@L0745_:
##@@@L0746_:    /* ĶÄĘÕÅ¢ÕÄ¤Õ¦ŗGPIO_RMPH/LµĢ░µŹ« */   
##@@@L0747_:    tmpreg1 = GPIOx->RMP[GpioPinNum >> 0x03];   
##@@@L0748_:
##@@@L0749_:    /* õ┐«µö╣Õ»╣Õ║öńÜäµĢ░ÕĆ╝ */   
##@@@L0750_:    tmpreg = ((uint32_t)PinRemap << (((uint32_t)GpioPinNum & 0x07) * 4));   
    10ec:	4a da       	LSL       R1, R2, R1
##@@@P_:kf32f_basic_gpio.c:752
##@@@L0751_:    tmpreg1 &= ~((uint32_t)0xF << (((uint32_t)GpioPinNum & 0x07) * 4));   
##@@@L0752_:    tmpreg1 = tmpreg1 | tmpreg;   
    10ee:	4c d6       	ORL       R1, R4, R1
##@@@P_:kf32f_basic_gpio.c:755
##@@@L0753_:
##@@@L0754_:    /* ķģŹńĮ«GPIO_RMPH/LµĢ░µŹ« */   
##@@@L0755_:    GPIOx->RMP[GpioPinNum >> 0x03] = tmpreg1;   
    10f0:	41 ef       	ST.W      [R0 + R5], R1
##@@@P_:kf32f_basic_gpio.c:756
##@@@L0756_:}   
    10f2:	1d 5c       	JMP       LR

000010f4 <INT_All_Enable>:
##@@@F_:INT_All_Enable():
##@@@P_:kf32f_basic_int.c:411
##@@@L0406_:    else   
##@@@L0407_:    {   
##@@@L0408_:        /* µŚĀõĖŁµ¢ŁµīéĶĄĘ */   
##@@@L0409_:        return RESET;   
##@@@L0410_:    }   
##@@@L0411_:}   
    10f4:	03 45       	LD        R5, [PC + #3]         ;->0x1100  :=0x40200000
    10f6:	00 38       	CMP       R0, #0			;->0x00
    10f8:	06 f1       	JNZ       $+6                   ;->0x1104
    10fa:	28 4e       	CLR       [R5], #0			;->0x00
    10fc:	1d 5c       	JMP       LR
    10fe:	00 00       	NOP      NOP      
    1100:	00 00 20 40 	.long     0x40200000 ->1075838976  [!!!@2@:NOP      	@@: LD        R0, [PC + #32]        ;->0x1180  :=0x8550d404
    1104:	28 4c       	SET       [R5], #0			;->0x00
    1106:	1d 5c       	JMP       LR

00001108 <INT_Interrupt_Enable>:
##@@@F_:INT_Interrupt_Enable():
    1108:	0f 38       	CMP       R0, #15			;->0x0F
    110a:	21 f9       	JLS       $+33                  ;->0x114c
    110c:	0f 3a       	CMP       R0, #47			;->0x2F
    110e:	11 f9       	JLS       $+17                  ;->0x1130
    1110:	0f 3c       	CMP       R0, #79			;->0x4F
    1112:	0b f8       	JHI       $+11                  ;->0x1128
    1114:	00 33       	SUB       R0, #48			;->0x30
    1116:	06 45       	LD        R5, [PC + #6]         ;->0x112c  :=0x40200000
    1118:	5d 99       	LD.W      R3, [R5 + #5]
    111a:	41 10       	MOV       R4, #1			;->0x0001
    111c:	24 da       	LSL       R4, R4, R0
    111e:	44 68       	NOT       R4, R4
##@@@F_:SFR_Config():
    1120:	e4 d4       	ANL       R4, R4, R3
##@@@F_:INT_Interrupt_Enable():
    1122:	01 da       	LSL       R0, R1, R0
##@@@F_:SFR_Config():
    1124:	04 d6       	ORL       R0, R4, R0
##@@@F_:INT_Interrupt_Enable():
    1126:	68 a1       	ST.W      [R5 + #5], R0
    1128:	1d 5c       	JMP       LR
    112a:	00 00       	NOP      NOP      
    112c:	00 00 20 40 	.long     0x40200000 ->1075838976  [!!!@2@:NOP      	@@: LD        R0, [PC + #32]        ;->0x11ac  :=0x82454503
    1130:	00 31       	SUB       R0, #16			;->0x10
    1132:	06 45       	LD        R5, [PC + #6]         ;->0x1148  :=0x40200000
    1134:	dd 98       	LD.W      R3, [R5 + #3]
    1136:	41 10       	MOV       R4, #1			;->0x0001
    1138:	24 da       	LSL       R4, R4, R0
    113a:	44 68       	NOT       R4, R4
##@@@F_:SFR_Config():
    113c:	e4 d4       	ANL       R4, R4, R3
##@@@F_:INT_Interrupt_Enable():
    113e:	01 da       	LSL       R0, R1, R0
##@@@F_:SFR_Config():
    1140:	04 d6       	ORL       R0, R4, R0
##@@@F_:INT_Interrupt_Enable():
    1142:	e8 a0       	ST.W      [R5 + #3], R0
    1144:	1d 5c       	JMP       LR
    1146:	00 00       	NOP      NOP      
    1148:	00 00 20 40 	.long     0x40200000 ->1075838976  [!!!@2@:NOP      	@@: LD        R0, [PC + #32]        ;->0x11c8  :=0x5c1d
    114c:	06 45       	LD        R5, [PC + #6]         ;->0x1164  :=0x40200000
    114e:	5d 98       	LD.W      R3, [R5 + #1]
    1150:	60 cd       	SUB       R4, R0, #5
    1152:	20 12       	MOV       R2, #32			;->0x0020
    1154:	22 db       	LSL       R4, R2, R4
    1156:	44 68       	NOT       R4, R4
##@@@F_:SFR_Config():
    1158:	e4 d4       	ANL       R4, R4, R3
##@@@F_:INT_Interrupt_Enable():
    115a:	01 da       	LSL       R0, R1, R0
##@@@F_:SFR_Config():
    115c:	0c d6       	ORL       R1, R4, R0
##@@@F_:INT_Interrupt_Enable():
    115e:	69 a0       	ST.W      [R5 + #1], R1
    1160:	1d 5c       	JMP       LR
    1162:	00 00       	NOP      NOP      
    1164:	00 00 20 40 	.long     0x40200000 ->1075838976  [!!!@2@:NOP      	@@: LD        R0, [PC + #32]        ;->0x11e4  :=0x7bae1051

00001168 <INT_Clear_Interrupt_Flag>:
##@@@F_:INT_Clear_Interrupt_Flag():
##@@@P_:kf32f_basic_int.c:427
##@@@L0422_:    volatile uint32_t *tmpreg1 = 0;   
##@@@L0423_:
##@@@L0424_:    /* ÕÅéµĢ░µĀĪķ¬ī */   
##@@@L0425_:    CHECK_RESTRICTION(CHECK_PERIPHERAL_INTERRUPT_INDEX(Peripheral));   
##@@@L0426_:
##@@@L0427_:    if (Peripheral <= INT_SysTick)   
    1168:	0f 38       	CMP       R0, #15			;->0x0F
    116a:	1d f9       	JLS       $+29                  ;->0x11a4
##@@@P_:kf32f_basic_int.c:433
##@@@L0428_:    {   
##@@@L0429_:        /*---------------- Ķ«ŠńĮ«INT_EIF0Õ»äÕŁśÕÖ© ----------------*/   
##@@@L0430_:        tmpreg = INT_EIF0_NMIIF << (Peripheral - INT_NMI);   
##@@@L0431_:        tmpreg1 = &INT_EIF0;   
##@@@L0432_:    }   
##@@@L0433_:    else if (Peripheral <= INT_SPI1)   
    116c:	0f 3a       	CMP       R0, #47			;->0x2F
    116e:	0f f9       	JLS       $+15                  ;->0x118c
##@@@P_:kf32f_basic_int.c:439
##@@@L0434_:    {   
##@@@L0435_:        /*---------------- Ķ«ŠńĮ«INT_EIF1Õ»äÕŁśÕÖ© ----------------*/   
##@@@L0436_:        tmpreg = INT_EIF1_WWDTIF << (Peripheral - INT_WWDT);   
##@@@L0437_:        tmpreg1 = &INT_EIF1;   
##@@@L0438_:    }   
##@@@L0439_:    else if (Peripheral <= INT_USART7)   
    1170:	0f 3c       	CMP       R0, #79			;->0x4F
    1172:	25 f8       	JHI       $+37                  ;->0x11bc
##@@@P_:kf32f_basic_int.c:442
##@@@L0440_:    {   
##@@@L0441_:        /*---------------- Ķ«ŠńĮ«INT_EIF2Õ»äÕŁśÕÖ© ----------------*/   
##@@@L0442_:        tmpreg = INT_EIF2_DMA1IF << (Peripheral - INT_DMA1);   
    1174:	00 33       	SUB       R0, #48			;->0x30
    1176:	51 10       	MOV       R5, #1			;->0x0001
    1178:	05 da       	LSL       R0, R5, R0
    117a:	00 68       	NOT       R0, R0
##@@@P_:kf32f_basic_int.c:443
##@@@L0443_:        tmpreg1 = &INT_EIF2;   
    117c:	03 45       	LD        R5, [PC + #3]         ;->0x1188  :=0x4020002c
##@@@P_:kf32f_basic_int.c:453
##@@@L0448_:        /*---------------- õ┐ØńĢÖ’╝īÕÅ»õĮ£õĖ║ĶĮ»õ╗ČõĖŁµ¢Ł ----------------*/   
##@@@L0449_:    }   
##@@@L0450_:
##@@@L0451_:    /*---------------- µĖģÕ»╣Õ║öõĖŁµ¢ŁµĀćÕ┐ŚõĮŹńŖČµĆü ----------------*/   
##@@@L0452_:    //(*(volatile uint32_t*)tmpreg1) &= ~tmpreg;   
##@@@L0453_:    *tmpreg1 &= ~tmpreg;   
    117e:	45 82       	LD.W      R4, [R5]
    1180:	04 d4       	ANL       R0, R4, R0
    1182:	50 85       	ST.W      [R5], R0
##@@@P_:kf32f_basic_int.c:455
##@@@L0454_:
##@@@L0455_:}   
    1184:	1d 5c       	JMP       LR
    1186:	00 00       	NOP      NOP      
    1188:	2c 00 20 40 	.long     0x4020002c ->1075839020 
##@@@P_:kf32f_basic_int.c:436
##@@@L0431_:        tmpreg1 = &INT_EIF0;   
##@@@L0432_:    }   
##@@@L0433_:    else if (Peripheral <= INT_SPI1)   
##@@@L0434_:    {   
##@@@L0435_:        /*---------------- Ķ«ŠńĮ«INT_EIF1Õ»äÕŁśÕÖ© ----------------*/   
##@@@L0436_:        tmpreg = INT_EIF1_WWDTIF << (Peripheral - INT_WWDT);   
    118c:	00 31       	SUB       R0, #16			;->0x10
    118e:	51 10       	MOV       R5, #1			;->0x0001
    1190:	05 da       	LSL       R0, R5, R0
    1192:	00 68       	NOT       R0, R0
##@@@P_:kf32f_basic_int.c:437
##@@@L0437_:        tmpreg1 = &INT_EIF1;   
    1194:	03 45       	LD        R5, [PC + #3]         ;->0x11a0  :=0x40200024
##@@@P_:kf32f_basic_int.c:453
##@@@L0448_:        /*---------------- õ┐ØńĢÖ’╝īÕÅ»õĮ£õĖ║ĶĮ»õ╗ČõĖŁµ¢Ł ----------------*/   
##@@@L0449_:    }   
##@@@L0450_:
##@@@L0451_:    /*---------------- µĖģÕ»╣Õ║öõĖŁµ¢ŁµĀćÕ┐ŚõĮŹńŖČµĆü ----------------*/   
##@@@L0452_:    //(*(volatile uint32_t*)tmpreg1) &= ~tmpreg;   
##@@@L0453_:    *tmpreg1 &= ~tmpreg;   
    1196:	45 82       	LD.W      R4, [R5]
    1198:	04 d4       	ANL       R0, R4, R0
    119a:	50 85       	ST.W      [R5], R0
##@@@P_:kf32f_basic_int.c:455
##@@@L0454_:
##@@@L0455_:}   
    119c:	1d 5c       	JMP       LR
    119e:	00 00       	NOP      NOP      
    11a0:	24 00 20 40 	.long     0x40200024 ->1075839012 
##@@@P_:kf32f_basic_int.c:430
##@@@L0425_:    CHECK_RESTRICTION(CHECK_PERIPHERAL_INTERRUPT_INDEX(Peripheral));   
##@@@L0426_:
##@@@L0427_:    if (Peripheral <= INT_SysTick)   
##@@@L0428_:    {   
##@@@L0429_:        /*---------------- Ķ«ŠńĮ«INT_EIF0Õ»äÕŁśÕÖ© ----------------*/   
##@@@L0430_:        tmpreg = INT_EIF0_NMIIF << (Peripheral - INT_NMI);   
    11a4:	80 cc       	SUB       R0, R0, #2
    11a6:	54 10       	MOV       R5, #4			;->0x0004
    11a8:	05 da       	LSL       R0, R5, R0
    11aa:	00 68       	NOT       R0, R0
##@@@P_:kf32f_basic_int.c:431
##@@@L0431_:        tmpreg1 = &INT_EIF0;   
    11ac:	03 45       	LD        R5, [PC + #3]         ;->0x11b8  :=0x4020001c
##@@@P_:kf32f_basic_int.c:453
##@@@L0448_:        /*---------------- õ┐ØńĢÖ’╝īÕÅ»õĮ£õĖ║ĶĮ»õ╗ČõĖŁµ¢Ł ----------------*/   
##@@@L0449_:    }   
##@@@L0450_:
##@@@L0451_:    /*---------------- µĖģÕ»╣Õ║öõĖŁµ¢ŁµĀćÕ┐ŚõĮŹńŖČµĆü ----------------*/   
##@@@L0452_:    //(*(volatile uint32_t*)tmpreg1) &= ~tmpreg;   
##@@@L0453_:    *tmpreg1 &= ~tmpreg;   
    11ae:	45 82       	LD.W      R4, [R5]
    11b0:	04 d4       	ANL       R0, R4, R0
    11b2:	50 85       	ST.W      [R5], R0
##@@@P_:kf32f_basic_int.c:455
##@@@L0454_:
##@@@L0455_:}   
    11b4:	1d 5c       	JMP       LR
    11b6:	00 00       	NOP      NOP      
    11b8:	1c 00 20 40 	.long     0x4020001c ->1075839004 
##@@@P_:kf32f_basic_int.c:439
##@@@L0434_:    {   
##@@@L0435_:        /*---------------- Ķ«ŠńĮ«INT_EIF1Õ»äÕŁśÕÖ© ----------------*/   
##@@@L0436_:        tmpreg = INT_EIF1_WWDTIF << (Peripheral - INT_WWDT);   
##@@@L0437_:        tmpreg1 = &INT_EIF1;   
##@@@L0438_:    }   
##@@@L0439_:    else if (Peripheral <= INT_USART7)   
    11bc:	00 10       	MOV       R0, #0			;->0x0000
    11be:	00 68       	NOT       R0, R0
##@@@P_:kf32f_basic_int.c:422
##@@@L0417_:  */   
##@@@L0418_:void   
##@@@L0419_:INT_Clear_Interrupt_Flag (InterruptIndex Peripheral)   
##@@@L0420_:{   
##@@@L0421_:    uint32_t tmpreg = 0;   
##@@@L0422_:    volatile uint32_t *tmpreg1 = 0;   
    11c0:	50 10       	MOV       R5, #0			;->0x0000
##@@@P_:kf32f_basic_int.c:453
##@@@L0448_:        /*---------------- õ┐ØńĢÖ’╝īÕÅ»õĮ£õĖ║ĶĮ»õ╗ČõĖŁµ¢Ł ----------------*/   
##@@@L0449_:    }   
##@@@L0450_:
##@@@L0451_:    /*---------------- µĖģÕ»╣Õ║öõĖŁµ¢ŁµĀćÕ┐ŚõĮŹńŖČµĆü ----------------*/   
##@@@L0452_:    //(*(volatile uint32_t*)tmpreg1) &= ~tmpreg;   
##@@@L0453_:    *tmpreg1 &= ~tmpreg;   
    11c2:	45 82       	LD.W      R4, [R5]
    11c4:	04 d4       	ANL       R0, R4, R0
    11c6:	50 85       	ST.W      [R5], R0
##@@@P_:kf32f_basic_int.c:455
##@@@L0454_:
##@@@L0455_:}   
    11c8:	1d 5c       	JMP       LR
	...

000011cc <OSC_LFCK_Division_Config>:
##@@@F_:OSC_LFCK_Division_Config():
##@@@P_:kf32f_basic_osc.c:1619
##@@@L1614_:    else   
##@@@L1615_:    {   
##@@@L1616_:        /* PLLµ£¬ķöüÕ«Ü */   
##@@@L1617_:        return RESET;   
##@@@L1618_:    }   
##@@@L1619_:}   
    11cc:	51 10       	MOV       R5, #1			;->0x0001
    11ce:	ae 7b       	LSL       R5, #30			;->0x1E
    11d0:	45 82       	LD.W      R4, [R5]
    11d2:	80 7b       	LSL       R0, #24			;->0x18
##@@@F_:SFR_Config():
    11d4:	03 43       	LD        R3, [PC + #3]         ;->0x11e0  :=0xf8ffffff
    11d6:	e4 d4       	ANL       R4, R4, R3
    11d8:	20 d7       	ORL       R4, R0, R4
##@@@F_:OSC_LFCK_Division_Config():
    11da:	54 85       	ST.W      [R5], R4
    11dc:	1d 5c       	JMP       LR
    11de:	00 00       	NOP      NOP      
    11e0:	ff ff ff f8 	.long     0xf8ffffff ->-117440513 

000011e4 <OSC_HFCK_Division_Config>:
##@@@F_:OSC_HFCK_Division_Config():
    11e4:	51 10       	MOV       R5, #1			;->0x0001
    11e6:	ae 7b       	LSL       R5, #30			;->0x1E
    11e8:	45 82       	LD.W      R4, [R5]
    11ea:	04 7b       	LSL       R0, #20			;->0x14
##@@@F_:SFR_Config():
    11ec:	03 43       	LD        R3, [PC + #3]         ;->0x11f8  :=0xff0fffff
    11ee:	e4 d4       	ANL       R4, R4, R3
    11f0:	20 d7       	ORL       R4, R0, R4
##@@@F_:OSC_HFCK_Division_Config():
    11f2:	54 85       	ST.W      [R5], R4
    11f4:	1d 5c       	JMP       LR
    11f6:	00 00       	NOP      NOP      
    11f8:	ff ff 0f ff 	.long     0xff0fffff ->-15728641 

000011fc <OSC_SCK_Division_Config>:
##@@@F_:OSC_SCK_Division_Config():
    11fc:	51 10       	MOV       R5, #1			;->0x0001
    11fe:	ae 7b       	LSL       R5, #30			;->0x1E
    1200:	45 82       	LD.W      R4, [R5]
    1202:	00 7b       	LSL       R0, #16			;->0x10
##@@@F_:SFR_Config():
    1204:	03 43       	LD        R3, [PC + #3]         ;->0x1210  :=0xfff8ffff
    1206:	e4 d4       	ANL       R4, R4, R3
    1208:	20 d7       	ORL       R4, R0, R4
##@@@F_:OSC_SCK_Division_Config():
    120a:	54 85       	ST.W      [R5], R4
    120c:	1d 5c       	JMP       LR
    120e:	00 00       	NOP      NOP      
    1210:	ff ff f8 ff 	.long     0xfff8ffff ->-00458753 

00001214 <OSC_PLL_Input_Source_Config>:
##@@@F_:OSC_PLL_Input_Source_Config():
    1214:	51 10       	MOV       R5, #1			;->0x0001
    1216:	ae 7b       	LSL       R5, #30			;->0x1E
    1218:	00 38       	CMP       R0, #0			;->0x00
    121a:	03 f1       	JNZ       $+3                   ;->0x1220
    121c:	ac 4e       	CLR       [R5], #12			;->0x0C
    121e:	1d 5c       	JMP       LR
    1220:	ac 4c       	SET       [R5], #12			;->0x0C
    1222:	1d 5c       	JMP       LR

00001224 <OSC_HFCK_Source_Config>:
##@@@F_:OSC_HFCK_Source_Config():
    1224:	51 10       	MOV       R5, #1			;->0x0001
    1226:	ae 7b       	LSL       R5, #30			;->0x1E
    1228:	45 82       	LD.W      R4, [R5]
    122a:	81 7a       	LSL       R0, #9			;->0x09
##@@@F_:SFR_Config():
    122c:	03 43       	LD        R3, [PC + #3]         ;->0x1238  :=0xfffff1ff
    122e:	e4 d4       	ANL       R4, R4, R3
    1230:	20 d7       	ORL       R4, R0, R4
##@@@F_:OSC_HFCK_Source_Config():
    1232:	54 85       	ST.W      [R5], R4
    1234:	1d 5c       	JMP       LR
    1236:	00 00       	NOP      NOP      
    1238:	ff f1 ff ff 	.long     0xfffff1ff ->-00003585 

0000123c <OSC_HFCK_Enable>:
##@@@F_:OSC_HFCK_Enable():
    123c:	51 10       	MOV       R5, #1			;->0x0001
    123e:	ae 7b       	LSL       R5, #30			;->0x1E
    1240:	00 38       	CMP       R0, #0			;->0x00
    1242:	03 f1       	JNZ       $+3                   ;->0x1248
    1244:	a8 4e       	CLR       [R5], #8			;->0x08
    1246:	1d 5c       	JMP       LR
    1248:	a8 4c       	SET       [R5], #8			;->0x08
    124a:	1d 5c       	JMP       LR

0000124c <OSC_LFCK_Source_Config>:
##@@@F_:OSC_LFCK_Source_Config():
    124c:	51 10       	MOV       R5, #1			;->0x0001
    124e:	ae 7b       	LSL       R5, #30			;->0x1E
    1250:	00 38       	CMP       R0, #0			;->0x00
    1252:	03 f1       	JNZ       $+3                   ;->0x1258
    1254:	2e 4e       	CLR       [R5], #6			;->0x06
    1256:	1d 5c       	JMP       LR
    1258:	2e 4c       	SET       [R5], #6			;->0x06
    125a:	1d 5c       	JMP       LR

0000125c <OSC_LFCK_Enable>:
##@@@F_:OSC_LFCK_Enable():
    125c:	51 10       	MOV       R5, #1			;->0x0001
    125e:	ae 7b       	LSL       R5, #30			;->0x1E
    1260:	00 38       	CMP       R0, #0			;->0x00
    1262:	03 f1       	JNZ       $+3                   ;->0x1268
    1264:	2c 4e       	CLR       [R5], #4			;->0x04
    1266:	1d 5c       	JMP       LR
    1268:	2c 4c       	SET       [R5], #4			;->0x04
    126a:	1d 5c       	JMP       LR

0000126c <OSC_SCK_Source_Config>:
##@@@F_:OSC_SCK_Source_Config():
    126c:	51 10       	MOV       R5, #1			;->0x0001
    126e:	ae 7b       	LSL       R5, #30			;->0x1E
    1270:	45 82       	LD.W      R4, [R5]
    1272:	00 c2       	ADD       R0, R0, R0
##@@@F_:SFR_Config():
    1274:	3e 10       	MOV       R3, #14			;->0x000E
    1276:	33 68       	NOT       R3, R3
    1278:	e4 d4       	ANL       R4, R4, R3
    127a:	20 d7       	ORL       R4, R0, R4
##@@@F_:OSC_SCK_Source_Config():
    127c:	54 85       	ST.W      [R5], R4
    127e:	1d 5c       	JMP       LR

00001280 <OSC_PLL_Multiple_Value_Select>:
##@@@F_:OSC_PLL_Multiple_Value_Select():
    1280:	10 45       	LD        R5, [PC + #16]        ;->0x12c0  :=0x40002580
    1282:	45 82       	LD.W      R4, [R5]
    1284:	02 7a       	LSL       R0, #2			;->0x02
##@@@F_:SFR_Config():
    1286:	10 43       	LD        R3, [PC + #16]        ;->0x12c4  :=0xffff0003
    1288:	e4 d4       	ANL       R4, R4, R3
    128a:	20 d7       	ORL       R4, R0, R4
##@@@F_:OSC_PLL_Multiple_Value_Select():
    128c:	54 85       	ST.W      [R5], R4
    128e:	45 82       	LD.W      R4, [R5]
    1290:	08 7b       	LSL       R1, #16			;->0x10
##@@@F_:SFR_Config():
    1292:	0e 43       	LD        R3, [PC + #14]        ;->0x12c8  :=0xfff0ffff
    1294:	e4 d4       	ANL       R4, R4, R3
    1296:	21 d7       	ORL       R4, R1, R4
##@@@F_:OSC_PLL_Multiple_Value_Select():
    1298:	54 85       	ST.W      [R5], R4
    129a:	28 38       	CMP       R2, #8			;->0x08
    129c:	18 f0       	JZ        $+24                  ;->0x12cc
    129e:	24 38       	CMP       R2, #4			;->0x04
    12a0:	22 f0       	JZ        $+34                  ;->0x12e4
    12a2:	22 38       	CMP       R2, #2			;->0x02
    12a4:	2c f0       	JZ        $+44                  ;->0x12fc
    12a6:	40 10       	MOV       R4, #0			;->0x0000
    12a8:	21 38       	CMP       R2, #1			;->0x01
    12aa:	03 f0       	JZ        $+3                   ;->0x12b0
    12ac:	54 11       	MOV       R5, #20			;->0x0014
    12ae:	62 db       	LSL       R4, R2, R5
    12b0:	04 45       	LD        R5, [PC + #4]         ;->0x12c0  :=0x40002580
    12b2:	35 82       	LD.W      R3, [R5]
##@@@F_:SFR_Config():
    12b4:	1c 4b       	CLR       R3, #20			;->0x14
    12b6:	1d 4b       	CLR       R3, #21			;->0x15
    12b8:	e4 d6       	ORL       R4, R4, R3
##@@@F_:OSC_PLL_Multiple_Value_Select():
    12ba:	54 85       	ST.W      [R5], R4
    12bc:	1d 5c       	JMP       LR
    12be:	00 00       	NOP      NOP      
    12c0:	80 25 00 40 	.long     0x40002580 ->1073751424  [!!!@2@:ST.W      [SP + #128], R5	@@: LD        R0, [PC + #0]         ;->0x12c0  :=0x40002580
    12c4:	03 00 ff ff 	.long     0xffff0003 ->-00065533 
    12c8:	ff ff f0 ff 	.long     0xfff0ffff ->-00983041 
    12cc:	04 44       	LD        R4, [PC + #4]         ;->0x12dc  :=0x300000
    12ce:	05 45       	LD        R5, [PC + #5]         ;->0x12e0  :=0x40002580
    12d0:	35 82       	LD.W      R3, [R5]
##@@@F_:SFR_Config():
    12d2:	1c 4b       	CLR       R3, #20			;->0x14
    12d4:	1d 4b       	CLR       R3, #21			;->0x15
    12d6:	e4 d6       	ORL       R4, R4, R3
##@@@F_:OSC_PLL_Multiple_Value_Select():
    12d8:	54 85       	ST.W      [R5], R4
    12da:	1d 5c       	JMP       LR
    12dc:	00 00 30 00 	.long     0x00300000 ->003145728 
    12e0:	80 25 00 40 	.long     0x40002580 ->1073751424  [!!!@2@:ST.W      [SP + #128], R5	@@: LD        R0, [PC + #0]         ;->0x12e0  :=0x40002580
    12e4:	41 10       	MOV       R4, #1			;->0x0001
    12e6:	25 7b       	LSL       R4, #21			;->0x15
    12e8:	04 45       	LD        R5, [PC + #4]         ;->0x12f8  :=0x40002580
    12ea:	35 82       	LD.W      R3, [R5]
##@@@F_:SFR_Config():
    12ec:	1c 4b       	CLR       R3, #20			;->0x14
    12ee:	1d 4b       	CLR       R3, #21			;->0x15
    12f0:	e4 d6       	ORL       R4, R4, R3
##@@@F_:OSC_PLL_Multiple_Value_Select():
    12f2:	54 85       	ST.W      [R5], R4
    12f4:	1d 5c       	JMP       LR
    12f6:	00 00       	NOP      NOP      
    12f8:	80 25 00 40 	.long     0x40002580 ->1073751424  [!!!@2@:ST.W      [SP + #128], R5	@@: LD        R0, [PC + #0]         ;->0x12f8  :=0x40002580
    12fc:	41 10       	MOV       R4, #1			;->0x0001
    12fe:	24 7b       	LSL       R4, #20			;->0x14
    1300:	04 45       	LD        R5, [PC + #4]         ;->0x1310  :=0x40002580
    1302:	35 82       	LD.W      R3, [R5]
##@@@F_:SFR_Config():
    1304:	1c 4b       	CLR       R3, #20			;->0x14
    1306:	1d 4b       	CLR       R3, #21			;->0x15
    1308:	e4 d6       	ORL       R4, R4, R3
##@@@F_:OSC_PLL_Multiple_Value_Select():
    130a:	54 85       	ST.W      [R5], R4
    130c:	1d 5c       	JMP       LR
    130e:	00 00       	NOP      NOP      
    1310:	80 25 00 40 	.long     0x40002580 ->1073751424  [!!!@2@:ST.W      [SP + #128], R5	@@: LD        R0, [PC + #0]         ;->0x1310  :=0x40002580

00001314 <OSC_PLL_RST>:
##@@@F_:OSC_PLL_RST():
    1314:	02 45       	LD        R5, [PC + #2]         ;->0x131c  :=0x40002580
    1316:	28 4c       	SET       [R5], #0			;->0x00
    1318:	1d 5c       	JMP       LR
    131a:	00 00       	NOP      NOP      
    131c:	80 25 00 40 	.long     0x40002580 ->1073751424  [!!!@2@:ST.W      [SP + #128], R5	@@: LD        R0, [PC + #0]         ;->0x131c  :=0x40002580

00001320 <OSC_PLL_Start_Delay_Config>:
##@@@F_:OSC_PLL_Start_Delay_Config():
    1320:	51 10       	MOV       R5, #1			;->0x0001
    1322:	ae 7b       	LSL       R5, #30			;->0x1E
    1324:	e5 98       	LD.W      R4, [R5 + #3]
    1326:	80 7b       	LSL       R0, #24			;->0x18
##@@@F_:SFR_Config():
    1328:	03 43       	LD        R3, [PC + #3]         ;->0x1334  :=0xf0ffffff
    132a:	e4 d4       	ANL       R4, R4, R3
    132c:	20 d7       	ORL       R4, R0, R4
##@@@F_:OSC_PLL_Start_Delay_Config():
    132e:	ec a0       	ST.W      [R5 + #3], R4
    1330:	1d 5c       	JMP       LR
    1332:	00 00       	NOP      NOP      
    1334:	ff ff ff f0 	.long     0xf0ffffff ->-251658241 

00001338 <OSC_PLL_Software_Enable>:
##@@@F_:OSC_PLL_Software_Enable():
    1338:	03 45       	LD        R5, [PC + #3]         ;->0x1344  :=0x4000000c
    133a:	00 38       	CMP       R0, #0			;->0x00
    133c:	06 f1       	JNZ       $+6                   ;->0x1348
    133e:	2c 4e       	CLR       [R5], #4			;->0x04
    1340:	1d 5c       	JMP       LR
    1342:	00 00       	NOP      NOP      
    1344:	0c 00 00 40 	.long     0x4000000c ->1073741836 
    1348:	2c 4c       	SET       [R5], #4			;->0x04
    134a:	1d 5c       	JMP       LR

0000134c <OSC_INTHF_Software_Enable>:
##@@@F_:OSC_INTHF_Software_Enable():
    134c:	03 45       	LD        R5, [PC + #3]         ;->0x1358  :=0x4000000c
    134e:	00 38       	CMP       R0, #0			;->0x00
    1350:	06 f1       	JNZ       $+6                   ;->0x135c
    1352:	29 4e       	CLR       [R5], #1			;->0x01
    1354:	1d 5c       	JMP       LR
    1356:	00 00       	NOP      NOP      
    1358:	0c 00 00 40 	.long     0x4000000c ->1073741836 
    135c:	29 4c       	SET       [R5], #1			;->0x01
    135e:	1d 5c       	JMP       LR

00001360 <OSC_INTLF_Software_Enable>:
##@@@F_:OSC_INTLF_Software_Enable():
    1360:	03 45       	LD        R5, [PC + #3]         ;->0x136c  :=0x4000000c
    1362:	00 38       	CMP       R0, #0			;->0x00
    1364:	06 f1       	JNZ       $+6                   ;->0x1370
    1366:	28 4e       	CLR       [R5], #0			;->0x00
    1368:	1d 5c       	JMP       LR
    136a:	00 00       	NOP      NOP      
    136c:	0c 00 00 40 	.long     0x4000000c ->1073741836 
    1370:	28 4c       	SET       [R5], #0			;->0x00
    1372:	1d 5c       	JMP       LR

00001374 <OSC_Get_PLL_INT_Flag>:
##@@@F_:OSC_Get_PLL_INT_Flag():
    1374:	51 10       	MOV       R5, #1			;->0x0001
    1376:	ae 7b       	LSL       R5, #30			;->0x1E
    1378:	85 98       	LD.W      R0, [R5 + #2]
    137a:	04 7c       	LSR       R0, #4			;->0x04
    137c:	51 10       	MOV       R5, #1			;->0x0001
    137e:	40 d5       	ANL       R0, R0, R5
    1380:	1d 5c       	JMP       LR

00001382 <OSC_Get_INTHF_INT_Flag>:
##@@@F_:OSC_Get_INTHF_INT_Flag():
##@@@P_:kf32f_basic_osc.c:1630
##@@@L1625_:  */   
##@@@L1626_:FlagStatus   
##@@@L1627_:OSC_Get_INTHF_INT_Flag (void)   
##@@@L1628_:{   
##@@@L1629_:    /*---------------- Ķ«ŠńĮ«OSC_INTÕ»äÕŁśÕÖ©IHFIFõĮŹ ----------------*/   
##@@@L1630_:    if (OSC_INT & OSC_INT_IHFIF)   
    1382:	51 10       	MOV       R5, #1			;->0x0001
    1384:	ae 7b       	LSL       R5, #30			;->0x1E
    1386:	85 98       	LD.W      R0, [R5 + #2]
    1388:	01 7c       	LSR       R0, #1			;->0x01
##@@@P_:kf32f_basic_osc.c:1640
##@@@L1635_:    else   
##@@@L1636_:    {   
##@@@L1637_:        /* PLLµ£¬ķöüÕ«Ü */   
##@@@L1638_:        return RESET;   
##@@@L1639_:    }   
##@@@L1640_:}   
    138a:	51 10       	MOV       R5, #1			;->0x0001
    138c:	40 d5       	ANL       R0, R0, R5
    138e:	1d 5c       	JMP       LR

00001390 <PCLK_CTL1_Peripheral_Clock_Enable>:
##@@@F_:PCLK_CTL1_Peripheral_Clock_Enable():
##@@@P_:kf32f_basic_pclk.c:95
##@@@L0090_:    CHECK_RESTRICTION(CHECK_PCLK_CTL1_PERIPH(PCLK_CTL1_bit));   
##@@@L0091_:    CHECK_RESTRICTION(CHECK_FUNCTIONAL_STATE(NewState));   
##@@@L0092_:
##@@@L0093_:    if (NewState != FALSE)   
##@@@L0094_:    {   
##@@@L0095_:        PCLK_CTL1 |= PCLK_CTL1_bit;   
    1390:	04 45       	LD        R5, [PC + #4]         ;->0x13a0  :=0x40002640
    1392:	65 98       	LD.W      R4, [R5 + #1]
##@@@P_:kf32f_basic_pclk.c:93
##@@@L0088_:{   
##@@@L0089_:    /* ÕÅéµĢ░µĀĪķ¬ī */   
##@@@L0090_:    CHECK_RESTRICTION(CHECK_PCLK_CTL1_PERIPH(PCLK_CTL1_bit));   
##@@@L0091_:    CHECK_RESTRICTION(CHECK_FUNCTIONAL_STATE(NewState));   
##@@@L0092_:
##@@@L0093_:    if (NewState != FALSE)   
    1394:	10 38       	CMP       R1, #0			;->0x00
    1396:	07 f1       	JNZ       $+7                   ;->0x13a4
##@@@P_:kf32f_basic_pclk.c:99
##@@@L0094_:    {   
##@@@L0095_:        PCLK_CTL1 |= PCLK_CTL1_bit;   
##@@@L0096_:    }   
##@@@L0097_:    else   
##@@@L0098_:    {   
##@@@L0099_:        PCLK_CTL1 &= ~PCLK_CTL1_bit;   
    1398:	00 68       	NOT       R0, R0
    139a:	00 d5       	ANL       R0, R0, R4
    139c:	68 a0       	ST.W      [R5 + #1], R0
##@@@P_:kf32f_basic_pclk.c:101
##@@@L0100_:    }   
##@@@L0101_:}   
    139e:	1d 5c       	JMP       LR
    13a0:	40 26 00 40 	.long     0x40002640 ->1073751616  [!!!@2@:ST.W      [SP + #64], R6	@@: LD        R0, [PC + #0]         ;->0x13a0  :=0x40002640
##@@@P_:kf32f_basic_pclk.c:95
##@@@L0090_:    CHECK_RESTRICTION(CHECK_PCLK_CTL1_PERIPH(PCLK_CTL1_bit));   
##@@@L0091_:    CHECK_RESTRICTION(CHECK_FUNCTIONAL_STATE(NewState));   
##@@@L0092_:
##@@@L0093_:    if (NewState != FALSE)   
##@@@L0094_:    {   
##@@@L0095_:        PCLK_CTL1 |= PCLK_CTL1_bit;   
    13a4:	00 d7       	ORL       R0, R0, R4
    13a6:	68 a0       	ST.W      [R5 + #1], R0
##@@@P_:kf32f_basic_pclk.c:101
##@@@L0096_:    }   
##@@@L0097_:    else   
##@@@L0098_:    {   
##@@@L0099_:        PCLK_CTL1 &= ~PCLK_CTL1_bit;   
##@@@L0100_:    }   
##@@@L0101_:}   
    13a8:	1d 5c       	JMP       LR
	...

000013ac <PCLK_CTL2_Peripheral_Clock_Enable>:
##@@@F_:PCLK_CTL2_Peripheral_Clock_Enable():
##@@@P_:kf32f_basic_pclk.c:137
##@@@L0132_:    CHECK_RESTRICTION(CHECK_PCLK_CTL2_PERIPH(PCLK_CTL2_bit));   
##@@@L0133_:    CHECK_RESTRICTION(CHECK_FUNCTIONAL_STATE(NewState));   
##@@@L0134_:
##@@@L0135_:    if (NewState != FALSE)   
##@@@L0136_:    {   
##@@@L0137_:        PCLK_CTL2 |= PCLK_CTL2_bit;   
    13ac:	04 45       	LD        R5, [PC + #4]         ;->0x13bc  :=0x40002640
    13ae:	a5 98       	LD.W      R4, [R5 + #2]
##@@@P_:kf32f_basic_pclk.c:135
##@@@L0130_:{   
##@@@L0131_:    /* ÕÅéµĢ░µĀĪķ¬ī */   
##@@@L0132_:    CHECK_RESTRICTION(CHECK_PCLK_CTL2_PERIPH(PCLK_CTL2_bit));   
##@@@L0133_:    CHECK_RESTRICTION(CHECK_FUNCTIONAL_STATE(NewState));   
##@@@L0134_:
##@@@L0135_:    if (NewState != FALSE)   
    13b0:	10 38       	CMP       R1, #0			;->0x00
    13b2:	07 f1       	JNZ       $+7                   ;->0x13c0
##@@@P_:kf32f_basic_pclk.c:141
##@@@L0136_:    {   
##@@@L0137_:        PCLK_CTL2 |= PCLK_CTL2_bit;   
##@@@L0138_:    }   
##@@@L0139_:    else   
##@@@L0140_:    {   
##@@@L0141_:        PCLK_CTL2 &= ~PCLK_CTL2_bit;   
    13b4:	00 68       	NOT       R0, R0
    13b6:	00 d5       	ANL       R0, R0, R4
    13b8:	a8 a0       	ST.W      [R5 + #2], R0
##@@@P_:kf32f_basic_pclk.c:143
##@@@L0142_:    }   
##@@@L0143_:}   
    13ba:	1d 5c       	JMP       LR
    13bc:	40 26 00 40 	.long     0x40002640 ->1073751616  [!!!@2@:ST.W      [SP + #64], R6	@@: LD        R0, [PC + #0]         ;->0x13bc  :=0x40002640
##@@@P_:kf32f_basic_pclk.c:137
##@@@L0132_:    CHECK_RESTRICTION(CHECK_PCLK_CTL2_PERIPH(PCLK_CTL2_bit));   
##@@@L0133_:    CHECK_RESTRICTION(CHECK_FUNCTIONAL_STATE(NewState));   
##@@@L0134_:
##@@@L0135_:    if (NewState != FALSE)   
##@@@L0136_:    {   
##@@@L0137_:        PCLK_CTL2 |= PCLK_CTL2_bit;   
    13c0:	00 d7       	ORL       R0, R0, R4
    13c2:	a8 a0       	ST.W      [R5 + #2], R0
##@@@P_:kf32f_basic_pclk.c:143
##@@@L0138_:    }   
##@@@L0139_:    else   
##@@@L0140_:    {   
##@@@L0141_:        PCLK_CTL2 &= ~PCLK_CTL2_bit;   
##@@@L0142_:    }   
##@@@L0143_:}   
    13c4:	1d 5c       	JMP       LR
	...

000013c8 <RST_CTL1_Peripheral_Reset_Enable>:
##@@@F_:RST_CTL1_Peripheral_Reset_Enable():
##@@@P_:kf32f_basic_rst.c:96
##@@@L0091_:    CHECK_RESTRICTION(CHECK_RST_CTL1_RESET_PERIPH(RST_CTL1_bit));   
##@@@L0092_:    CHECK_RESTRICTION(CHECK_FUNCTIONAL_STATE(NewState));   
##@@@L0093_:
##@@@L0094_:    if (NewState != FALSE)   
##@@@L0095_:    {   
##@@@L0096_:        RST_CTL1 |= RST_CTL1_bit;   
    13c8:	04 45       	LD        R5, [PC + #4]         ;->0x13d8  :=0x40001500
    13ca:	65 98       	LD.W      R4, [R5 + #1]
##@@@P_:kf32f_basic_rst.c:94
##@@@L0089_:{   
##@@@L0090_:    /* ▓╬╩²ąŻčķ */   
##@@@L0091_:    CHECK_RESTRICTION(CHECK_RST_CTL1_RESET_PERIPH(RST_CTL1_bit));   
##@@@L0092_:    CHECK_RESTRICTION(CHECK_FUNCTIONAL_STATE(NewState));   
##@@@L0093_:
##@@@L0094_:    if (NewState != FALSE)   
    13cc:	10 38       	CMP       R1, #0			;->0x00
    13ce:	07 f1       	JNZ       $+7                   ;->0x13dc
##@@@P_:kf32f_basic_rst.c:100
##@@@L0095_:    {   
##@@@L0096_:        RST_CTL1 |= RST_CTL1_bit;   
##@@@L0097_:    }   
##@@@L0098_:    else   
##@@@L0099_:    {   
##@@@L0100_:        RST_CTL1 &= ~RST_CTL1_bit;   
    13d0:	00 68       	NOT       R0, R0
    13d2:	00 d5       	ANL       R0, R0, R4
    13d4:	68 a0       	ST.W      [R5 + #1], R0
##@@@P_:kf32f_basic_rst.c:102
##@@@L0101_:    }   
##@@@L0102_:}   
    13d6:	1d 5c       	JMP       LR
    13d8:	00 15 00 40 	.long     0x40001500 ->1073747200  [!!!@2@:MOV       R0, #80	@@: LD        R0, [PC + #0]         ;->0x13d8  :=0x40001500
##@@@P_:kf32f_basic_rst.c:96
##@@@L0091_:    CHECK_RESTRICTION(CHECK_RST_CTL1_RESET_PERIPH(RST_CTL1_bit));   
##@@@L0092_:    CHECK_RESTRICTION(CHECK_FUNCTIONAL_STATE(NewState));   
##@@@L0093_:
##@@@L0094_:    if (NewState != FALSE)   
##@@@L0095_:    {   
##@@@L0096_:        RST_CTL1 |= RST_CTL1_bit;   
    13dc:	00 d7       	ORL       R0, R0, R4
    13de:	68 a0       	ST.W      [R5 + #1], R0
##@@@P_:kf32f_basic_rst.c:102
##@@@L0097_:    }   
##@@@L0098_:    else   
##@@@L0099_:    {   
##@@@L0100_:        RST_CTL1 &= ~RST_CTL1_bit;   
##@@@L0101_:    }   
##@@@L0102_:}   
    13e0:	1d 5c       	JMP       LR
	...

000013e4 <RST_CTL2_Peripheral_Reset_Enable>:
##@@@F_:RST_CTL2_Peripheral_Reset_Enable():
##@@@P_:kf32f_basic_rst.c:138
##@@@L0133_:    CHECK_RESTRICTION(CHECK_RST_CTL2_RESET_PERIPH(RST_CTL2_bit));   
##@@@L0134_:    CHECK_RESTRICTION(CHECK_FUNCTIONAL_STATE(NewState));   
##@@@L0135_:
##@@@L0136_:    if (NewState != FALSE)   
##@@@L0137_:    {   
##@@@L0138_:        RST_CTL2 |= RST_CTL2_bit;   
    13e4:	04 45       	LD        R5, [PC + #4]         ;->0x13f4  :=0x40001500
    13e6:	a5 98       	LD.W      R4, [R5 + #2]
##@@@P_:kf32f_basic_rst.c:136
##@@@L0131_:{   
##@@@L0132_:    /* ▓╬╩²ąŻčķ */   
##@@@L0133_:    CHECK_RESTRICTION(CHECK_RST_CTL2_RESET_PERIPH(RST_CTL2_bit));   
##@@@L0134_:    CHECK_RESTRICTION(CHECK_FUNCTIONAL_STATE(NewState));   
##@@@L0135_:
##@@@L0136_:    if (NewState != FALSE)   
    13e8:	10 38       	CMP       R1, #0			;->0x00
    13ea:	07 f1       	JNZ       $+7                   ;->0x13f8
##@@@P_:kf32f_basic_rst.c:142
##@@@L0137_:    {   
##@@@L0138_:        RST_CTL2 |= RST_CTL2_bit;   
##@@@L0139_:    }   
##@@@L0140_:    else   
##@@@L0141_:    {   
##@@@L0142_:        RST_CTL2 &= ~RST_CTL2_bit;   
    13ec:	00 68       	NOT       R0, R0
    13ee:	00 d5       	ANL       R0, R0, R4
    13f0:	a8 a0       	ST.W      [R5 + #2], R0
##@@@P_:kf32f_basic_rst.c:144
##@@@L0143_:    }   
##@@@L0144_:}   
    13f2:	1d 5c       	JMP       LR
    13f4:	00 15 00 40 	.long     0x40001500 ->1073747200  [!!!@2@:MOV       R0, #80	@@: LD        R0, [PC + #0]         ;->0x13f4  :=0x40001500
##@@@P_:kf32f_basic_rst.c:138
##@@@L0133_:    CHECK_RESTRICTION(CHECK_RST_CTL2_RESET_PERIPH(RST_CTL2_bit));   
##@@@L0134_:    CHECK_RESTRICTION(CHECK_FUNCTIONAL_STATE(NewState));   
##@@@L0135_:
##@@@L0136_:    if (NewState != FALSE)   
##@@@L0137_:    {   
##@@@L0138_:        RST_CTL2 |= RST_CTL2_bit;   
    13f8:	00 d7       	ORL       R0, R0, R4
    13fa:	a8 a0       	ST.W      [R5 + #2], R0
##@@@P_:kf32f_basic_rst.c:144
##@@@L0139_:    }   
##@@@L0140_:    else   
##@@@L0141_:    {   
##@@@L0142_:        RST_CTL2 &= ~RST_CTL2_bit;   
##@@@L0143_:    }   
##@@@L0144_:}   
    13fc:	1d 5c       	JMP       LR
	...

00001400 <SYSTICK_Configuration>:
##@@@F_:SYSTICK_Configuration():
##@@@P_:kf32f_basic_systick.c:54
##@@@L0049_:    CHECK_RESTRICTION(CHECK_SYSTICK_CLOCK(Clock));   
##@@@L0050_:    CHECK_RESTRICTION(CHECK_SYSTICK_RELOAD(Reload));   
##@@@L0051_:    CHECK_RESTRICTION(CHECK_FUNCTIONAL_STATE(SysTickINT));   
##@@@L0052_:
##@@@L0053_:    /*------------ ń”üµŁóĶŖéµŗŹÕ«ÜµŚČÕÖ©’╝īķś▓µŁóµäÅÕż¢õĖŁµ¢Ł -------------*/   
##@@@L0054_:    SFR_CLR_BIT_ASM(ST_CTL, ST_CTL_STEN_POS);   
    1400:	07 45       	LD        R5, [PC + #7]         ;->0x141c  :=0x402000a0
    1402:	28 4e       	CLR       [R5], #0			;->0x00
##@@@P_:kf32f_basic_systick.c:57
##@@@L0055_:
##@@@L0056_:    /*--------------- Ķ«ŠńĮ«ST_RELOADÕ»äÕŁśÕÖ© ---------------*/   
##@@@L0057_:    ST_RELOAD = Reload;   
    1404:	6a a0       	ST.W      [R5 + #1], R2
##@@@P_:kf32f_basic_systick.c:61
##@@@L0058_:
##@@@L0059_:    /*-- Ķ«ŠńĮ«ST_CVÕ»äÕŁśÕÖ©’╝īõ╗źµĖģķøČÕĮōÕēŹÕĆ╝Õ»äÕŁśÕÖ©Õ╣ČµĖģķøČCOUNTZEROµĀćÕ┐ŚõĮŹ’╝ī   
##@@@L0060_:         ńĪ«õ┐ØķćŹĶĮĮÕĆ╝ĶāĮÕŖĀĶĮĮÕł░ÕĮōÕēŹÕĆ╝Õ»äÕŁśÕÖ©õĖŁ -------------------*/   
##@@@L0061_:    ST_CV = 0;   
    1406:	40 10       	MOV       R4, #0			;->0x0000
    1408:	ac a0       	ST.W      [R5 + #2], R4
##@@@P_:kf32f_basic_systick.c:67
##@@@L0062_:
##@@@L0063_:    /*------------------ Ķ«ŠńĮ«ST_CTLÕ»äÕŁśÕÖ© -----------------*/   
##@@@L0064_:    /* µĀ╣µŹ«ÕÅéµĢ░Clock’╝īĶ«ŠńĮ«STCLKSõĮŹÕ¤¤ */   
##@@@L0065_:    /* µĀ╣µŹ«ÕÅéµĢ░SysTickINT’╝īĶ«ŠńĮ«TICKINTENõĮŹÕ¤¤ */   
##@@@L0066_:    tmpreg = Clock | (SysTickINT << ST_CTL_TICKINTEN_POS);   
##@@@L0067_:    ST_CTL = SFR_Config (ST_CTL,   
    140a:	45 82       	LD.W      R4, [R5]
##@@@F_:SFR_Config():
##@@@P_:KF32F_BASIC.h:13336
##@@@L13331_:   ---------------------------------------------------------------------------- */   
##@@@L13332_:/* ÕåÖńē╣µ«ŖÕŖ¤ĶāĮÕ»äÕŁśÕÖ© */   
##@@@L13333_:static inline uint32_t   
##@@@L13334_:SFR_Config (uint32_t SfrMem, uint32_t SfrMask, uint32_t WriteVal)   
##@@@L13335_:{   
##@@@L13336_:    return ((SfrMem & SfrMask) | (WriteVal));   
    140c:	21 4a       	CLR       R4, #1			;->0x01
    140e:	22 4a       	CLR       R4, #2			;->0x02
##@@@F_:SYSTICK_Configuration():
##@@@P_:kf32f_basic_systick.c:66
##@@@L0061_:    ST_CV = 0;   
##@@@L0062_:
##@@@L0063_:    /*------------------ Ķ«ŠńĮ«ST_CTLÕ»äÕŁśÕÖ© -----------------*/   
##@@@L0064_:    /* µĀ╣µŹ«ÕÅéµĢ░Clock’╝īĶ«ŠńĮ«STCLKSõĮŹÕ¤¤ */   
##@@@L0065_:    /* µĀ╣µŹ«ÕÅéµĢ░SysTickINT’╝īĶ«ŠńĮ«TICKINTENõĮŹÕ¤¤ */   
##@@@L0066_:    tmpreg = Clock | (SysTickINT << ST_CTL_TICKINTEN_POS);   
    1410:	00 d7       	ORL       R0, R0, R4
    1412:	49 c2       	ADD       R1, R1, R1
##@@@F_:SFR_Config():
##@@@P_:KF32F_BASIC.h:13336
    1414:	48 d6       	ORL       R1, R0, R1
##@@@F_:SYSTICK_Configuration():
##@@@P_:kf32f_basic_systick.c:67
##@@@L0067_:    ST_CTL = SFR_Config (ST_CTL,   
    1416:	51 85       	ST.W      [R5], R1
##@@@P_:kf32f_basic_systick.c:70
##@@@L0068_:                          ~SYSTICK_CTL_INIT_MASK,   
##@@@L0069_:                          tmpreg);   
##@@@L0070_:}   
    1418:	1d 5c       	JMP       LR
    141a:	00 00       	NOP      NOP      
    141c:	a0 00 20 40 	.long     0x402000a0 ->1075839136 

00001420 <SYSTICK_Cmd>:
##@@@F_:SYSTICK_Cmd():
##@@@P_:kf32f_basic_systick.c:96
##@@@L0091_:
##@@@L0092_:    /*---------------- Ķ«ŠńĮ«ST_CTLÕ»äÕŁśÕÖ©STENõĮŹ ----------------*/   
##@@@L0093_:    if (NewState != FALSE)   
##@@@L0094_:    {   
##@@@L0095_:        /* õĮ┐ĶāĮń│╗ń╗¤ĶŖéµŗŹÕ«ÜµŚČÕÖ© */   
##@@@L0096_:        SFR_SET_BIT_ASM(ST_CTL, ST_CTL_STEN_POS);   
    1420:	03 45       	LD        R5, [PC + #3]         ;->0x142c  :=0x402000a0
##@@@P_:kf32f_basic_systick.c:93
##@@@L0088_:{   
##@@@L0089_:    /* ÕÅéµĢ░µĀĪķ¬ī */   
##@@@L0090_:    CHECK_RESTRICTION(CHECK_FUNCTIONAL_STATE(NewState));   
##@@@L0091_:
##@@@L0092_:    /*---------------- Ķ«ŠńĮ«ST_CTLÕ»äÕŁśÕÖ©STENõĮŹ ----------------*/   
##@@@L0093_:    if (NewState != FALSE)   
    1422:	00 38       	CMP       R0, #0			;->0x00
    1424:	06 f1       	JNZ       $+6                   ;->0x1430
##@@@P_:kf32f_basic_systick.c:101
##@@@L0096_:        SFR_SET_BIT_ASM(ST_CTL, ST_CTL_STEN_POS);   
##@@@L0097_:    }   
##@@@L0098_:    else   
##@@@L0099_:    {   
##@@@L0100_:        /* ń”üµŁóń│╗ń╗¤ĶŖéµŗŹÕ«ÜµŚČÕÖ© */   
##@@@L0101_:        SFR_CLR_BIT_ASM(ST_CTL, ST_CTL_STEN_POS);   
    1426:	28 4e       	CLR       [R5], #0			;->0x00
##@@@P_:kf32f_basic_systick.c:103
##@@@L0102_:    }   
##@@@L0103_:}   
    1428:	1d 5c       	JMP       LR
    142a:	00 00       	NOP      NOP      
    142c:	a0 00 20 40 	.long     0x402000a0 ->1075839136 
##@@@P_:kf32f_basic_systick.c:96
##@@@L0091_:
##@@@L0092_:    /*---------------- Ķ«ŠńĮ«ST_CTLÕ»äÕŁśÕÖ©STENõĮŹ ----------------*/   
##@@@L0093_:    if (NewState != FALSE)   
##@@@L0094_:    {   
##@@@L0095_:        /* õĮ┐ĶāĮń│╗ń╗¤ĶŖéµŗŹÕ«ÜµŚČÕÖ© */   
##@@@L0096_:        SFR_SET_BIT_ASM(ST_CTL, ST_CTL_STEN_POS);   
    1430:	28 4c       	SET       [R5], #0			;->0x00
##@@@P_:kf32f_basic_systick.c:103
##@@@L0098_:    else   
##@@@L0099_:    {   
##@@@L0100_:        /* ń”üµŁóń│╗ń╗¤ĶŖéµŗŹÕ«ÜµŚČÕÖ© */   
##@@@L0101_:        SFR_CLR_BIT_ASM(ST_CTL, ST_CTL_STEN_POS);   
##@@@L0102_:    }   
##@@@L0103_:}   
    1432:	1d 5c       	JMP       LR

00001434 <USART_Reset>:
##@@@F_:USART_Reset():
##@@@P_:kf32f_basic_usart.c:2381
##@@@L2376_:
##@@@L2377_:    /*---------------- Ķ«ŠńĮ«USART_STRÕ»äÕŁśÕÖ©RCFRõĮŹ ----------------*/   
##@@@L2378_:    SFR_SET_BIT_ASM(USARTx->STR, USART_STR_RCFR_POS);   
##@@@L2379_:    while(USARTx->STR & USART_STR_RDRIF);   
##@@@L2380_:    SFR_CLR_BIT_ASM(USARTx->STR, USART_STR_RCFR_POS);   
##@@@L2381_:}   
    1434:	81 5f       	PUSH      {R6,LR}
    1436:	c0 58       	MOV       R6, R0
    1438:	0e 45       	LD        R5, [PC + #14]        ;->0x1470  :=0x40000980
    143a:	05 70       	CMP       R0, R5
    143c:	3c f0       	JZ        $+60                  ;->0x14b4
    143e:	0e 45       	LD        R5, [PC + #14]        ;->0x1474  :=0x40000a00
    1440:	05 70       	CMP       R0, R5
    1442:	49 f0       	JZ        $+73                  ;->0x14d4
    1444:	0d 45       	LD        R5, [PC + #13]        ;->0x1478  :=0x40000a80
    1446:	05 70       	CMP       R0, R5
    1448:	56 f0       	JZ        $+86                  ;->0x14f4
    144a:	0d 45       	LD        R5, [PC + #13]        ;->0x147c  :=0x40000b00
    144c:	05 70       	CMP       R0, R5
    144e:	63 f0       	JZ        $+99                  ;->0x1514
    1450:	0c 45       	LD        R5, [PC + #12]        ;->0x1480  :=0x40000b80
    1452:	05 70       	CMP       R0, R5
    1454:	70 f0       	JZ        $+112                 ;->0x1534
    1456:	0c 45       	LD        R5, [PC + #12]        ;->0x1484  :=0x40001e80
    1458:	65 70       	CMP       R6, R5
    145a:	7d f0       	JZ        $+125                 ;->0x1554
    145c:	0b 45       	LD        R5, [PC + #11]        ;->0x1488  :=0x40001f00
    145e:	65 70       	CMP       R6, R5
    1460:	02 f1       	JNZ       $+2                   ;->0x1464
    1462:	89 04       	SJMP      $+137                 ;->0x1574
    1464:	0a 45       	LD        R5, [PC + #10]        ;->0x148c  :=0x40001f80
    1466:	65 70       	CMP       R6, R5
    1468:	14 f0       	JZ        $+20                  ;->0x1490
    146a:	06 5d       	POP       R6
    146c:	0d 5d       	POP       LR
    146e:	1d 5c       	JMP       LR
    1470:	80 09 00 40 	.long     0x40000980 ->1073744256  [!!!@2@:LD.W      R1, [SP + #128]	@@: LD        R0, [PC + #0]         ;->0x1470  :=0x40000980
    1474:	00 0a 00 40 	.long     0x40000a00 ->1073744384  [!!!@2@:LD.W      R2, [SP + #0]	@@: LD        R0, [PC + #0]         ;->0x1474  :=0x40000a00
    1478:	80 0a 00 40 	.long     0x40000a80 ->1073744512  [!!!@2@:LD.W      R2, [SP + #128]	@@: LD        R0, [PC + #0]         ;->0x1478  :=0x40000a80
    147c:	00 0b 00 40 	.long     0x40000b00 ->1073744640  [!!!@2@:LD.W      R3, [SP + #0]	@@: LD        R0, [PC + #0]         ;->0x147c  :=0x40000b00
    1480:	80 0b 00 40 	.long     0x40000b80 ->1073744768  [!!!@2@:LD.W      R3, [SP + #128]	@@: LD        R0, [PC + #0]         ;->0x1480  :=0x40000b80
    1484:	80 1e 00 40 	.long     0x40001e80 ->1073749632  [!!!@2@:MOV       R8, #224	@@: LD        R0, [PC + #0]         ;->0x1484  :=0x40001e80
    1488:	00 1f 00 40 	.long     0x40001f00 ->1073749760  [!!!@2@:MOV       R0, #240	@@: LD        R0, [PC + #0]         ;->0x1488  :=0x40001f00
    148c:	80 1f 00 40 	.long     0x40001f80 ->1073749888  [!!!@2@:MOV       R8, #240	@@: LD        R0, [PC + #0]         ;->0x148c  :=0x40001f80
    1490:	01 10       	MOV       R0, #1			;->0x0001
    1492:	87 7b       	LSL       R0, #31			;->0x1F
    1494:	11 10       	MOV       R1, #1			;->0x0001
    1496:	9f 00 a7 ff 	LJMP      $-89      ;->0x13e4  13e4 <RST_CTL2_Peripheral_Reset_Enable>
    149a:	01 10       	MOV       R0, #1			;->0x0001
    149c:	87 7b       	LSL       R0, #31			;->0x1F
    149e:	10 10       	MOV       R1, #0			;->0x0000
    14a0:	9f 00 a2 ff 	LJMP      $-94      ;->0x13e4  13e4 <RST_CTL2_Peripheral_Reset_Enable>
    14a4:	01 10       	MOV       R0, #1			;->0x0001
    14a6:	87 7b       	LSL       R0, #31			;->0x1F
    14a8:	11 10       	MOV       R1, #1			;->0x0001
    14aa:	9f 00 81 ff 	LJMP      $-127     ;->0x13ac  13ac <PCLK_CTL2_Peripheral_Clock_Enable>
    14ae:	06 5d       	POP       R6
    14b0:	0d 5d       	POP       LR
    14b2:	1d 5c       	JMP       LR
    14b4:	01 10       	MOV       R0, #1			;->0x0001
    14b6:	03 7b       	LSL       R0, #19			;->0x13
    14b8:	11 10       	MOV       R1, #1			;->0x0001
    14ba:	9f 00 87 ff 	LJMP      $-121     ;->0x13c8  13c8 <RST_CTL1_Peripheral_Reset_Enable>
    14be:	01 10       	MOV       R0, #1			;->0x0001
    14c0:	03 7b       	LSL       R0, #19			;->0x13
    14c2:	10 10       	MOV       R1, #0			;->0x0000
    14c4:	9f 00 82 ff 	LJMP      $-126     ;->0x13c8  13c8 <RST_CTL1_Peripheral_Reset_Enable>
    14c8:	01 10       	MOV       R0, #1			;->0x0001
    14ca:	03 7b       	LSL       R0, #19			;->0x13
    14cc:	11 10       	MOV       R1, #1			;->0x0001
    14ce:	9f 00 61 ff 	LJMP      $-159     ;->0x1390  1390 <PCLK_CTL1_Peripheral_Clock_Enable>
    14d2:	c2 07       	SJMP      $-62                  ;->0x1456
    14d4:	01 10       	MOV       R0, #1			;->0x0001
    14d6:	04 7b       	LSL       R0, #20			;->0x14
    14d8:	11 10       	MOV       R1, #1			;->0x0001
    14da:	9f 00 77 ff 	LJMP      $-137     ;->0x13c8  13c8 <RST_CTL1_Peripheral_Reset_Enable>
    14de:	01 10       	MOV       R0, #1			;->0x0001
    14e0:	04 7b       	LSL       R0, #20			;->0x14
    14e2:	10 10       	MOV       R1, #0			;->0x0000
    14e4:	9f 00 72 ff 	LJMP      $-142     ;->0x13c8  13c8 <RST_CTL1_Peripheral_Reset_Enable>
    14e8:	01 10       	MOV       R0, #1			;->0x0001
    14ea:	04 7b       	LSL       R0, #20			;->0x14
    14ec:	11 10       	MOV       R1, #1			;->0x0001
    14ee:	9f 00 51 ff 	LJMP      $-175     ;->0x1390  1390 <PCLK_CTL1_Peripheral_Clock_Enable>
    14f2:	b2 07       	SJMP      $-78                  ;->0x1456
    14f4:	01 10       	MOV       R0, #1			;->0x0001
    14f6:	05 7b       	LSL       R0, #21			;->0x15
    14f8:	11 10       	MOV       R1, #1			;->0x0001
    14fa:	9f 00 67 ff 	LJMP      $-153     ;->0x13c8  13c8 <RST_CTL1_Peripheral_Reset_Enable>
    14fe:	01 10       	MOV       R0, #1			;->0x0001
    1500:	05 7b       	LSL       R0, #21			;->0x15
    1502:	10 10       	MOV       R1, #0			;->0x0000
    1504:	9f 00 62 ff 	LJMP      $-158     ;->0x13c8  13c8 <RST_CTL1_Peripheral_Reset_Enable>
    1508:	01 10       	MOV       R0, #1			;->0x0001
    150a:	05 7b       	LSL       R0, #21			;->0x15
    150c:	11 10       	MOV       R1, #1			;->0x0001
    150e:	9f 00 41 ff 	LJMP      $-191     ;->0x1390  1390 <PCLK_CTL1_Peripheral_Clock_Enable>
    1512:	a5 07       	SJMP      $-91                  ;->0x145c
    1514:	01 10       	MOV       R0, #1			;->0x0001
    1516:	06 7b       	LSL       R0, #22			;->0x16
    1518:	11 10       	MOV       R1, #1			;->0x0001
    151a:	9f 00 57 ff 	LJMP      $-169     ;->0x13c8  13c8 <RST_CTL1_Peripheral_Reset_Enable>
    151e:	01 10       	MOV       R0, #1			;->0x0001
    1520:	06 7b       	LSL       R0, #22			;->0x16
    1522:	10 10       	MOV       R1, #0			;->0x0000
    1524:	9f 00 52 ff 	LJMP      $-174     ;->0x13c8  13c8 <RST_CTL1_Peripheral_Reset_Enable>
    1528:	01 10       	MOV       R0, #1			;->0x0001
    152a:	06 7b       	LSL       R0, #22			;->0x16
    152c:	11 10       	MOV       R1, #1			;->0x0001
    152e:	9f 00 31 ff 	LJMP      $-207     ;->0x1390  1390 <PCLK_CTL1_Peripheral_Clock_Enable>
    1532:	9c 07       	SJMP      $-100                 ;->0x146a
    1534:	01 10       	MOV       R0, #1			;->0x0001
    1536:	07 7b       	LSL       R0, #23			;->0x17
    1538:	11 10       	MOV       R1, #1			;->0x0001
    153a:	9f 00 47 ff 	LJMP      $-185     ;->0x13c8  13c8 <RST_CTL1_Peripheral_Reset_Enable>
    153e:	01 10       	MOV       R0, #1			;->0x0001
    1540:	07 7b       	LSL       R0, #23			;->0x17
    1542:	10 10       	MOV       R1, #0			;->0x0000
    1544:	9f 00 42 ff 	LJMP      $-190     ;->0x13c8  13c8 <RST_CTL1_Peripheral_Reset_Enable>
    1548:	01 10       	MOV       R0, #1			;->0x0001
    154a:	07 7b       	LSL       R0, #23			;->0x17
    154c:	11 10       	MOV       R1, #1			;->0x0001
    154e:	9f 00 21 ff 	LJMP      $-223     ;->0x1390  1390 <PCLK_CTL1_Peripheral_Clock_Enable>
    1552:	8c 07       	SJMP      $-116                 ;->0x146a
    1554:	01 10       	MOV       R0, #1			;->0x0001
    1556:	85 7b       	LSL       R0, #29			;->0x1D
    1558:	11 10       	MOV       R1, #1			;->0x0001
    155a:	9f 00 45 ff 	LJMP      $-187     ;->0x13e4  13e4 <RST_CTL2_Peripheral_Reset_Enable>
    155e:	01 10       	MOV       R0, #1			;->0x0001
    1560:	85 7b       	LSL       R0, #29			;->0x1D
    1562:	10 10       	MOV       R1, #0			;->0x0000
    1564:	9f 00 40 ff 	LJMP      $-192     ;->0x13e4  13e4 <RST_CTL2_Peripheral_Reset_Enable>
    1568:	01 10       	MOV       R0, #1			;->0x0001
    156a:	85 7b       	LSL       R0, #29			;->0x1D
    156c:	11 10       	MOV       R1, #1			;->0x0001
    156e:	9f 00 1f ff 	LJMP      $-225     ;->0x13ac  13ac <PCLK_CTL2_Peripheral_Clock_Enable>
    1572:	7c 07       	SJMP      $-132                 ;->0x146a
    1574:	01 10       	MOV       R0, #1			;->0x0001
    1576:	86 7b       	LSL       R0, #30			;->0x1E
    1578:	11 10       	MOV       R1, #1			;->0x0001
    157a:	9f 00 35 ff 	LJMP      $-203     ;->0x13e4  13e4 <RST_CTL2_Peripheral_Reset_Enable>
    157e:	01 10       	MOV       R0, #1			;->0x0001
    1580:	86 7b       	LSL       R0, #30			;->0x1E
    1582:	10 10       	MOV       R1, #0			;->0x0000
    1584:	9f 00 30 ff 	LJMP      $-208     ;->0x13e4  13e4 <RST_CTL2_Peripheral_Reset_Enable>
    1588:	01 10       	MOV       R0, #1			;->0x0001
    158a:	86 7b       	LSL       R0, #30			;->0x1E
    158c:	11 10       	MOV       R1, #1			;->0x0001
    158e:	9f 00 0f ff 	LJMP      $-241     ;->0x13ac  13ac <PCLK_CTL2_Peripheral_Clock_Enable>
    1592:	6c 07       	SJMP      $-148                 ;->0x146a

00001594 <USART_Configuration>:
##@@@F_:USART_Configuration():
    1594:	30 82       	LD.W      R3, [R0]
    1596:	51 98       	LD.W      R2, [R1 + #1]
    1598:	41 82       	LD.W      R4, [R1]
    159a:	2a d7       	ORL       R5, R2, R4
    159c:	91 98       	LD.W      R2, [R1 + #2]
    159e:	ad d6       	ORL       R5, R5, R2
    15a0:	e1 98       	LD.W      R4, [R1 + #3]
    15a2:	2d d7       	ORL       R5, R5, R4
    15a4:	51 99       	LD.W      R2, [R1 + #5]
    15a6:	ad d6       	ORL       R5, R5, R2
    15a8:	21 99       	LD.W      R4, [R1 + #4]
    15aa:	2d d7       	ORL       R5, R5, R4
    15ac:	d1 99       	LD.W      R2, [R1 + #7]
    15ae:	ad d6       	ORL       R5, R5, R2
    15b0:	21 9a       	LD.W      R4, [R1 + #8]
    15b2:	2d d7       	ORL       R5, R5, R4
    15b4:	91 99       	LD.W      R2, [R1 + #6]
    15b6:	ad d6       	ORL       R5, R5, R2
    15b8:	61 9a       	LD.W      R4, [R1 + #9]
    15ba:	2d d7       	ORL       R5, R5, R4
    15bc:	91 9a       	LD.W      R2, [R1 + #10]
    15be:	ad d6       	ORL       R5, R5, R2
    15c0:	a1 ad       	LD.H      R4, [R1 + #22]
    15c2:	2d d7       	ORL       R5, R5, R4
##@@@F_:SFR_Config():
    15c4:	09 44       	LD        R4, [PC + #9]         ;->0x15e8  :=0xfcca3eff
    15c6:	23 d5       	ANL       R4, R3, R4
    15c8:	2d d7       	ORL       R5, R5, R4
##@@@F_:USART_Configuration():
    15ca:	05 85       	ST.W      [R0], R5
    15cc:	60 98       	LD.W      R4, [R0 + #1]
##@@@F_:SFR_Config():
    15ce:	08 45       	LD        R5, [PC + #8]         ;->0x15ec  :=0xff000000
    15d0:	6c d5       	ANL       R5, R4, R5
##@@@F_:USART_Configuration():
    15d2:	e1 ad       	LD.H      R4, [R1 + #23]
    15d4:	2d d7       	ORL       R5, R5, R4
    15d6:	21 ae       	LD.H      R4, [R1 + #24]
    15d8:	20 7b       	LSL       R4, #16			;->0x10
    15da:	2d d7       	ORL       R5, R5, R4
    15dc:	61 ae       	LD.H      R4, [R1 + #25]
    15de:	24 7b       	LSL       R4, #20			;->0x14
##@@@F_:SFR_Config():
    15e0:	2d d7       	ORL       R5, R5, R4
##@@@F_:USART_Configuration():
    15e2:	45 a0       	ST.W      [R0 + #1], R5
    15e4:	1d 5c       	JMP       LR
    15e6:	00 00       	NOP      NOP      
    15e8:	ff 3e ca fc 	.long     0xfcca3eff ->-53854465  [!!!@2@:CMP       PC, #111	@@: JGT       $-54                  ;->0x157c
    15ec:	00 00 00 ff 	.long     0xff000000 ->-16777216 

000015f0 <USART_Struct_Init>:
##@@@F_:USART_Struct_Init():
    15f0:	50 10       	MOV       R5, #0			;->0x0000
    15f2:	05 85       	ST.W      [R0], R5
    15f4:	45 a0       	ST.W      [R0 + #1], R5
    15f6:	41 10       	MOV       R4, #1			;->0x0001
    15f8:	a7 7a       	LSL       R4, #15			;->0x0F
    15fa:	84 a0       	ST.W      [R0 + #2], R4
    15fc:	c5 a0       	ST.W      [R0 + #3], R5
    15fe:	05 a1       	ST.W      [R0 + #4], R5
    1600:	45 a1       	ST.W      [R0 + #5], R5
    1602:	85 a1       	ST.W      [R0 + #6], R5
    1604:	c5 a1       	ST.W      [R0 + #7], R5
    1606:	05 a2       	ST.W      [R0 + #8], R5
    1608:	45 a2       	ST.W      [R0 + #9], R5
    160a:	85 a2       	ST.W      [R0 + #10], R5
    160c:	85 b5       	ST.H      [R0 + #22], R5
    160e:	41 10       	MOV       R4, #1			;->0x0001
    1610:	c4 b5       	ST.H      [R0 + #23], R4
    1612:	05 b6       	ST.H      [R0 + #24], R5
    1614:	44 b6       	ST.H      [R0 + #25], R4
    1616:	1d 5c       	JMP       LR

00001618 <USART_Cmd>:
##@@@F_:USART_Cmd():
    1618:	10 38       	CMP       R1, #0			;->0x00
    161a:	03 f1       	JNZ       $+3                   ;->0x1620
    161c:	00 4e       	CLR       [R0], #0			;->0x00
    161e:	1d 5c       	JMP       LR
    1620:	00 4c       	SET       [R0], #0			;->0x00
    1622:	1d 5c       	JMP       LR

00001624 <USART_RESHD_Enable>:
##@@@F_:USART_RESHD_Enable():
    1624:	10 38       	CMP       R1, #0			;->0x00
    1626:	03 f1       	JNZ       $+3                   ;->0x162c
    1628:	86 4f       	CLR       [R0], #30			;->0x1E
    162a:	1d 5c       	JMP       LR
    162c:	86 4d       	SET       [R0], #30			;->0x1E
    162e:	1d 5c       	JMP       LR

00001630 <USART_Passageway_Select_Config>:
##@@@F_:USART_Passageway_Select_Config():
    1630:	00 29       	ADD       R0, #16			;->0x10
    1632:	10 38       	CMP       R1, #0			;->0x00
    1634:	03 f1       	JNZ       $+3                   ;->0x163a
    1636:	04 4e       	CLR       [R0], #4			;->0x04
    1638:	1d 5c       	JMP       LR
    163a:	04 4c       	SET       [R0], #4			;->0x04
    163c:	1d 5c       	JMP       LR

0000163e <USART_Clear_Transmit_BUFR_INT_Flag>:
##@@@F_:USART_Clear_Transmit_BUFR_INT_Flag():
##@@@P_:kf32f_basic_usart.c:2395
##@@@L2390_:{   
##@@@L2391_:    /* ÕÅéµĢ░µĀĪķ¬ī */   
##@@@L2392_:    CHECK_RESTRICTION(CHECK_USART_ALL_PERIPH(USARTx));   
##@@@L2393_:
##@@@L2394_:    /*---------------- Ķ«ŠńĮ«USART_STRÕ»äÕŁśÕÖ©TXFRõĮŹ ----------------*/   
##@@@L2395_:    SFR_SET_BIT_ASM(USARTx->STR, USART_STR_TXFR_POS);   
    163e:	58 10       	MOV       R5, #8			;->0x0008
    1640:	58 c3       	ADD       R3, R0, R5
    1642:	9a 4c       	SET       [R3], #10			;->0x0A
##@@@P_:kf32f_basic_usart.c:2396
##@@@L2396_:    while(!((USARTx->STR & USART_STR_TFEIF)>>USART_STR_TFEIF_POS));   
    1644:	41 10       	MOV       R4, #1			;->0x0001
    1646:	a4 7a       	LSL       R4, #12			;->0x0C
##@@@P_:kf32f_basic_usart.c:2396 (discriminator 1)
    1648:	a8 98       	LD.W      R5, [R0 + #2]
    164a:	2d d5       	ANL       R5, R5, R4
    164c:	fe f0       	JZ        $-2                   ;->0x1648
##@@@P_:kf32f_basic_usart.c:2397
##@@@L2397_:    SFR_CLR_BIT_ASM(USARTx->STR, USART_STR_TXFR_POS);   
    164e:	9a 4e       	CLR       [R3], #10			;->0x0A
##@@@P_:kf32f_basic_usart.c:2398
##@@@L2398_:}   
    1650:	1d 5c       	JMP       LR
	...

00001654 <SystemInit>:
##@@@F_:SystemInit():
##@@@P_:system_init.c:243
##@@@L0238_: * 			 Initialize PLL, HFCLK, LFCLK, and the PLL and update the systemFrequency variable.   
##@@@L0239_: *  @param : None   
##@@@L0240_: *  @retval :None   
##@@@L0241_: */   
##@@@L0242_:void SystemInit(void)   
##@@@L0243_:{   
    1654:	81 5f       	PUSH      {R6,LR}
    1656:	e4 30       	SUB       SP, #4			;->0x04
##@@@F_:SetSysClock():
##@@@P_:system_init.c:117
##@@@L0112_: * ******************************************************************************   
##@@@L0113_: * 	Enable INTHF & INTLF,and set the INTHF as the SCLK.   
##@@@L0114_: * 	Wait till INTHF is ready and if Time out is reached exit.   
##@@@L0115_: * ******************************************************************************   
##@@@L0116_: */   
##@@@L0117_:	OSC_INTLF_Software_Enable(TRUE);   
    1658:	01 10       	MOV       R0, #1			;->0x0001
    165a:	9f 00 83 fe 	LJMP      $-381     ;->0x1360  1360 <OSC_INTLF_Software_Enable>
##@@@P_:system_init.c:118
##@@@L0118_:	OSC_INTHF_Software_Enable(TRUE);   
    165e:	01 10       	MOV       R0, #1			;->0x0001
    1660:	9f 00 76 fe 	LJMP      $-394     ;->0x134c  134c <OSC_INTHF_Software_Enable>
##@@@P_:system_init.c:119
##@@@L0119_:	FLASH_CFG = 0xC4;//FLASHĶ»╗ÕÅ¢Õæ©µ£¤8õĖ¬ń│╗ń╗¤Õæ©µ£¤   
    1664:	44 1c       	MOV       R4, #196			;->0x00C4
    1666:	25 45       	LD        R5, [PC + #37]        ;->0x16f8  :=0x40200100
    1668:	6c a1       	ST.W      [R5 + #5], R4
##@@@P_:system_init.c:121
##@@@L0120_:	/* Set the INTHF as the SCLK DIV<1:1> */   
##@@@L0121_:	OSC_SCK_Division_Config(SCLK_DIVISION_1); //õĖ╗µŚČķÆ¤ÕłåķóæķĆēµŗ®   
    166a:	00 10       	MOV       R0, #0			;->0x0000
    166c:	9f 00 c8 fd 	LJMP      $-568     ;->0x11fc  11fc <OSC_SCK_Division_Config>
##@@@P_:system_init.c:122
##@@@L0122_:	OSC_SCK_Source_Config(SCLK_SOURCE_INTHF); //ķĆēµŗ®Õåģķā©ķ½śķóæõĮ£õĖ║ń│╗ń╗¤µŚČķÆ¤   
    1670:	00 10       	MOV       R0, #0			;->0x0000
    1672:	9f 00 fd fd 	LJMP      $-515     ;->0x126c  126c <OSC_SCK_Source_Config>
##@@@P_:system_init.c:123
##@@@L0123_:	StartUpCounter = HSI_STARTUP_TIMEOUT;   
    1676:	50 17       	MOV       R5, #112			;->0x0070
    1678:	e5 85       	ST.W      [SP], R5
##@@@P_:system_init.c:124
##@@@L0124_:	while (--StartUpCounter);   
    167a:	5e 82       	LD.W      R5, [SP]
    167c:	6d cc       	SUB       R5, R5, #1
    167e:	e5 85       	ST.W      [SP], R5
    1680:	50 38       	CMP       R5, #0			;->0x00
    1682:	fc f1       	JNZ       $-4                   ;->0x167a
##@@@P_:system_init.c:125
##@@@L0125_:	while (OSC_Get_INTHF_INT_Flag() != SET);   
    1684:	9f 00 7f fe 	LJMP      $-385     ;->0x1382  1382 <OSC_Get_INTHF_INT_Flag>
    1688:	c0 58       	MOV       R6, R0
    168a:	01 38       	CMP       R0, #1			;->0x01
    168c:	fc f1       	JNZ       $-4                   ;->0x1684
##@@@P_:system_init.c:137
##@@@L0132_: * If an external clock source is used, must be wait till EXTHF is ready and if   
##@@@L0133_: * Time out is reached exit.   
##@@@L0134_: * ******************************************************************************   
##@@@L0135_: */   
##@@@L0136_:#ifdef SYSCLK_FREQ_HSI   
##@@@L0137_:	OSC_PLL_Input_Source_Config(PLL_INPUT_INTHF);   
    168e:	00 10       	MOV       R0, #0			;->0x0000
    1690:	9f 00 c2 fd 	LJMP      $-574     ;->0x1214  1214 <OSC_PLL_Input_Source_Config>
##@@@P_:system_init.c:188
##@@@L0183_:#ifdef SYSCLK_FREQ_48MHz   
##@@@L0184_:	OSC_PLL_Multiple_Value_Select(48, 2, 8);   
##@@@L0185_:#elif defined SYSCLK_FREQ_64MHz   
##@@@L0186_:	OSC_PLL_Multiple_Value_Select(32,2,4);   
##@@@L0187_:#elif defined SYSCLK_FREQ_72MHz   
##@@@L0188_:	OSC_PLL_Multiple_Value_Select(36, 2, 4);   
    1694:	04 12       	MOV       R0, #36			;->0x0024
    1696:	12 10       	MOV       R1, #2			;->0x0002
    1698:	24 10       	MOV       R2, #4			;->0x0004
    169a:	9f 00 f3 fd 	LJMP      $-525     ;->0x1280  1280 <OSC_PLL_Multiple_Value_Select>
##@@@P_:system_init.c:195
##@@@L0190_:	OSC_PLL_Multiple_Value_Select(12, 1, 2);   
##@@@L0191_:#elif defined SYSCLK_FREQ_120MHz   
##@@@L0192_:	OSC_PLL_Multiple_Value_Select(30, 2, 2);   
##@@@L0193_:#endif   
##@@@L0194_:#ifdef SYSCLK_FREQ_HSI   
##@@@L0195_:	OSC_PLL_Start_Delay_Config(PLL_START_DELAY_8192);   
    169e:	07 10       	MOV       R0, #7			;->0x0007
    16a0:	9f 00 40 fe 	LJMP      $-448     ;->0x1320  1320 <OSC_PLL_Start_Delay_Config>
##@@@P_:system_init.c:205
##@@@L0200_:		OSC_PLL_Start_Delay_Config(PLL_START_DELAY_8192);   
##@@@L0201_:	#else   
##@@@L0202_:		OSC_PLL_Start_Delay_Config(PLL_START_DELAY_16384);   
##@@@L0203_:	#endif   
##@@@L0204_:#endif   
##@@@L0205_:	OSC_PLL_Software_Enable(TRUE);   
    16a4:	06 58       	MOV       R0, R6
    16a6:	9f 00 49 fe 	LJMP      $-439     ;->0x1338  1338 <OSC_PLL_Software_Enable>
##@@@P_:system_init.c:206
##@@@L0206_:	OSC_PLL_RST();   
    16aa:	9f 00 35 fe 	LJMP      $-459     ;->0x1314  1314 <OSC_PLL_RST>
##@@@P_:system_init.c:207
##@@@L0207_:	while (OSC_Get_PLL_INT_Flag() != SET);   
    16ae:	9f 00 63 fe 	LJMP      $-413     ;->0x1374  1374 <OSC_Get_PLL_INT_Flag>
    16b2:	c0 58       	MOV       R6, R0
    16b4:	01 38       	CMP       R0, #1			;->0x01
    16b6:	fc f1       	JNZ       $-4                   ;->0x16ae
##@@@P_:system_init.c:213
##@@@L0208_:#ifdef SYSCLK_FREQ_48MHz   
##@@@L0209_:	FLASH_CFG = 0xC2;   
##@@@L0210_:#elif defined SYSCLK_FREQ_64MHz   
##@@@L0211_:	FLASH_CFG = 0xC3;   
##@@@L0212_:#elif defined SYSCLK_FREQ_72MHz   
##@@@L0213_:	FLASH_CFG = 0xC3;   
    16b8:	43 1c       	MOV       R4, #195			;->0x00C3
    16ba:	10 45       	LD        R5, [PC + #16]        ;->0x16f8  :=0x40200100
    16bc:	6c a1       	ST.W      [R5 + #5], R4
##@@@P_:system_init.c:220
##@@@L0215_:	FLASH_CFG = 0xC3;   
##@@@L0216_:#elif defined SYSCLK_FREQ_120MHz   
##@@@L0217_:	FLASH_CFG = 0xC4;   
##@@@L0218_:#endif   
##@@@L0219_:	/* Configure the System clock source is PLL */   
##@@@L0220_:	OSC_SCK_Division_Config(SCLK_DIVISION_1);   
    16be:	00 10       	MOV       R0, #0			;->0x0000
    16c0:	9f 00 9e fd 	LJMP      $-610     ;->0x11fc  11fc <OSC_SCK_Division_Config>
##@@@P_:system_init.c:221
##@@@L0221_:	OSC_SCK_Source_Config(SCLK_SOURCE_PLL);   
    16c4:	04 10       	MOV       R0, #4			;->0x0004
    16c6:	9f 00 d3 fd 	LJMP      $-557     ;->0x126c  126c <OSC_SCK_Source_Config>
##@@@P_:system_init.c:223
##@@@L0222_:	/* Enable HFCLK and if EXTHF is invalid configure the HFCLK default clock source is HSI DIV<1:1> */   
##@@@L0223_:	OSC_HFCK_Division_Config(HFCK_DIVISION_1);   
    16ca:	00 10       	MOV       R0, #0			;->0x0000
    16cc:	9f 00 8c fd 	LJMP      $-628     ;->0x11e4  11e4 <OSC_HFCK_Division_Config>
##@@@P_:system_init.c:225
##@@@L0224_:#ifdef SYSCLK_FREQ_HSI   
##@@@L0225_:	OSC_HFCK_Source_Config(HFCK_SOURCE_INTHF);   
    16d0:	00 10       	MOV       R0, #0			;->0x0000
    16d2:	9f 00 a9 fd 	LJMP      $-599     ;->0x1224  1224 <OSC_HFCK_Source_Config>
##@@@P_:system_init.c:229
##@@@L0226_:#else   
##@@@L0227_:	OSC_HFCK_Source_Config(HFCK_SOURCE_EXTHF);   
##@@@L0228_:#endif   
##@@@L0229_:	OSC_HFCK_Enable(TRUE);   
    16d6:	06 58       	MOV       R0, R6
    16d8:	9f 00 b2 fd 	LJMP      $-590     ;->0x123c  123c <OSC_HFCK_Enable>
##@@@P_:system_init.c:231
##@@@L0230_:	/* Enable LFCLK and if configure the LFCLK default clock source is LSI DIV<1:1> */   
##@@@L0231_:	OSC_LFCK_Division_Config(LFCK_DIVISION_1);   
    16dc:	00 10       	MOV       R0, #0			;->0x0000
    16de:	9f 00 77 fd 	LJMP      $-649     ;->0x11cc  11cc <OSC_LFCK_Division_Config>
##@@@P_:system_init.c:232
##@@@L0232_:	OSC_LFCK_Source_Config(LFCK_INPUT_INTLF);   
    16e2:	00 10       	MOV       R0, #0			;->0x0000
    16e4:	9f 00 b4 fd 	LJMP      $-588     ;->0x124c  124c <OSC_LFCK_Source_Config>
##@@@P_:system_init.c:233
##@@@L0233_:	OSC_LFCK_Enable(TRUE);   
    16e8:	06 58       	MOV       R0, R6
    16ea:	9f 00 b9 fd 	LJMP      $-583     ;->0x125c  125c <OSC_LFCK_Enable>
##@@@F_:SystemInit():
##@@@P_:system_init.c:246
##@@@L0241_: */   
##@@@L0242_:void SystemInit(void)   
##@@@L0243_:{   
##@@@L0244_:	/* Configure the System clock source, PLL Multiplier and Divider factors */   
##@@@L0245_:	SetSysClock();   
##@@@L0246_:}   
    16ee:	e4 28       	ADD       SP, #4			;->0x04
    16f0:	06 5d       	POP       R6
    16f2:	0d 5d       	POP       LR
    16f4:	1d 5c       	JMP       LR
    16f6:	00 00       	NOP      NOP      
    16f8:	00 01 20 40 	.long     0x40200100 ->1075839232  [!!!@2@:CMN       R0, R0	@@: LD        R0, [PC + #32]        ;->0x1778  :=0x29e05d0d

000016fc <startup>:
##@@@F_:startup():
##@@@P_:startup.c:8
##@@@L0003_:extern unsigned char __bss_end__;   
##@@@L0004_:extern unsigned char __data_start__;   
##@@@L0005_:extern void main();   
##@@@L0006_:
##@@@L0007_:void startup()   
##@@@L0008_:{   
    16fc:	2d 5d       	PUSH      LR
##@@@P_:startup.c:14
##@@@L0009_:	unsigned char length;   
##@@@L0010_:	unsigned int *s,*begin,*end;   
##@@@L0011_:	s = (unsigned int*)&__text_end__;   
##@@@L0012_:	begin = (unsigned int*)&__data_start__;   
##@@@L0013_:	end = (unsigned int*)&__bss_start__;   
##@@@L0014_:	while(begin < end)   
    16fe:	12 45       	LD        R5, [PC + #18]        ;->0x1744  :=0x10000000
    1700:	12 41       	LD        R1, [PC + #18]        ;->0x1748  :=0x10000248
    1702:	15 70       	CMP       R1, R5
    1704:	0d f9       	JLS       $+13                  ;->0x171e
    1706:	12 44       	LD        R4, [PC + #18]        ;->0x174c  :=0x2458
##@@@P_:startup.c:7
##@@@L0002_:extern unsigned char __bss_start__;   
##@@@L0003_:extern unsigned char __bss_end__;   
##@@@L0004_:extern unsigned char __data_start__;   
##@@@L0005_:extern void main();   
##@@@L0006_:
##@@@L0007_:void startup()   
    1708:	12 43       	LD        R3, [PC + #18]        ;->0x1750  :=0x10000004
    170a:	13 42       	LD        R2, [PC + #19]        ;->0x1754  :=0x1000024b
    170c:	d2 c6       	SUB       R2, R2, R3
    170e:	12 7c       	LSR       R2, #2			;->0x02
    1710:	52 c0       	ADD       R2, R2, #1
    1712:	12 7a       	LSL       R2, #2			;->0x02
    1714:	52 c3       	ADD       R2, R2, R5
##@@@P_:startup.c:15
##@@@L0010_:	unsigned int *s,*begin,*end;   
##@@@L0011_:	s = (unsigned int*)&__text_end__;   
##@@@L0012_:	begin = (unsigned int*)&__data_start__;   
##@@@L0013_:	end = (unsigned int*)&__bss_start__;   
##@@@L0014_:	while(begin < end)   
##@@@L0015_:		*begin++ = *s++;   
    1716:	34 72       	LD.W      R3, [R4++]
    1718:	53 73       	ST.W      [R5++], R3
##@@@P_:startup.c:14
##@@@L0009_:	unsigned char length;   
##@@@L0010_:	unsigned int *s,*begin,*end;   
##@@@L0011_:	s = (unsigned int*)&__text_end__;   
##@@@L0012_:	begin = (unsigned int*)&__data_start__;   
##@@@L0013_:	end = (unsigned int*)&__bss_start__;   
##@@@L0014_:	while(begin < end)   
    171a:	52 70       	CMP       R5, R2
    171c:	fd f1       	JNZ       $-3                   ;->0x1716
##@@@P_:startup.c:19
##@@@L0015_:		*begin++ = *s++;   
##@@@L0016_:	   
##@@@L0017_:	begin = (unsigned int*)&__bss_start__;   
##@@@L0018_:	end = (unsigned int*)&__bss_end__;   
##@@@L0019_:	while(begin < end)   
    171e:	0b 45       	LD        R5, [PC + #11]        ;->0x1748  :=0x10000248
    1720:	0e 44       	LD        R4, [PC + #14]        ;->0x1758  :=0x1000076c
    1722:	41 70       	CMP       R4, R1
    1724:	0c f9       	JLS       $+12                  ;->0x173c
##@@@P_:startup.c:7
##@@@L0002_:extern unsigned char __bss_start__;   
##@@@L0003_:extern unsigned char __bss_end__;   
##@@@L0004_:extern unsigned char __data_start__;   
##@@@L0005_:extern void main();   
##@@@L0006_:
##@@@L0007_:void startup()   
    1726:	0e 44       	LD        R4, [PC + #14]        ;->0x175c  :=0x1000024c
    1728:	0e 43       	LD        R3, [PC + #14]        ;->0x1760  :=0x1000076f
    172a:	1b c7       	SUB       R3, R3, R4
    172c:	1a 7c       	LSR       R3, #2			;->0x02
    172e:	5b c0       	ADD       R3, R3, #1
    1730:	1a 7a       	LSL       R3, #2			;->0x02
    1732:	5b c3       	ADD       R3, R3, R5
##@@@P_:startup.c:20
##@@@L0015_:		*begin++ = *s++;   
##@@@L0016_:	   
##@@@L0017_:	begin = (unsigned int*)&__bss_start__;   
##@@@L0018_:	end = (unsigned int*)&__bss_end__;   
##@@@L0019_:	while(begin < end)   
##@@@L0020_:		*begin++ = 0;   
    1734:	40 10       	MOV       R4, #0			;->0x0000
    1736:	54 73       	ST.W      [R5++], R4
##@@@P_:startup.c:19
##@@@L0014_:	while(begin < end)   
##@@@L0015_:		*begin++ = *s++;   
##@@@L0016_:	   
##@@@L0017_:	begin = (unsigned int*)&__bss_start__;   
##@@@L0018_:	end = (unsigned int*)&__bss_end__;   
##@@@L0019_:	while(begin < end)   
    1738:	53 70       	CMP       R5, R3
    173a:	fe f1       	JNZ       $-2                   ;->0x1736
##@@@P_:startup.c:21
##@@@L0020_:		*begin++ = 0;   
##@@@L0021_:	main();   
    173c:	9f 00 be fb 	LJMP      $-1090    ;->0xeb8  eb8 <main>
##@@@P_:startup.c:22
    1740:	0d 5d       	POP       LR
    1742:	1d 5c       	JMP       LR
    1744:	00 00 00 10 	.long     0x10000000 ->268435456  [!!!@2@:NOP      	@@: MOV       R0, #0
    1748:	48 02 00 10 	.long     0x10000248 ->268436040  [!!!@2@:SVC       SVC, #72	@@: MOV       R0, #0
    174c:	58 24 00 00 	.long     0x00002458 ->000009304  [!!!@2@:ST.W      [SP + #88], R4	@@: NOP      
    1750:	04 00 00 10 	.long     0x10000004 ->268435460 
    1754:	4b 02 00 10 	.long     0x1000024b ->268436043  [!!!@2@:SVC       SVC, #75	@@: MOV       R0, #0
    1758:	6c 07 00 10 	.long     0x1000076c ->268437356  [!!!@2@:SJMP      $-148                 ;->0x1630	@@: MOV       R0, #0
    175c:	4c 02 00 10 	.long     0x1000024c ->268436044  [!!!@2@:SVC       SVC, #76	@@: MOV       R0, #0
    1760:	6f 07 00 10 	.long     0x1000076f ->268437359  [!!!@2@:SJMP      $-145                 ;->0x163e	@@: MOV       R0, #0

00001764 <fprintf>:
##@@@F_:fprintf():
##@@@P_:fprintf.c:8
    1764:	24 5d       	PUSH      R4
    1766:	23 5d       	PUSH      R3
    1768:	22 5d       	PUSH      R2
    176a:	21 5d       	PUSH      R1
    176c:	2d 5d       	PUSH      LR
##@@@P_:fprintf.c:12
    176e:	01 09       	LD.W      R1, [SP + #1]
    1770:	4e 58       	MOV       R2, SP
    1772:	28 28       	ADD       R2, #8			;->0x08
    1774:	80 00 06 00 	LJMP      $+6       ;->0x1780  1780 <vfprintf>
##@@@P_:fprintf.c:13
    1778:	0d 5d       	POP       LR
    177a:	e0 29       	ADD       SP, #16			;->0x10
    177c:	1d 5c       	JMP       LR
	...

00001780 <vfprintf>:
##@@@F_:vfprintf():
##@@@P_:vfprintf.c:43
    1780:	ff 5f       	PUSH      {R6-R12,LR}
    1782:	ec 33       	SUB       SP, #60			;->0x3C
    1784:	0b 20       	ST.W      [SP + #11], R0
    1786:	82 59       	MOV       R12, R2
##@@@P_:vfprintf.c:84
    1788:	e1 58       	MOV       R7, R1
##@@@P_:vfprintf.c:75
    178a:	00 10       	MOV       R0, #0			;->0x0000
    178c:	0a 20       	ST.W      [SP + #10], R0
##@@@P_:vfprintf.c:86
    178e:	18 05       	SJMP      $+280                 ;->0x19be
##@@@P_:vfprintf.c:90
    1790:	05 3a       	CMP       R0, #37			;->0x25
    1792:	02 f0       	JZ        $+2                   ;->0x1796
    1794:	0c 05       	SJMP      $+268                 ;->0x19ac
##@@@P_:vfprintf.c:121
    1796:	47 88       	LD.B      R0, [R7 + #1]
    1798:	05 3a       	CMP       R0, #37			;->0x25
    179a:	09 f1       	JNZ       $+9                   ;->0x17ac
##@@@P_:vfprintf.c:123
    179c:	0b 09       	LD.W      R1, [SP + #11]
    179e:	80 00 17 04 	LJMP      $+1047    ;->0x1fcc  1fcc <fputchar>
##@@@P_:vfprintf.c:124
    17a2:	0a 09       	LD.W      R1, [SP + #10]
    17a4:	49 c0       	ADD       R1, R1, #1
    17a6:	0a 21       	ST.W      [SP + #10], R1
##@@@P_:vfprintf.c:125
    17a8:	bf c0       	ADD       R7, R7, #2
##@@@P_:vfprintf.c:126
    17aa:	0a 05       	SJMP      $+266                 ;->0x19be
##@@@P_:vfprintf.c:131
    17ac:	00 3b       	CMP       R0, #48			;->0x30
    17ae:	05 f0       	JZ        $+5                   ;->0x17b8
##@@@P_:vfprintf.c:117
    17b0:	7f c0       	ADD       R7, R7, #1
##@@@P_:vfprintf.c:106
    17b2:	40 12       	MOV       R4, #32			;->0x0020
    17b4:	0c 24       	ST.W      [SP + #12], R4
    17b6:	03 04       	SJMP      $+3                   ;->0x17bc
##@@@P_:vfprintf.c:134
    17b8:	bf c0       	ADD       R7, R7, #2
##@@@P_:vfprintf.c:133
    17ba:	0c 20       	ST.W      [SP + #12], R0
##@@@P_:vfprintf.c:136
    17bc:	57 80       	LD.B      R5, [R7]
##@@@P_:vfprintf.c:105
    17be:	40 10       	MOV       R4, #0			;->0x0000
    17c0:	0d 24       	ST.W      [SP + #13], R4
##@@@P_:vfprintf.c:136
    17c2:	5d 3a       	CMP       R5, #45			;->0x2D
    17c4:	04 f1       	JNZ       $+4                   ;->0x17cc
##@@@P_:vfprintf.c:139
    17c6:	7f c0       	ADD       R7, R7, #1
##@@@P_:vfprintf.c:138
    17c8:	01 10       	MOV       R0, #1			;->0x0001
    17ca:	0d 20       	ST.W      [SP + #13], R0
##@@@P_:vfprintf.c:144
    17cc:	57 80       	LD.B      R5, [R7]
##@@@P_:vfprintf.c:115
    17ce:	bb 12       	MOV       R11, #43			;->0x002B
##@@@P_:vfprintf.c:114
    17d0:	60 10       	MOV       R6, #0			;->0x0000
##@@@P_:vfprintf.c:144
    17d2:	50 3a       	CMP       R5, #32			;->0x20
    17d4:	04 f1       	JNZ       $+4                   ;->0x17dc
##@@@P_:vfprintf.c:148
    17d6:	7f c0       	ADD       R7, R7, #1
##@@@P_:vfprintf.c:147
    17d8:	65 59       	MOV       R11, R5
##@@@P_:vfprintf.c:146
    17da:	61 10       	MOV       R6, #1			;->0x0001
##@@@P_:vfprintf.c:151
    17dc:	57 80       	LD.B      R5, [R7]
    17de:	5b 3a       	CMP       R5, #43			;->0x2B
    17e0:	03 f1       	JNZ       $+3                   ;->0x17e6
##@@@P_:vfprintf.c:154
    17e2:	7f c0       	ADD       R7, R7, #1
##@@@P_:vfprintf.c:153
    17e4:	61 10       	MOV       R6, #1			;->0x0001
##@@@P_:vfprintf.c:160
    17e6:	57 80       	LD.B      R5, [R7]
    17e8:	51 33       	SUB       R5, #49			;->0x31
    17ea:	55 d1       	ZXT.B     R5, R5
##@@@P_:vfprintf.c:104
    17ec:	80 10       	MOV       R8, #0			;->0x0000
##@@@P_:vfprintf.c:160
    17ee:	58 38       	CMP       R5, #8			;->0x08
    17f0:	12 f8       	JHI       $+18                  ;->0x1814
    17f2:	a7 58       	MOV       R5, R7
##@@@P_:vfprintf.c:164
    17f4:	2a 10       	MOV       R2, #10			;->0x000A
    17f6:	08 04       	SJMP      $+8                   ;->0x1806
    17f8:	28 58       	MOV       R1, R8
    17fa:	99 ca       	MULS      R3, R1, R2
    17fc:	00 00       	NOP      NOP      
    17fe:	30 33       	SUB       R3, #48			;->0x30
    1800:	03 59       	MOV       R8, R3
    1802:	84 64       	ADD       R8, R4
    1804:	88 d1       	ZXT.B     R8, R8
    1806:	e5 58       	MOV       R7, R5
##@@@P_:vfprintf.c:162 (discriminator 1)
    1808:	45 76       	LD.B      R4, [R5++]
    180a:	00 13       	MOV       R0, #48			;->0x0030
    180c:	1c c6       	SUB       R3, R4, R0
    180e:	33 d1       	ZXT.B     R3, R3
    1810:	39 38       	CMP       R3, #9			;->0x09
    1812:	f3 f9       	JLS       $-13                  ;->0x17f8
##@@@P_:vfprintf.c:171
    1814:	57 80       	LD.B      R5, [R7]
##@@@P_:vfprintf.c:110
    1816:	9f 1f       	MOV       R9, #255			;->0x00FF
##@@@P_:vfprintf.c:171
    1818:	5e 3a       	CMP       R5, #46			;->0x2E
    181a:	13 f1       	JNZ       $+19                  ;->0x1840
##@@@P_:vfprintf.c:173
    181c:	6f c0       	ADD       R5, R7, #1
##@@@P_:vfprintf.c:174
    181e:	90 10       	MOV       R9, #0			;->0x0000
##@@@P_:vfprintf.c:177
    1820:	2a 10       	MOV       R2, #10			;->0x000A
##@@@P_:vfprintf.c:175
    1822:	08 04       	SJMP      $+8                   ;->0x1832
##@@@P_:vfprintf.c:177
    1824:	29 58       	MOV       R1, R9
    1826:	99 ca       	MULS      R3, R1, R2
    1828:	00 00       	NOP      NOP      
    182a:	30 33       	SUB       R3, #48			;->0x30
    182c:	23 59       	MOV       R9, R3
    182e:	94 64       	ADD       R9, R4
    1830:	99 d1       	ZXT.B     R9, R9
    1832:	e5 58       	MOV       R7, R5
##@@@P_:vfprintf.c:175 (discriminator 1)
    1834:	45 76       	LD.B      R4, [R5++]
    1836:	00 13       	MOV       R0, #48			;->0x0030
    1838:	1c c6       	SUB       R3, R4, R0
    183a:	33 d1       	ZXT.B     R3, R3
    183c:	39 38       	CMP       R3, #9			;->0x09
    183e:	f3 f9       	JLS       $-13                  ;->0x1824
##@@@P_:vfprintf.c:185
    1840:	57 80       	LD.B      R5, [R7]
    1842:	5c 3e       	CMP       R5, #108			;->0x6C
    1844:	05 f1       	JNZ       $+5                   ;->0x184e
##@@@P_:vfprintf.c:188
    1846:	7f c0       	ADD       R7, R7, #1
##@@@P_:vfprintf.c:96
    1848:	50 10       	MOV       R5, #0			;->0x0000
##@@@P_:vfprintf.c:187
    184a:	11 10       	MOV       R1, #1			;->0x0001
    184c:	09 04       	SJMP      $+9                   ;->0x185e
##@@@P_:vfprintf.c:190
    184e:	58 3e       	CMP       R5, #104			;->0x68
    1850:	05 f1       	JNZ       $+5                   ;->0x185a
##@@@P_:vfprintf.c:193
    1852:	7f c0       	ADD       R7, R7, #1
##@@@P_:vfprintf.c:192
    1854:	51 10       	MOV       R5, #1			;->0x0001
##@@@P_:vfprintf.c:94
    1856:	10 10       	MOV       R1, #0			;->0x0000
    1858:	03 04       	SJMP      $+3                   ;->0x185e
##@@@P_:vfprintf.c:96
    185a:	50 10       	MOV       R5, #0			;->0x0000
##@@@P_:vfprintf.c:94
    185c:	25 58       	MOV       R1, R5
##@@@P_:vfprintf.c:196
    185e:	37 80       	LD.B      R3, [R7]
##@@@P_:vfprintf.c:99
    1860:	40 10       	MOV       R4, #0			;->0x0000
##@@@P_:vfprintf.c:196
    1862:	35 3f       	CMP       R3, #117			;->0x75
    1864:	03 f1       	JNZ       $+3                   ;->0x186a
##@@@P_:vfprintf.c:199
    1866:	7f c0       	ADD       R7, R7, #1
##@@@P_:vfprintf.c:198
    1868:	41 10       	MOV       R4, #1			;->0x0001
##@@@P_:vfprintf.c:202
    186a:	07 80       	LD.B      R0, [R7]
    186c:	03 3f       	CMP       R0, #115			;->0x73
    186e:	02 f1       	JNZ       $+2                   ;->0x1872
    1870:	d1 04       	SJMP      $+209                 ;->0x1a12
##@@@P_:vfprintf.c:209
    1872:	08 3f       	CMP       R0, #120			;->0x78
    1874:	02 f1       	JNZ       $+2                   ;->0x1878
    1876:	b8 04       	SJMP      $+184                 ;->0x19e6
##@@@P_:vfprintf.c:211
    1878:	08 3d       	CMP       R0, #88			;->0x58
    187a:	02 f1       	JNZ       $+2                   ;->0x187e
    187c:	b7 04       	SJMP      $+183                 ;->0x19ea
##@@@P_:vfprintf.c:215
    187e:	03 3e       	CMP       R0, #99			;->0x63
    1880:	02 f1       	JNZ       $+2                   ;->0x1884
    1882:	b7 04       	SJMP      $+183                 ;->0x19f0
##@@@P_:vfprintf.c:217
    1884:	0f 3e       	CMP       R0, #111			;->0x6F
    1886:	02 f1       	JNZ       $+2                   ;->0x188a
    1888:	b7 04       	SJMP      $+183                 ;->0x19f6
##@@@P_:vfprintf.c:219
    188a:	02 3e       	CMP       R0, #98			;->0x62
    188c:	02 f1       	JNZ       $+2                   ;->0x1890
    188e:	b7 04       	SJMP      $+183                 ;->0x19fc
##@@@P_:vfprintf.c:221
    1890:	06 3e       	CMP       R0, #102			;->0x66
    1892:	02 f1       	JNZ       $+2                   ;->0x1896
    1894:	9a 04       	SJMP      $+154                 ;->0x19c8
##@@@P_:vfprintf.c:227
    1896:	04 3e       	CMP       R0, #100			;->0x64
    1898:	02 f1       	JNZ       $+2                   ;->0x189c
    189a:	b4 04       	SJMP      $+180                 ;->0x1a02
##@@@P_:vfprintf.c:227 (discriminator 1)
    189c:	09 3e       	CMP       R0, #105			;->0x69
    189e:	02 f1       	JNZ       $+2                   ;->0x18a2
    18a0:	b1 04       	SJMP      $+177                 ;->0x1a02
##@@@P_:vfprintf.c:229
    18a2:	40 38       	CMP       R4, #0			;->0x00
    18a4:	03 f0       	JZ        $+3                   ;->0x18aa
##@@@P_:vfprintf.c:230
    18a6:	7f cc       	SUB       R7, R7, #1
    18a8:	ad 04       	SJMP      $+173                 ;->0x1a02
##@@@P_:vfprintf.c:239
    18aa:	0b 09       	LD.W      R1, [SP + #11]
    18ac:	80 00 90 03 	LJMP      $+912     ;->0x1fcc  1fcc <fputchar>
##@@@P_:vfprintf.c:240
    18b0:	0a 09       	LD.W      R1, [SP + #10]
    18b2:	49 c0       	ADD       R1, R1, #1
    18b4:	0a 21       	ST.W      [SP + #10], R1
##@@@P_:vfprintf.c:241
    18b6:	7f c0       	ADD       R7, R7, #1
##@@@P_:vfprintf.c:242
    18b8:	83 04       	SJMP      $+131                 ;->0x19be
##@@@P_:vfprintf.c:284
    18ba:	0c 82       	LD.W      R0, [R12]
    18bc:	05 04       	SJMP      $+5                   ;->0x18c6
    18be:	0c 82       	LD.W      R0, [R12]
##@@@P_:vfprintf.c:286
    18c0:	50 38       	CMP       R5, #0			;->0x00
    18c2:	02 f0       	JZ        $+2                   ;->0x18c6
##@@@P_:vfprintf.c:288
    18c4:	00 d1       	ZXT.B     R0, R0
##@@@P_:vfprintf.c:294
    18c6:	83 59       	MOV       R12, R3
##@@@P_:vfprintf.c:301
    18c8:	20 38       	CMP       R2, #0			;->0x00
    18ca:	13 f0       	JZ        $+19                  ;->0x18f0
##@@@P_:vfprintf.c:303
    18cc:	40 38       	CMP       R4, #0			;->0x00
    18ce:	06 f0       	JZ        $+6                   ;->0x18da
##@@@P_:vfprintf.c:304
    18d0:	6e 58       	MOV       R3, SP
    18d2:	4b c0       	ADD       R1, R3, #1
    18d4:	80 00 b4 02 	LJMP      $+692     ;->0x1e3c  1e3c <ultoa>
    18d8:	05 04       	SJMP      $+5                   ;->0x18e2
##@@@P_:vfprintf.c:306
    18da:	8e 58       	MOV       R4, SP
    18dc:	4c c0       	ADD       R1, R4, #1
    18de:	80 00 d2 02 	LJMP      $+722     ;->0x1e82  1e82 <ltoa>
##@@@P_:vfprintf.c:308
    18e2:	60 38       	CMP       R6, #0			;->0x00
    18e4:	0b f0       	JZ        $+11                  ;->0x18fa
##@@@P_:vfprintf.c:308 (discriminator 1)
    18e6:	a1 e1       	LD.B      R5, [SP + #1]
    18e8:	5d 3a       	CMP       R5, #45			;->0x2D
    18ea:	0b f0       	JZ        $+11                  ;->0x1900
##@@@P_:vfprintf.c:311
    18ec:	eb 83       	ST.B      [SP], R11
    18ee:	7a 04       	SJMP      $+122                 ;->0x19e2
##@@@P_:vfprintf.c:318
    18f0:	01 e3       	ST.B      [SP + #1], R0
##@@@P_:vfprintf.c:319
    18f2:	42 e3       	ST.B      [SP + #2], R2
##@@@P_:vfprintf.c:299
    18f4:	ae 58       	MOV       R5, SP
    18f6:	75 c0       	ADD       R6, R5, #1
    18f8:	06 04       	SJMP      $+6                   ;->0x1904
    18fa:	0e 58       	MOV       R0, SP
    18fc:	70 c0       	ADD       R6, R0, #1
    18fe:	03 04       	SJMP      $+3                   ;->0x1904
    1900:	2e 58       	MOV       R1, SP
    1902:	71 c0       	ADD       R6, R1, #1
##@@@P_:vfprintf.c:278
    1904:	9f 1f       	MOV       R9, #255			;->0x00FF
    1906:	a6 58       	MOV       R5, R6
##@@@P_:vfprintf.c:326
    1908:	03 04       	SJMP      $+3                   ;->0x190e
##@@@P_:vfprintf.c:329
    190a:	81 30       	SUB       R8, #1			;->0x01
    190c:	88 d1       	ZXT.B     R8, R8
##@@@P_:vfprintf.c:326 (discriminator 1)
    190e:	80 38       	CMP       R8, #0			;->0x00
    1910:	04 f0       	JZ        $+4                   ;->0x1918
##@@@P_:vfprintf.c:326 (discriminator 2)
    1912:	45 76       	LD.B      R4, [R5++]
    1914:	40 38       	CMP       R4, #0			;->0x00
    1916:	fa f1       	JNZ       $-6                   ;->0x190a
##@@@P_:vfprintf.c:332
    1918:	0d 0b       	LD.W      R3, [SP + #13]
    191a:	30 38       	CMP       R3, #0			;->0x00
    191c:	03 f1       	JNZ       $+3                   ;->0x1922
##@@@P_:vfprintf.c:332 (discriminator 1)
    191e:	68 59       	MOV       R11, R8
    1920:	0d 04       	SJMP      $+13                  ;->0x193a
##@@@P_:vfprintf.c:346
    1922:	0a 0c       	LD.W      R4, [SP + #10]
    1924:	64 59       	MOV       R11, R4
##@@@P_:vfprintf.c:42
    1926:	2e c7       	SUB       R5, R6, R4
    1928:	0c 25       	ST.W      [SP + #12], R5
##@@@P_:vfprintf.c:346
    192a:	6f 1f       	MOV       R6, #255			;->0x00FF
    192c:	23 04       	SJMP      $+35                  ;->0x1972
##@@@P_:vfprintf.c:336
    192e:	0c 08       	LD.W      R0, [SP + #12]
    1930:	0b 09       	LD.W      R1, [SP + #11]
    1932:	80 00 4d 03 	LJMP      $+845     ;->0x1fcc  1fcc <fputchar>
##@@@P_:vfprintf.c:338
    1936:	b1 30       	SUB       R11, #1			;->0x01
    1938:	bb d1       	ZXT.B     R11, R11
##@@@P_:vfprintf.c:334 (discriminator 1)
    193a:	b0 38       	CMP       R11, #0			;->0x00
    193c:	f9 f1       	JNZ       $-7                   ;->0x192e
    193e:	0a 08       	LD.W      R0, [SP + #10]
    1940:	08 64       	ADD       R0, R8
    1942:	0a 20       	ST.W      [SP + #10], R0
##@@@P_:vfprintf.c:42
    1944:	0b 59       	MOV       R8, R11
    1946:	ee 07       	SJMP      $-18                  ;->0x1922
##@@@P_:vfprintf.c:346
    1948:	25 59       	MOV       R9, R5
##@@@P_:vfprintf.c:351
    194a:	a0 38       	CMP       R10, #0			;->0x00
    194c:	0b f0       	JZ        $+11                  ;->0x1962
##@@@P_:vfprintf.c:353
    194e:	37 41       	LD        R1, [PC + #55]        ;->0x1a28  :=0x10000244
    1950:	31 82       	LD.W      R3, [R1]
    1952:	0e 23       	ST.W      [SP + #14], R3
    1954:	2b e4       	LD.B      R5, [R3 + R0]
    1956:	45 d1       	ZXT.B     R4, R5
    1958:	50 11       	MOV       R5, #16			;->0x0010
    195a:	6c d5       	ANL       R5, R4, R5
    195c:	03 f0       	JZ        $+3                   ;->0x1962
##@@@P_:vfprintf.c:353 (discriminator 1)
    195e:	00 32       	SUB       R0, #32			;->0x20
    1960:	00 d1       	ZXT.B     R0, R0
##@@@P_:vfprintf.c:355
    1962:	0b 09       	LD.W      R1, [SP + #11]
    1964:	80 00 34 03 	LJMP      $+820     ;->0x1fcc  1fcc <fputchar>
##@@@P_:vfprintf.c:357
    1968:	b1 28       	ADD       R11, #1			;->0x01
##@@@P_:vfprintf.c:358
    196a:	80 38       	CMP       R8, #0			;->0x00
    196c:	03 f0       	JZ        $+3                   ;->0x1972
##@@@P_:vfprintf.c:360
    196e:	81 30       	SUB       R8, #1			;->0x01
    1970:	88 d1       	ZXT.B     R8, R8
##@@@P_:vfprintf.c:344 (discriminator 1)
    1972:	0c 09       	LD.W      R1, [SP + #12]
    1974:	6b 58       	MOV       R3, R11
    1976:	c9 e4       	LD.B      R1, [R1 + R3]
    1978:	01 d1       	ZXT.B     R0, R1
    197a:	00 38       	CMP       R0, #0			;->0x00
    197c:	06 f1       	JNZ       $+6                   ;->0x1988
##@@@P_:vfprintf.c:344
    197e:	c8 58       	MOV       R6, R8
##@@@P_:vfprintf.c:367
    1980:	0d 0b       	LD.W      R3, [SP + #13]
    1982:	30 38       	CMP       R3, #0			;->0x00
    1984:	1a f0       	JZ        $+26                  ;->0x19b8
    1986:	0f 04       	SJMP      $+15                  ;->0x19a4
##@@@P_:vfprintf.c:346
    1988:	96 70       	CMP       R9, R6
    198a:	e0 f0       	JZ        $-32                  ;->0x194a
##@@@P_:vfprintf.c:346 (discriminator 1)
    198c:	89 58       	MOV       R4, R9
    198e:	6c cc       	SUB       R5, R4, #1
    1990:	55 d1       	ZXT.B     R5, R5
    1992:	90 38       	CMP       R9, #0			;->0x00
    1994:	da f1       	JNZ       $-38                  ;->0x1948
    1996:	f4 07       	SJMP      $-12                  ;->0x197e
##@@@P_:vfprintf.c:371
    1998:	00 12       	MOV       R0, #32			;->0x0020
    199a:	0b 09       	LD.W      R1, [SP + #11]
    199c:	80 00 18 03 	LJMP      $+792     ;->0x1fcc  1fcc <fputchar>
##@@@P_:vfprintf.c:373
    19a0:	81 30       	SUB       R8, #1			;->0x01
    19a2:	88 d1       	ZXT.B     R8, R8
##@@@P_:vfprintf.c:369 (discriminator 1)
    19a4:	80 38       	CMP       R8, #0			;->0x00
    19a6:	f9 f1       	JNZ       $-7                   ;->0x1998
    19a8:	b6 64       	ADD       R11, R6
    19aa:	07 04       	SJMP      $+7                   ;->0x19b8
##@@@P_:vfprintf.c:383
    19ac:	0b 09       	LD.W      R1, [SP + #11]
    19ae:	80 00 0f 03 	LJMP      $+783     ;->0x1fcc  1fcc <fputchar>
##@@@P_:vfprintf.c:384
    19b2:	0a 0d       	LD.W      R5, [SP + #10]
    19b4:	6d c0       	ADD       R5, R5, #1
    19b6:	65 59       	MOV       R11, R5
##@@@P_:vfprintf.c:387
    19b8:	7f c0       	ADD       R7, R7, #1
    19ba:	2b 58       	MOV       R1, R11
    19bc:	0a 21       	ST.W      [SP + #10], R1
##@@@P_:vfprintf.c:86 (discriminator 1)
    19be:	07 80       	LD.B      R0, [R7]
    19c0:	00 38       	CMP       R0, #0			;->0x00
    19c2:	02 f0       	JZ        $+2                   ;->0x19c6
    19c4:	e6 06       	SJMP      $-282                 ;->0x1790
    19c6:	2c 04       	SJMP      $+44                  ;->0x1a1e
##@@@P_:vfprintf.c:256
    19c8:	cc 58       	MOV       R6, R12
    19ca:	68 28       	ADD       R6, #8			;->0x08
    19cc:	6c 58       	MOV       R3, R12
    19ce:	03 82       	LD.W      R0, [R3]
    19d0:	4b 98       	LD.W      R1, [R3 + #1]
    19d2:	80 00 67 02 	LJMP      $+615     ;->0x1ea0  1ea0 <__truncdfsf2>
##@@@P_:vfprintf.c:258
    19d6:	2e 58       	MOV       R1, SP
    19d8:	49 58       	MOV       R2, R9
    19da:	80 00 ff 00 	LJMP      $+255     ;->0x1bd8  1bd8 <ftoa>
##@@@P_:vfprintf.c:256
    19de:	86 59       	MOV       R12, R6
##@@@P_:vfprintf.c:101
    19e0:	a0 10       	MOV       R10, #0			;->0x0000
##@@@P_:vfprintf.c:257
    19e2:	ce 58       	MOV       R6, SP
    19e4:	90 07       	SJMP      $-112                 ;->0x1904
##@@@P_:vfprintf.c:101
    19e6:	a0 10       	MOV       R10, #0			;->0x0000
    19e8:	02 04       	SJMP      $+2                   ;->0x19ec
##@@@P_:vfprintf.c:213
    19ea:	a1 10       	MOV       R10, #1			;->0x0001
    19ec:	20 11       	MOV       R2, #16			;->0x0010
    19ee:	0c 04       	SJMP      $+12                  ;->0x1a06
##@@@P_:vfprintf.c:101
    19f0:	a0 10       	MOV       R10, #0			;->0x0000
##@@@P_:vfprintf.c:216
    19f2:	4a 58       	MOV       R2, R10
    19f4:	09 04       	SJMP      $+9                   ;->0x1a06
##@@@P_:vfprintf.c:101
    19f6:	a0 10       	MOV       R10, #0			;->0x0000
##@@@P_:vfprintf.c:218
    19f8:	28 10       	MOV       R2, #8			;->0x0008
    19fa:	06 04       	SJMP      $+6                   ;->0x1a06
##@@@P_:vfprintf.c:101
    19fc:	a0 10       	MOV       R10, #0			;->0x0000
##@@@P_:vfprintf.c:220
    19fe:	22 10       	MOV       R2, #2			;->0x0002
    1a00:	03 04       	SJMP      $+3                   ;->0x1a06
##@@@P_:vfprintf.c:101
    1a02:	a0 10       	MOV       R10, #0			;->0x0000
##@@@P_:vfprintf.c:100
    1a04:	2a 10       	MOV       R2, #10			;->0x000A
    1a06:	0c 58       	MOV       R0, R12
    1a08:	18 c1       	ADD       R3, R0, #4
##@@@P_:vfprintf.c:282
    1a0a:	10 38       	CMP       R1, #0			;->0x00
    1a0c:	02 f0       	JZ        $+2                   ;->0x1a10
    1a0e:	56 07       	SJMP      $-170                 ;->0x18ba
    1a10:	57 07       	SJMP      $-169                 ;->0x18be
##@@@P_:vfprintf.c:249
    1a12:	6c 82       	LD.W      R6, [R12]
    1a14:	c4 28       	ADD       R12, #4			;->0x04
##@@@P_:vfprintf.c:206
    1a16:	30 12       	MOV       R3, #32			;->0x0020
    1a18:	0c 23       	ST.W      [SP + #12], R3
##@@@P_:vfprintf.c:101
    1a1a:	a0 10       	MOV       R10, #0			;->0x0000
    1a1c:	75 07       	SJMP      $-139                 ;->0x1906
##@@@P_:vfprintf.c:391
    1a1e:	0a 08       	LD.W      R0, [SP + #10]
    1a20:	ec 2b       	ADD       SP, #60			;->0x3C
    1a22:	7f 5e       	POP       {R6-R12}
    1a24:	0d 5d       	POP       LR
    1a26:	1d 5c       	JMP       LR
    1a28:	44 02 00 10 	.long     0x10000244 ->268436036  [!!!@2@:SVC       SVC, #68	@@: MOV       R0, #0

00001a2c <memcmp>:
##@@@F_:memcmp():
    1a2c:	20 38       	CMP       R2, #0			;->0x00
    1a2e:	0a f0       	JZ        $+10                  ;->0x1a42
    1a30:	30 76       	LD.B      R3, [R0++]
    1a32:	41 76       	LD.B      R4, [R1++]
    1a34:	34 70       	CMP       R3, R4
    1a36:	04 f1       	JNZ       $+4                   ;->0x1a3e
    1a38:	52 cc       	SUB       R2, R2, #1
    1a3a:	04 f0       	JZ        $+4                   ;->0x1a42
    1a3c:	fa 07       	SJMP      $-6                   ;->0x1a30
    1a3e:	03 c7       	SUB       R0, R3, R4
    1a40:	1d 5c       	JMP       LR
    1a42:	00 10       	MOV       R0, #0			;->0x0000
    1a44:	1d 5c       	JMP       LR

00001a46 <memcpy>:
##@@@F_:memcpy():
##@@@P_:mem_set_cpy_Fast.c:26
    1a46:	ff 5f       	PUSH      {R6-R12,LR}
##@@@P_:mem_set_cpy_Fast.c:29
    1a48:	90 c2       	ADD       R2, R0, R2
##@@@P_:mem_set_cpy_Fast.c:33
    1a4a:	3e 11       	MOV       R3, #30			;->0x001E
    1a4c:	e8 da       	LSL       R5, R0, R3
    1a4e:	0d f0       	JZ        $+13                  ;->0x1a68
##@@@P_:mem_set_cpy_Fast.c:34
    1a50:	e0 c0       	ADD       R4, R0, #3
    1a52:	20 4a       	CLR       R4, #0			;->0x00
    1a54:	21 4a       	CLR       R4, #1			;->0x01
##@@@P_:mem_set_cpy_Fast.c:28
    1a56:	a0 58       	MOV       R5, R0
##@@@P_:mem_set_cpy_Fast.c:35
    1a58:	42 70       	CMP       R4, R2
    1a5a:	75 f8       	JHI       $+117                 ;->0x1b44
    1a5c:	03 04       	SJMP      $+3                   ;->0x1a62
##@@@P_:mem_set_cpy_Fast.c:39
    1a5e:	31 76       	LD.B      R3, [R1++]
    1a60:	53 77       	ST.B      [R5++], R3
##@@@P_:mem_set_cpy_Fast.c:38 (discriminator 1)
    1a62:	45 70       	CMP       R4, R5
    1a64:	fd f8       	JHI       $-3                   ;->0x1a5e
    1a66:	02 04       	SJMP      $+2                   ;->0x1a6a
##@@@P_:mem_set_cpy_Fast.c:28
    1a68:	a0 58       	MOV       R5, R0
##@@@P_:mem_set_cpy_Fast.c:45
    1a6a:	7e 11       	MOV       R7, #30			;->0x001E
    1a6c:	e1 db       	LSL       R4, R1, R7
    1a6e:	1c f1       	JNZ       $+28                  ;->0x1aa6
##@@@P_:mem_set_cpy_Fast.c:46
    1a70:	20 39       	CMP       R2, #16			;->0x10
    1a72:	0e f9       	JLS       $+14                  ;->0x1a8e
##@@@P_:mem_set_cpy_Fast.c:46 (discriminator 1)
    1a74:	30 11       	MOV       R3, #16			;->0x0010
    1a76:	e2 c6       	SUB       R4, R2, R3
    1a78:	0b 04       	SJMP      $+11                  ;->0x1a8e
##@@@P_:mem_set_cpy_Fast.c:48
    1a7a:	31 82       	LD.W      R3, [R1]
    1a7c:	53 85       	ST.W      [R5], R3
##@@@P_:mem_set_cpy_Fast.c:49
    1a7e:	79 98       	LD.W      R7, [R1 + #1]
    1a80:	6f a0       	ST.W      [R5 + #1], R7
##@@@P_:mem_set_cpy_Fast.c:50
    1a82:	99 98       	LD.W      R3, [R1 + #2]
    1a84:	ab a0       	ST.W      [R5 + #2], R3
##@@@P_:mem_set_cpy_Fast.c:51
    1a86:	f9 98       	LD.W      R7, [R1 + #3]
    1a88:	ef a0       	ST.W      [R5 + #3], R7
##@@@P_:mem_set_cpy_Fast.c:52
    1a8a:	10 29       	ADD       R1, #16			;->0x10
##@@@P_:mem_set_cpy_Fast.c:53
    1a8c:	50 29       	ADD       R5, #16			;->0x10
##@@@P_:mem_set_cpy_Fast.c:47 (discriminator 1)
    1a8e:	45 70       	CMP       R4, R5
    1a90:	f5 f8       	JHI       $-11                  ;->0x1a7a
##@@@P_:mem_set_cpy_Fast.c:55
    1a92:	43 10       	MOV       R4, #3			;->0x0003
    1a94:	44 68       	NOT       R4, R4
    1a96:	1a d5       	ANL       R3, R2, R4
##@@@P_:mem_set_cpy_Fast.c:56
    1a98:	03 04       	SJMP      $+3                   ;->0x1a9e
##@@@P_:mem_set_cpy_Fast.c:57
    1a9a:	41 72       	LD.W      R4, [R1++]
    1a9c:	54 73       	ST.W      [R5++], R4
    1a9e:	81 58       	MOV       R4, R1
##@@@P_:mem_set_cpy_Fast.c:56 (discriminator 1)
    1aa0:	35 70       	CMP       R3, R5
    1aa2:	fc f8       	JHI       $-4                   ;->0x1a9a
    1aa4:	54 04       	SJMP      $+84                  ;->0x1b4c
##@@@P_:mem_set_cpy_Fast.c:61
    1aa6:	43 10       	MOV       R4, #3			;->0x0003
    1aa8:	21 d5       	ANL       R4, R1, R4
    1aaa:	04 59       	MOV       R8, R4
##@@@P_:mem_set_cpy_Fast.c:62
    1aac:	64 58       	MOV       R3, R4
    1aae:	1b 7a       	LSL       R3, #3			;->0x03
##@@@P_:mem_set_cpy_Fast.c:63
    1ab0:	64 10       	MOV       R6, #4			;->0x0004
    1ab2:	36 c7       	SUB       R6, R6, R4
    1ab4:	33 7a       	LSL       R6, #3			;->0x03
##@@@P_:mem_set_cpy_Fast.c:64
    1ab6:	90 10       	MOV       R9, #0			;->0x0000
    1ab8:	20 39       	CMP       R2, #16			;->0x10
    1aba:	04 f9       	JLS       $+4                   ;->0x1ac2
##@@@P_:mem_set_cpy_Fast.c:64 (discriminator 1)
    1abc:	e2 58       	MOV       R7, R2
    1abe:	70 31       	SUB       R7, #16			;->0x10
    1ac0:	27 59       	MOV       R9, R7
##@@@P_:mem_set_cpy_Fast.c:65 (discriminator 3)
    1ac2:	08 4a       	CLR       R1, #0			;->0x00
    1ac4:	09 4a       	CLR       R1, #1			;->0x01
##@@@P_:mem_set_cpy_Fast.c:26
    1ac6:	b0 10       	MOV       R11, #0			;->0x0000
    1ac8:	b5 66       	SUB       R11, R5
    1aca:	61 c7       	SUB       R4, R1, R5
    1acc:	44 59       	MOV       R10, R4
##@@@P_:mem_set_cpy_Fast.c:67
    1ace:	27 04       	SJMP      $+39                  ;->0x1b1c
##@@@P_:mem_set_cpy_Fast.c:26
    1ad0:	e5 58       	MOV       R7, R5
    1ad2:	7b 64       	ADD       R7, R11
    1ad4:	a7 59       	MOV       LR, R7
    1ad6:	67 c2       	ADD       R4, R7, R1
##@@@P_:mem_set_cpy_Fast.c:69
    1ad8:	7c 98       	LD.W      R7, [R4 + #1]
    1ada:	bf db       	LSL       R7, R7, R6
    1adc:	87 59       	MOV       R12, R7
    1ade:	ed 58       	MOV       R7, LR
    1ae0:	27 5d       	PUSH      R7
    1ae2:	71 64       	ADD       R7, R1
    1ae4:	d7 82       	LD.W      LR, [R7]
    1ae6:	07 5d       	POP       R7
    1ae8:	d3 6d       	LSR       LR, R3
    1aea:	cd 6a       	ORL       R12, LR
    1aec:	5c 85       	ST.W      [R5], R12
##@@@P_:mem_set_cpy_Fast.c:70
    1aee:	bc 98       	LD.W      R7, [R4 + #2]
    1af0:	bf db       	LSL       R7, R7, R6
    1af2:	87 59       	MOV       R12, R7
    1af4:	7c 98       	LD.W      R7, [R4 + #1]
    1af6:	ff dc       	LSR       R7, R7, R3
    1af8:	c7 6a       	ORL       R12, R7
    1afa:	ec 58       	MOV       R7, R12
    1afc:	6f a0       	ST.W      [R5 + #1], R7
##@@@P_:mem_set_cpy_Fast.c:71
    1afe:	fc 98       	LD.W      R7, [R4 + #3]
    1b00:	bf db       	LSL       R7, R7, R6
    1b02:	87 59       	MOV       R12, R7
    1b04:	bc 98       	LD.W      R7, [R4 + #2]
    1b06:	ff dc       	LSR       R7, R7, R3
    1b08:	c7 6a       	ORL       R12, R7
    1b0a:	ec 58       	MOV       R7, R12
    1b0c:	af a0       	ST.W      [R5 + #2], R7
##@@@P_:mem_set_cpy_Fast.c:72
    1b0e:	3c 99       	LD.W      R7, [R4 + #4]
    1b10:	bf db       	LSL       R7, R7, R6
    1b12:	e4 98       	LD.W      R4, [R4 + #3]
    1b14:	e4 dc       	LSR       R4, R4, R3
    1b16:	27 d7       	ORL       R4, R7, R4
    1b18:	ec a0       	ST.W      [R5 + #3], R4
##@@@P_:mem_set_cpy_Fast.c:81
    1b1a:	50 29       	ADD       R5, #16			;->0x10
##@@@P_:mem_set_cpy_Fast.c:26 (discriminator 1)
    1b1c:	8a 58       	MOV       R4, R10
    1b1e:	7c c3       	ADD       R7, R4, R5
##@@@P_:mem_set_cpy_Fast.c:67
    1b20:	95 70       	CMP       R9, R5
    1b22:	d7 f8       	JHI       $-41                  ;->0x1ad0
##@@@P_:mem_set_cpy_Fast.c:83
    1b24:	13 10       	MOV       R1, #3			;->0x0003
    1b26:	11 68       	NOT       R1, R1
    1b28:	62 d4       	ANL       R4, R2, R1
##@@@P_:mem_set_cpy_Fast.c:84
    1b2a:	08 04       	SJMP      $+8                   ;->0x1b3a
##@@@P_:mem_set_cpy_Fast.c:86 (discriminator 2)
    1b2c:	4f 98       	LD.W      R1, [R7 + #1]
    1b2e:	89 db       	LSL       R1, R1, R6
    1b30:	21 59       	MOV       R9, R1
    1b32:	17 72       	LD.W      R1, [R7++]
    1b34:	c9 dc       	LSR       R1, R1, R3
    1b36:	91 6a       	ORL       R9, R1
    1b38:	59 73       	ST.W      [R5++], R9
##@@@P_:mem_set_cpy_Fast.c:84 (discriminator 1)
    1b3a:	45 70       	CMP       R4, R5
    1b3c:	f8 f8       	JHI       $-8                   ;->0x1b2c
##@@@P_:mem_set_cpy_Fast.c:92
    1b3e:	68 58       	MOV       R3, R8
    1b40:	e7 c2       	ADD       R4, R7, R3
    1b42:	05 04       	SJMP      $+5                   ;->0x1b4c
##@@@P_:mem_set_cpy_Fast.c:27
    1b44:	81 58       	MOV       R4, R1
    1b46:	03 04       	SJMP      $+3                   ;->0x1b4c
##@@@P_:mem_set_cpy_Fast.c:98
    1b48:	34 76       	LD.B      R3, [R4++]
    1b4a:	53 77       	ST.B      [R5++], R3
##@@@P_:mem_set_cpy_Fast.c:97 (discriminator 1)
    1b4c:	25 70       	CMP       R2, R5
    1b4e:	fd f8       	JHI       $-3                   ;->0x1b48
##@@@P_:mem_set_cpy_Fast.c:104
    1b50:	7f 5e       	POP       {R6-R12}
    1b52:	0d 5d       	POP       LR
    1b54:	1d 5c       	JMP       LR
	...

00001b58 <_ftoa_put_char>:
##@@@F_:_ftoa_put_char():
##@@@P_:ftoa.c:80
    1b58:	03 44       	LD        R4, [PC + #3]         ;->0x1b64  :=0x10000768
    1b5a:	54 82       	LD.W      R5, [R4]
    1b5c:	50 77       	ST.B      [R5++], R0
    1b5e:	45 85       	ST.W      [R4], R5
##@@@P_:ftoa.c:81
    1b60:	1d 5c       	JMP       LR
    1b62:	00 00       	NOP      NOP      
    1b64:	68 07 00 10 	.long     0x10000768 ->268437352  [!!!@2@:SJMP      $-152                 ;->0x1a34	@@: MOV       R0, #0

00001b68 <_ftoa_put_digit>:
##@@@F_:_ftoa_put_digit():
##@@@P_:ftoa.c:84
    1b68:	81 5f       	PUSH      {R6,LR}
##@@@P_:ftoa.c:85
    1b6a:	09 46       	LD        R6, [PC + #9]         ;->0x1b8c  :=0x10000764
    1b6c:	06 82       	LD.W      R0, [R6]
    1b6e:	84 7d       	LSR       R0, #28			;->0x1C
    1b70:	00 2b       	ADD       R0, #48			;->0x30
    1b72:	9f 00 f3 ff 	LJMP      $-13      ;->0x1b58  1b58 <_ftoa_put_char>
##@@@P_:ftoa.c:86
    1b76:	07 45       	LD        R5, [PC + #7]         ;->0x1b90  :=0xfffffff
    1b78:	36 82       	LD.W      R3, [R6]
    1b7a:	6b d5       	ANL       R5, R3, R5
##@@@F_:_mul10():
##@@@P_:ftoa.c:55
    1b7c:	32 10       	MOV       R3, #2			;->0x0002
    1b7e:	e5 da       	LSL       R4, R5, R3
    1b80:	6c c3       	ADD       R5, R4, R5
    1b82:	6d c3       	ADD       R5, R5, R5
    1b84:	65 85       	ST.W      [R6], R5
##@@@F_:_ftoa_put_digit():
##@@@P_:ftoa.c:88
    1b86:	06 5d       	POP       R6
    1b88:	0d 5d       	POP       LR
    1b8a:	1d 5c       	JMP       LR
    1b8c:	64 07 00 10 	.long     0x10000764 ->268437348  [!!!@2@:SJMP      $-156                 ;->0x1a54	@@: MOV       R0, #0
    1b90:	ff ff ff 0f 	.long     0x0fffffff ->268435455 

00001b94 <_ftoa_round>:
##@@@F_:_ftoa_round():
##@@@P_:ftoa.c:60
    1b94:	00 38       	CMP       R0, #0			;->0x00
    1b96:	1a f4       	JMI       $+26                  ;->0x1bca
##@@@P_:ftoa.c:62
    1b98:	0d 45       	LD        R5, [PC + #13]        ;->0x1bcc  :=0x10000764
    1b9a:	45 82       	LD.W      R4, [R5]
##@@@P_:ftoa.c:64
    1b9c:	51 10       	MOV       R5, #1			;->0x0001
    1b9e:	ab 7b       	LSL       R5, #27			;->0x1B
##@@@F_:_div10():
##@@@P_:ftoa.c:50
    1ba0:	3a 10       	MOV       R3, #10			;->0x000A
##@@@F_:_ftoa_round():
##@@@P_:ftoa.c:64
    1ba2:	04 04       	SJMP      $+4                   ;->0x1baa
##@@@F_:_div10():
##@@@P_:ftoa.c:50
    1ba4:	6d c1       	ADD       R5, R5, #5
    1ba6:	ed d2       	DIVU      R5, R5, R3
##@@@F_:_ftoa_round():
##@@@P_:ftoa.c:67
    1ba8:	40 cc       	SUB       R0, R0, #1
##@@@P_:ftoa.c:64 (discriminator 1)
    1baa:	00 38       	CMP       R0, #0			;->0x00
    1bac:	fc f1       	JNZ       $-4                   ;->0x1ba4
##@@@P_:ftoa.c:69
    1bae:	2d c3       	ADD       R5, R5, R4
    1bb0:	07 44       	LD        R4, [PC + #7]         ;->0x1bcc  :=0x10000764
    1bb2:	45 85       	ST.W      [R4], R5
##@@@P_:ftoa.c:70
    1bb4:	07 43       	LD        R3, [PC + #7]         ;->0x1bd0  :=0x9fffffff
    1bb6:	53 70       	CMP       R5, R3
    1bb8:	09 f9       	JLS       $+9                   ;->0x1bca
##@@@F_:_div10():
##@@@P_:ftoa.c:50
    1bba:	6d c1       	ADD       R5, R5, #5
    1bbc:	3a 10       	MOV       R3, #10			;->0x000A
    1bbe:	ed d2       	DIVU      R5, R5, R3
    1bc0:	45 85       	ST.W      [R4], R5
##@@@F_:_ftoa_round():
##@@@P_:ftoa.c:73
    1bc2:	05 45       	LD        R5, [PC + #5]         ;->0x1bd4  :=0x1000075c
    1bc4:	35 82       	LD.W      R3, [R5]
    1bc6:	63 c0       	ADD       R4, R3, #1
    1bc8:	54 85       	ST.W      [R5], R4
##@@@P_:ftoa.c:76
    1bca:	1d 5c       	JMP       LR
    1bcc:	64 07 00 10 	.long     0x10000764 ->268437348  [!!!@2@:SJMP      $-156                 ;->0x1a94	@@: MOV       R0, #0
    1bd0:	ff ff ff 9f 	.long     0x9fffffff ->-1610612737 
    1bd4:	5c 07 00 10 	.long     0x1000075c ->268437340  [!!!@2@:SJMP      $-164                 ;->0x1a8c	@@: MOV       R0, #0

00001bd8 <ftoa>:
##@@@F_:ftoa():
##@@@P_:ftoa.c:91
    1bd8:	87 5f       	PUSH      {R6-R8,LR}
    1bda:	62 d1       	ZXT.B     R6, R2
##@@@P_:ftoa.c:92
    1bdc:	8d 47       	LD        R7, [PC + #141]       ;->0x1e10  :=0x10000764
    1bde:	70 85       	ST.W      [R7], R0
##@@@P_:ftoa.c:93
    1be0:	8d 45       	LD        R5, [PC + #141]       ;->0x1e14  :=0x10000768
    1be2:	51 85       	ST.W      [R5], R1
##@@@P_:ftoa.c:96
    1be4:	00 38       	CMP       R0, #0			;->0x00
    1be6:	04 f5       	JPL       $+4                   ;->0x1bee
##@@@P_:ftoa.c:97
    1be8:	0d 12       	MOV       R0, #45			;->0x002D
    1bea:	9f 00 b7 ff 	LJMP      $-73      ;->0x1b58  1b58 <_ftoa_put_char>
##@@@P_:ftoa.c:99
    1bee:	57 82       	LD.W      R5, [R7]
    1bf0:	07 11       	MOV       R0, #23			;->0x0017
    1bf2:	1d dc       	LSR       R3, R5, R0
    1bf4:	1f 1f       	MOV       R1, #255			;->0x00FF
    1bf6:	5b d4       	ANL       R3, R3, R1
    1bf8:	88 44       	LD        R4, [PC + #136]       ;->0x1e18  :=0x10000760
    1bfa:	43 85       	ST.W      [R4], R3
##@@@P_:ftoa.c:100
    1bfc:	88 42       	LD        R2, [PC + #136]       ;->0x1e1c  :=0x7fffff
    1bfe:	ad d4       	ANL       R5, R5, R2
    1c00:	01 10       	MOV       R0, #1			;->0x0001
    1c02:	07 7b       	LSL       R0, #23			;->0x17
    1c04:	25 d6       	ORL       R4, R5, R0
    1c06:	74 85       	ST.W      [R7], R4
##@@@P_:ftoa.c:103
    1c08:	31 70       	CMP       R3, R1
    1c0a:	1a f1       	JNZ       $+26                  ;->0x1c3e
##@@@P_:ftoa.c:105
    1c0c:	51 10       	MOV       R5, #1			;->0x0001
    1c0e:	2f 7b       	LSL       R5, #23			;->0x17
    1c10:	45 70       	CMP       R4, R5
    1c12:	09 f1       	JNZ       $+9                   ;->0x1c24
##@@@P_:ftoa.c:108
    1c14:	09 16       	MOV       R0, #105			;->0x0069
    1c16:	9f 00 a1 ff 	LJMP      $-95      ;->0x1b58  1b58 <_ftoa_put_char>
##@@@P_:ftoa.c:109
    1c1a:	0e 16       	MOV       R0, #110			;->0x006E
    1c1c:	9f 00 9e ff 	LJMP      $-98      ;->0x1b58  1b58 <_ftoa_put_char>
##@@@P_:ftoa.c:110
    1c20:	06 14       	MOV       R0, #70			;->0x0046
    1c22:	08 04       	SJMP      $+8                   ;->0x1c32
##@@@P_:ftoa.c:115
    1c24:	0e 16       	MOV       R0, #110			;->0x006E
    1c26:	9f 00 99 ff 	LJMP      $-103     ;->0x1b58  1b58 <_ftoa_put_char>
##@@@P_:ftoa.c:116
    1c2a:	01 16       	MOV       R0, #97			;->0x0061
    1c2c:	9f 00 96 ff 	LJMP      $-106     ;->0x1b58  1b58 <_ftoa_put_char>
##@@@P_:ftoa.c:117
    1c30:	0e 16       	MOV       R0, #110			;->0x006E
    1c32:	9f 00 93 ff 	LJMP      $-109     ;->0x1b58  1b58 <_ftoa_put_char>
##@@@P_:ftoa.c:119
    1c36:	00 10       	MOV       R0, #0			;->0x0000
    1c38:	9f 00 90 ff 	LJMP      $-112     ;->0x1b58  1b58 <_ftoa_put_char>
##@@@P_:ftoa.c:120
    1c3c:	e6 04       	SJMP      $+230                 ;->0x1e08
##@@@P_:ftoa.c:124
    1c3e:	30 38       	CMP       R3, #0			;->0x00
    1c40:	0c f0       	JZ        $+12                  ;->0x1c58
##@@@P_:ftoa.c:170
    1c42:	74 45       	LD        R5, [PC + #116]       ;->0x1e10  :=0x10000764
    1c44:	55 82       	LD.W      R5, [R5]
##@@@P_:ftoa.c:171
    1c46:	75 44       	LD        R4, [PC + #117]       ;->0x1e18  :=0x10000760
    1c48:	44 82       	LD.W      R4, [R4]
    1c4a:	4f 37       	SUB       R4, #127			;->0x7F
    1c4c:	2d 7a       	LSL       R5, #5			;->0x05
    1c4e:	44 58       	MOV       R2, R4
##@@@P_:ftoa.c:173
    1c50:	30 10       	MOV       R3, #0			;->0x0000
##@@@P_:ftoa.c:175
    1c52:	74 41       	LD        R1, [PC + #116]       ;->0x1e20  :=0x4fffffff
##@@@F_:_div5():
##@@@P_:ftoa.c:40
    1c54:	05 10       	MOV       R0, #5			;->0x0005
##@@@F_:ftoa():
##@@@P_:ftoa.c:173
    1c56:	3c 04       	SJMP      $+60                  ;->0x1cce
##@@@P_:ftoa.c:126
    1c58:	31 10       	MOV       R3, #1			;->0x0001
    1c5a:	1f 7b       	LSL       R3, #23			;->0x17
    1c5c:	43 70       	CMP       R4, R3
    1c5e:	24 f1       	JNZ       $+36                  ;->0x1ca6
##@@@P_:ftoa.c:129
    1c60:	00 13       	MOV       R0, #48			;->0x0030
    1c62:	9f 00 7b ff 	LJMP      $-133     ;->0x1b58  1b58 <_ftoa_put_char>
##@@@P_:ftoa.c:130
    1c66:	5f 11       	MOV       R5, #31			;->0x001F
    1c68:	6e d5       	ANL       R5, R6, R5
    1c6a:	6f 47       	LD        R7, [PC + #111]       ;->0x1e24  :=0x1000075c
    1c6c:	75 85       	ST.W      [R7], R5
##@@@P_:ftoa.c:131
    1c6e:	50 38       	CMP       R5, #0			;->0x00
    1c70:	05 f1       	JNZ       $+5                   ;->0x1c7a
##@@@P_:ftoa.c:137
    1c72:	50 14       	MOV       R5, #64			;->0x0040
    1c74:	76 d5       	ANL       R6, R6, R5
    1c76:	e0 f0       	JZ        $-32                  ;->0x1c36
    1c78:	0c 04       	SJMP      $+12                  ;->0x1c90
##@@@P_:ftoa.c:133
    1c7a:	0e 12       	MOV       R0, #46			;->0x002E
    1c7c:	02 04       	SJMP      $+2                   ;->0x1c80
##@@@P_:ftoa.c:135
    1c7e:	00 13       	MOV       R0, #48			;->0x0030
    1c80:	9f 00 6c ff 	LJMP      $-148     ;->0x1b58  1b58 <_ftoa_put_char>
##@@@P_:ftoa.c:134
    1c84:	57 82       	LD.W      R5, [R7]
    1c86:	65 cc       	SUB       R4, R5, #1
    1c88:	74 85       	ST.W      [R7], R4
    1c8a:	50 38       	CMP       R5, #0			;->0x00
    1c8c:	f9 f1       	JNZ       $-7                   ;->0x1c7e
    1c8e:	f2 07       	SJMP      $-14                  ;->0x1c72
##@@@P_:ftoa.c:139
    1c90:	05 14       	MOV       R0, #69			;->0x0045
    1c92:	9f 00 63 ff 	LJMP      $-157     ;->0x1b58  1b58 <_ftoa_put_char>
##@@@P_:ftoa.c:140
    1c96:	0b 12       	MOV       R0, #43			;->0x002B
    1c98:	9f 00 60 ff 	LJMP      $-160     ;->0x1b58  1b58 <_ftoa_put_char>
##@@@P_:ftoa.c:141
    1c9c:	00 13       	MOV       R0, #48			;->0x0030
    1c9e:	9f 00 5d ff 	LJMP      $-163     ;->0x1b58  1b58 <_ftoa_put_char>
##@@@P_:ftoa.c:142
    1ca2:	00 13       	MOV       R0, #48			;->0x0030
    1ca4:	c7 07       	SJMP      $-57                  ;->0x1c32
##@@@P_:ftoa.c:152
    1ca6:	41 10       	MOV       R4, #1			;->0x0001
    1ca8:	02 04       	SJMP      $+2                   ;->0x1cac
##@@@F_:_mul2():
##@@@P_:ftoa.c:35
    1caa:	6d c3       	ADD       R5, R5, R5
    1cac:	64 58       	MOV       R3, R4
    1cae:	64 cc       	SUB       R4, R4, #1
##@@@F_:ftoa():
##@@@P_:ftoa.c:152 (discriminator 1)
    1cb0:	52 70       	CMP       R5, R2
    1cb2:	fc f9       	JLS       $-4                   ;->0x1caa
    1cb4:	57 44       	LD        R4, [PC + #87]        ;->0x1e10  :=0x10000764
    1cb6:	45 85       	ST.W      [R4], R5
    1cb8:	58 45       	LD        R5, [PC + #88]        ;->0x1e18  :=0x10000760
    1cba:	53 85       	ST.W      [R5], R3
    1cbc:	c3 07       	SJMP      $-61                  ;->0x1c42
##@@@P_:ftoa.c:175
    1cbe:	51 70       	CMP       R5, R1
    1cc0:	03 f8       	JHI       $+3                   ;->0x1cc6
##@@@F_:_mul2():
##@@@P_:ftoa.c:35
    1cc2:	6d c3       	ADD       R5, R5, R5
    1cc4:	04 04       	SJMP      $+4                   ;->0x1ccc
##@@@F_:_div5():
##@@@P_:ftoa.c:40
    1cc6:	ad c0       	ADD       R5, R5, #2
    1cc8:	2d d2       	DIVU      R5, R5, R0
##@@@F_:ftoa():
##@@@P_:ftoa.c:182
    1cca:	5b c0       	ADD       R3, R3, #1
    1ccc:	52 cc       	SUB       R2, R2, #1
##@@@P_:ftoa.c:173 (discriminator 1)
    1cce:	20 38       	CMP       R2, #0			;->0x00
    1cd0:	f7 fc       	JGT       $-9                   ;->0x1cbe
##@@@P_:ftoa.c:90
    1cd2:	44 58       	MOV       R2, R4
    1cd4:	40 38       	CMP       R4, #0			;->0x00
    1cd6:	02 f5       	JPL       $+2                   ;->0x1cda
    1cd8:	20 10       	MOV       R2, #0			;->0x0000
    1cda:	a4 c6       	SUB       R4, R4, R2
##@@@P_:ftoa.c:188
    1cdc:	53 42       	LD        R2, [PC + #83]        ;->0x1e28  :=0x1fffffff
    1cde:	0b 04       	SJMP      $+11                  ;->0x1cf4
    1ce0:	52 70       	CMP       R5, R2
    1ce2:	06 f8       	JHI       $+6                   ;->0x1cee
##@@@F_:_mul5():
##@@@P_:ftoa.c:45
    1ce4:	02 10       	MOV       R0, #2			;->0x0002
    1ce6:	0d da       	LSL       R1, R5, R0
    1ce8:	6d c2       	ADD       R5, R5, R1
##@@@F_:ftoa():
##@@@P_:ftoa.c:191
    1cea:	5b cc       	SUB       R3, R3, #1
    1cec:	03 04       	SJMP      $+3                   ;->0x1cf2
##@@@F_:_div2():
##@@@P_:ftoa.c:30
    1cee:	6d c0       	ADD       R5, R5, #1
    1cf0:	29 7c       	LSR       R5, #1			;->0x01
    1cf2:	64 c0       	ADD       R4, R4, #1
##@@@F_:ftoa():
##@@@P_:ftoa.c:186 (discriminator 1)
    1cf4:	40 38       	CMP       R4, #0			;->0x00
    1cf6:	f5 f4       	JMI       $-11                  ;->0x1ce0
    1cf8:	48 42       	LD        R2, [PC + #72]        ;->0x1e18  :=0x10000760
    1cfa:	24 85       	ST.W      [R2], R4
##@@@P_:ftoa.c:199
    1cfc:	4c 42       	LD        R2, [PC + #76]        ;->0x1e2c  :=0xfffffff
    1cfe:	05 04       	SJMP      $+5                   ;->0x1d08
##@@@F_:_mul10():
##@@@P_:ftoa.c:55
    1d00:	12 10       	MOV       R1, #2			;->0x0002
    1d02:	65 da       	LSL       R4, R5, R1
    1d04:	6c c3       	ADD       R5, R4, R5
    1d06:	6d c3       	ADD       R5, R5, R5
    1d08:	83 58       	MOV       R4, R3
    1d0a:	5b cc       	SUB       R3, R3, #1
##@@@F_:ftoa():
##@@@P_:ftoa.c:199 (discriminator 1)
    1d0c:	52 70       	CMP       R5, R2
    1d0e:	f9 f9       	JLS       $-7                   ;->0x1d00
    1d10:	45 43       	LD        R3, [PC + #69]        ;->0x1e24  :=0x1000075c
    1d12:	34 85       	ST.W      [R3], R4
    1d14:	3f 43       	LD        R3, [PC + #63]        ;->0x1e10  :=0x10000764
    1d16:	35 85       	ST.W      [R3], R5
##@@@P_:ftoa.c:208
    1d18:	50 16       	MOV       R5, #96			;->0x0060
    1d1a:	6e d5       	ANL       R5, R6, R5
    1d1c:	0a f1       	JNZ       $+10                  ;->0x1d30
##@@@P_:ftoa.c:210
    1d1e:	53 10       	MOV       R5, #3			;->0x0003
    1d20:	55 68       	NOT       R5, R5
    1d22:	45 70       	CMP       R4, R5
    1d24:	03 fb       	JLT       $+3                   ;->0x1d2a
##@@@P_:ftoa.c:210 (discriminator 1)
    1d26:	46 70       	CMP       R4, R6
    1d28:	03 fb       	JLT       $+3                   ;->0x1d2e
##@@@P_:ftoa.c:211
    1d2a:	36 48       	SET       R6, #6			;->0x06
    1d2c:	02 04       	SJMP      $+2                   ;->0x1d30
##@@@P_:ftoa.c:213
    1d2e:	35 48       	SET       R6, #5			;->0x05
##@@@P_:ftoa.c:216
    1d30:	50 14       	MOV       R5, #64			;->0x0040
    1d32:	6e d5       	ANL       R5, R6, R5
    1d34:	7f 11       	MOV       R7, #31			;->0x001F
##@@@P_:ftoa.c:218
    1d36:	fe d5       	ANL       R7, R6, R7
##@@@P_:ftoa.c:216
    1d38:	50 38       	CMP       R5, #0			;->0x00
    1d3a:	32 f0       	JZ        $+50                  ;->0x1d9e
##@@@P_:ftoa.c:218
    1d3c:	07 58       	MOV       R0, R7
    1d3e:	9f 00 2b ff 	LJMP      $-213     ;->0x1b94  1b94 <_ftoa_round>
##@@@P_:ftoa.c:219
    1d42:	9f 00 13 ff 	LJMP      $-237     ;->0x1b68  1b68 <_ftoa_put_digit>
##@@@P_:ftoa.c:220
    1d46:	35 46       	LD        R6, [PC + #53]        ;->0x1e18  :=0x10000760
    1d48:	67 85       	ST.W      [R6], R7
##@@@P_:ftoa.c:221
    1d4a:	70 38       	CMP       R7, #0			;->0x00
    1d4c:	09 f1       	JNZ       $+9                   ;->0x1d5e
##@@@P_:ftoa.c:230
    1d4e:	05 14       	MOV       R0, #69			;->0x0045
    1d50:	9f 00 04 ff 	LJMP      $-252     ;->0x1b58  1b58 <_ftoa_put_char>
##@@@P_:ftoa.c:231
    1d54:	34 46       	LD        R6, [PC + #52]        ;->0x1e24  :=0x1000075c
    1d56:	56 82       	LD.W      R5, [R6]
    1d58:	50 38       	CMP       R5, #0			;->0x00
    1d5a:	17 f5       	JPL       $+23                  ;->0x1d88
    1d5c:	0e 04       	SJMP      $+14                  ;->0x1d78
##@@@P_:ftoa.c:223
    1d5e:	0e 12       	MOV       R0, #46			;->0x002E
    1d60:	9f 00 fc fe 	LJMP      $-260     ;->0x1b58  1b58 <_ftoa_put_char>
##@@@P_:ftoa.c:224
    1d64:	06 04       	SJMP      $+6                   ;->0x1d70
##@@@P_:ftoa.c:226
    1d66:	9f 00 01 ff 	LJMP      $-255     ;->0x1b68  1b68 <_ftoa_put_digit>
##@@@P_:ftoa.c:227
    1d6a:	46 82       	LD.W      R4, [R6]
    1d6c:	6c cc       	SUB       R5, R4, #1
    1d6e:	65 85       	ST.W      [R6], R5
##@@@P_:ftoa.c:224 (discriminator 1)
    1d70:	56 82       	LD.W      R5, [R6]
    1d72:	50 38       	CMP       R5, #0			;->0x00
    1d74:	f9 fc       	JGT       $-7                   ;->0x1d66
    1d76:	ec 07       	SJMP      $-20                  ;->0x1d4e
##@@@P_:ftoa.c:233
    1d78:	0d 12       	MOV       R0, #45			;->0x002D
    1d7a:	9f 00 ef fe 	LJMP      $-273     ;->0x1b58  1b58 <_ftoa_put_char>
##@@@P_:ftoa.c:234
    1d7e:	50 10       	MOV       R5, #0			;->0x0000
    1d80:	06 82       	LD.W      R0, [R6]
    1d82:	2d c6       	SUB       R5, R5, R0
    1d84:	65 85       	ST.W      [R6], R5
    1d86:	04 04       	SJMP      $+4                   ;->0x1d8e
##@@@P_:ftoa.c:238
    1d88:	0b 12       	MOV       R0, #43			;->0x002B
    1d8a:	9f 00 e7 fe 	LJMP      $-281     ;->0x1b58  1b58 <_ftoa_put_char>
##@@@P_:ftoa.c:240
    1d8e:	26 45       	LD        R5, [PC + #38]        ;->0x1e24  :=0x1000075c
    1d90:	05 82       	LD.W      R0, [R5]
    1d92:	21 45       	LD        R5, [PC + #33]        ;->0x1e14  :=0x10000768
    1d94:	15 82       	LD.W      R1, [R5]
    1d96:	2a 10       	MOV       R2, #10			;->0x000A
    1d98:	80 00 4c 00 	LJMP      $+76      ;->0x1e30  1e30 <uitoa>
    1d9c:	36 04       	SJMP      $+54                  ;->0x1e08
##@@@P_:ftoa.c:245
    1d9e:	22 46       	LD        R6, [PC + #34]        ;->0x1e24  :=0x1000075c
    1da0:	16 82       	LD.W      R1, [R6]
    1da2:	47 c2       	ADD       R0, R7, R1
    1da4:	9f 00 f8 fe 	LJMP      $-264     ;->0x1b94  1b94 <_ftoa_round>
##@@@P_:ftoa.c:247
    1da8:	56 82       	LD.W      R5, [R6]
    1daa:	50 38       	CMP       R5, #0			;->0x00
    1dac:	07 f5       	JPL       $+7                   ;->0x1dba
    1dae:	0a 04       	SJMP      $+10                  ;->0x1dc2
##@@@P_:ftoa.c:251
    1db0:	9f 00 dc fe 	LJMP      $-292     ;->0x1b68  1b68 <_ftoa_put_digit>
##@@@P_:ftoa.c:252
    1db4:	46 82       	LD.W      R4, [R6]
    1db6:	6c cc       	SUB       R5, R4, #1
    1db8:	65 85       	ST.W      [R6], R5
##@@@P_:ftoa.c:249 (discriminator 1)
    1dba:	56 82       	LD.W      R5, [R6]
    1dbc:	50 38       	CMP       R5, #0			;->0x00
    1dbe:	f9 f5       	JPL       $-7                   ;->0x1db0
    1dc0:	04 04       	SJMP      $+4                   ;->0x1dc8
##@@@P_:ftoa.c:257
    1dc2:	00 13       	MOV       R0, #48			;->0x0030
    1dc4:	9f 00 ca fe 	LJMP      $-310     ;->0x1b58  1b58 <_ftoa_put_char>
##@@@P_:ftoa.c:259
    1dc8:	14 46       	LD        R6, [PC + #20]        ;->0x1e18  :=0x10000760
    1dca:	67 85       	ST.W      [R6], R7
##@@@P_:ftoa.c:260
    1dcc:	70 38       	CMP       R7, #0			;->0x00
    1dce:	02 f1       	JNZ       $+2                   ;->0x1dd2
    1dd0:	33 07       	SJMP      $-205                 ;->0x1c36
##@@@P_:ftoa.c:263
    1dd2:	0e 12       	MOV       R0, #46			;->0x002E
    1dd4:	9f 00 c2 fe 	LJMP      $-318     ;->0x1b58  1b58 <_ftoa_put_char>
##@@@P_:ftoa.c:266
    1dd8:	13 47       	LD        R7, [PC + #19]        ;->0x1e24  :=0x1000075c
    1dda:	50 10       	MOV       R5, #0			;->0x0000
    1ddc:	55 68       	NOT       R5, R5
    1dde:	05 59       	MOV       R8, R5
##@@@P_:ftoa.c:264
    1de0:	10 04       	SJMP      $+16                  ;->0x1e00
##@@@P_:ftoa.c:266
    1de2:	57 82       	LD.W      R5, [R7]
    1de4:	58 70       	CMP       R5, R8
    1de6:	08 fa       	JGE       $+8                   ;->0x1df6
##@@@P_:ftoa.c:268
    1de8:	00 13       	MOV       R0, #48			;->0x0030
    1dea:	9f 00 b7 fe 	LJMP      $-329     ;->0x1b58  1b58 <_ftoa_put_char>
##@@@P_:ftoa.c:269
    1dee:	07 82       	LD.W      R0, [R7]
    1df0:	68 c0       	ADD       R5, R0, #1
    1df2:	75 85       	ST.W      [R7], R5
    1df4:	03 04       	SJMP      $+3                   ;->0x1dfa
##@@@P_:ftoa.c:273
    1df6:	9f 00 b9 fe 	LJMP      $-327     ;->0x1b68  1b68 <_ftoa_put_digit>
##@@@P_:ftoa.c:275
    1dfa:	16 82       	LD.W      R1, [R6]
    1dfc:	69 cc       	SUB       R5, R1, #1
    1dfe:	65 85       	ST.W      [R6], R5
##@@@P_:ftoa.c:264 (discriminator 1)
    1e00:	56 82       	LD.W      R5, [R6]
    1e02:	50 38       	CMP       R5, #0			;->0x00
    1e04:	ef fc       	JGT       $-17                  ;->0x1de2
    1e06:	18 07       	SJMP      $-232                 ;->0x1c36
##@@@P_:ftoa.c:280
    1e08:	07 5e       	POP       {R6-R8}
    1e0a:	0d 5d       	POP       LR
    1e0c:	1d 5c       	JMP       LR
    1e0e:	00 00       	NOP      NOP      
    1e10:	64 07 00 10 	.long     0x10000764 ->268437348  [!!!@2@:SJMP      $-156                 ;->0x1cd8	@@: MOV       R0, #0
    1e14:	68 07 00 10 	.long     0x10000768 ->268437352  [!!!@2@:SJMP      $-152                 ;->0x1ce4	@@: MOV       R0, #0
    1e18:	60 07 00 10 	.long     0x10000760 ->268437344  [!!!@2@:SJMP      $-160                 ;->0x1cd8	@@: MOV       R0, #0
    1e1c:	ff ff 7f 00 	.long     0x007fffff ->008388607 
    1e20:	ff ff ff 4f 	.long     0x4fffffff ->1342177279 
    1e24:	5c 07 00 10 	.long     0x1000075c ->268437340  [!!!@2@:SJMP      $-164                 ;->0x1cdc	@@: MOV       R0, #0
    1e28:	ff ff ff 1f 	.long     0x1fffffff ->536870911 
    1e2c:	ff ff ff 0f 	.long     0x0fffffff ->268435455 

00001e30 <uitoa>:
##@@@F_:uitoa():
##@@@P_:itoa.c:32
    1e30:	2d 5d       	PUSH      LR
##@@@P_:itoa.c:33
    1e32:	22 d1       	ZXT.B     R2, R2
    1e34:	80 00 04 00 	LJMP      $+4       ;->0x1e3c  1e3c <ultoa>
##@@@P_:itoa.c:34
    1e38:	0d 5d       	POP       LR
    1e3a:	1d 5c       	JMP       LR

00001e3c <ultoa>:
##@@@F_:ultoa():
##@@@P_:ltoa.c:12
    1e3c:	03 5f       	PUSH      {R6-R7}
    1e3e:	e0 32       	SUB       SP, #32			;->0x20
    1e40:	22 d1       	ZXT.B     R2, R2
##@@@P_:ltoa.c:17
    1e42:	50 12       	MOV       R5, #32			;->0x0020
##@@@P_:ltoa.c:20
    1e44:	98 d2       	DIVU      R3, R0, R2
    1e46:	a3 ca       	MULS      R4, R3, R2
    1e48:	00 00       	NOP      NOP      
    1e4a:	00 c7       	SUB       R0, R0, R4
    1e4c:	00 d1       	ZXT.B     R0, R0
    1e4e:	60 13       	MOV       R6, #48			;->0x0030
    1e50:	a0 c3       	ADD       R4, R0, R6
    1e52:	44 d1       	ZXT.B     R4, R4
##@@@P_:ltoa.c:21
    1e54:	49 3b       	CMP       R4, #57			;->0x39
    1e56:	03 f9       	JLS       $+3                   ;->0x1e5c
##@@@P_:ltoa.c:21 (discriminator 1)
    1e58:	07 2d       	ADD       R0, #87			;->0x57
    1e5a:	40 d1       	ZXT.B     R4, R0
##@@@P_:ltoa.c:23
    1e5c:	6d cc       	SUB       R5, R5, #1
    1e5e:	ee 58       	MOV       R7, SP
    1e60:	47 c3       	ADD       R0, R7, R5
    1e62:	04 83       	ST.B      [R0], R4
##@@@P_:ltoa.c:24
    1e64:	03 58       	MOV       R0, R3
##@@@P_:ltoa.c:25
    1e66:	30 38       	CMP       R3, #0			;->0x00
    1e68:	ee f1       	JNZ       $-18                  ;->0x1e44
##@@@P_:ltoa.c:28 (discriminator 1)
    1e6a:	6e 58       	MOV       R3, SP
    1e6c:	63 c3       	ADD       R4, R3, R5
    1e6e:	44 80       	LD.B      R4, [R4]
    1e70:	14 77       	ST.B      [R1++], R4
    1e72:	6d c0       	ADD       R5, R5, #1
##@@@P_:ltoa.c:29
    1e74:	5f 39       	CMP       R5, #31			;->0x1F
    1e76:	fa f9       	JLS       $-6                   ;->0x1e6a
##@@@P_:ltoa.c:31
    1e78:	50 10       	MOV       R5, #0			;->0x0000
    1e7a:	15 83       	ST.B      [R1], R5
##@@@P_:ltoa.c:32
    1e7c:	e0 2a       	ADD       SP, #32			;->0x20
    1e7e:	03 5e       	POP       {R6-R7}
    1e80:	1d 5c       	JMP       LR

00001e82 <ltoa>:
##@@@F_:ltoa():
##@@@P_:ltoa.c:35
    1e82:	2d 5d       	PUSH      LR
    1e84:	22 d1       	ZXT.B     R2, R2
##@@@P_:ltoa.c:37
    1e86:	00 38       	CMP       R0, #0			;->0x00
    1e88:	07 f5       	JPL       $+7                   ;->0x1e96
##@@@P_:ltoa.c:37 (discriminator 1)
    1e8a:	2a 38       	CMP       R2, #10			;->0x0A
    1e8c:	05 f1       	JNZ       $+5                   ;->0x1e96
##@@@P_:ltoa.c:38
    1e8e:	5d 12       	MOV       R5, #45			;->0x002D
    1e90:	15 77       	ST.B      [R1++], R5
##@@@P_:ltoa.c:39
    1e92:	50 10       	MOV       R5, #0			;->0x0000
    1e94:	05 c6       	SUB       R0, R5, R0
##@@@P_:ltoa.c:42
    1e96:	9f 00 d3 ff 	LJMP      $-45      ;->0x1e3c  1e3c <ultoa>
##@@@P_:ltoa.c:43
    1e9a:	0d 5d       	POP       LR
    1e9c:	1d 5c       	JMP       LR
	...

00001ea0 <__truncdfsf2>:
##@@@F_:__truncdfsf2():
    1ea0:	03 5f       	PUSH      {R6-R7}
    1ea2:	e8 30       	SUB       SP, #8			;->0x08
    1ea4:	e0 85       	ST.W      [SP], R0
    1ea6:	01 21       	ST.W      [SP + #1], R1
    1ea8:	0e 82       	LD.W      R0, [SP]
    1eaa:	01 0c       	LD.W      R4, [SP + #1]
    1eac:	41 41       	LD        R1, [PC + #65]        ;->0x1fb0  :=0xfffff
    1eae:	4c d4       	ANL       R1, R4, R1
    1eb0:	54 11       	MOV       R5, #20			;->0x0014
    1eb2:	5c dd       	LSR       R3, R4, R5
    1eb4:	40 47       	LD        R7, [PC + #64]        ;->0x1fb4  :=0x7ff
    1eb6:	db d5       	ANL       R3, R3, R7
    1eb8:	5f 11       	MOV       R5, #31			;->0x001F
    1eba:	74 dd       	LSR       R6, R4, R5
    1ebc:	0b 7a       	LSL       R1, #3			;->0x03
    1ebe:	5d 11       	MOV       R5, #29			;->0x001D
    1ec0:	60 dd       	LSR       R4, R0, R5
    1ec2:	09 d7       	ORL       R1, R1, R4
    1ec4:	53 10       	MOV       R5, #3			;->0x0003
    1ec6:	50 db       	LSL       R2, R0, R5
    1ec8:	6b c0       	ADD       R5, R3, #1
    1eca:	fd d5       	ANL       R7, R5, R7
    1ecc:	71 38       	CMP       R7, #1			;->0x01
    1ece:	37 fd       	JLE       $+55                  ;->0x1f3c
    1ed0:	3a 44       	LD        R4, [PC + #58]        ;->0x1fb8  :=0x380
    1ed2:	23 c7       	SUB       R4, R3, R4
    1ed4:	5e 1f       	MOV       R5, #254			;->0x00FE
    1ed6:	45 70       	CMP       R4, R5
    1ed8:	43 fc       	JGT       $+67                  ;->0x1f5e
    1eda:	40 38       	CMP       R4, #0			;->0x00
    1edc:	26 fc       	JGT       $+38                  ;->0x1f28
    1ede:	56 11       	MOV       R5, #22			;->0x0016
    1ee0:	55 68       	NOT       R5, R5
    1ee2:	45 70       	CMP       R4, R5
    1ee4:	40 fb       	JLT       $+64                  ;->0x1f64
    1ee6:	0f 49       	SET       R1, #23			;->0x17
    1ee8:	35 44       	LD        R4, [PC + #53]        ;->0x1fbc  :=0x39e
    1eea:	e4 c6       	SUB       R4, R4, R3
    1eec:	35 45       	LD        R5, [PC + #53]        ;->0x1fc0  :=0x37e
    1eee:	4f 39       	CMP       R4, #31			;->0x1F
    1ef0:	0c fc       	JGT       $+12                  ;->0x1f08
    1ef2:	5b c7       	SUB       R3, R3, R5
    1ef4:	02 dd       	LSR       R0, R2, R4
    1ef6:	c9 da       	LSL       R1, R1, R3
    1ef8:	d2 da       	LSL       R2, R2, R3
    1efa:	40 10       	MOV       R4, #0			;->0x0000
    1efc:	ac c6       	SUB       R5, R4, R2
    1efe:	95 d6       	ORL       R2, R5, R2
    1f00:	97 7d       	LSR       R2, #31			;->0x1F
    1f02:	a9 d6       	ORL       R5, R1, R2
    1f04:	2d d6       	ORL       R5, R5, R0
    1f06:	31 04       	SJMP      $+49                  ;->0x1f68
    1f08:	ed c6       	SUB       R5, R5, R3
    1f0a:	79 dd       	LSR       R7, R1, R5
    1f0c:	00 10       	MOV       R0, #0			;->0x0000
    1f0e:	40 3a       	CMP       R4, #32			;->0x20
    1f10:	04 f0       	JZ        $+4                   ;->0x1f18
    1f12:	2d 40       	LD        R0, [PC + #45]        ;->0x1fc4  :=0x35e
    1f14:	1b c6       	SUB       R3, R3, R0
    1f16:	c1 da       	LSL       R0, R1, R3
    1f18:	90 d6       	ORL       R2, R0, R2
    1f1a:	40 10       	MOV       R4, #0			;->0x0000
    1f1c:	ac c6       	SUB       R5, R4, R2
    1f1e:	95 d6       	ORL       R2, R5, R2
    1f20:	3f 11       	MOV       R3, #31			;->0x001F
    1f22:	ea dc       	LSR       R5, R2, R3
    1f24:	ed d7       	ORL       R5, R5, R7
    1f26:	21 04       	SJMP      $+33                  ;->0x1f68
    1f28:	95 7d       	LSR       R2, #29			;->0x1D
    1f2a:	0b 7a       	LSL       R1, #3			;->0x03
    1f2c:	06 7a       	LSL       R0, #6			;->0x06
    1f2e:	50 10       	MOV       R5, #0			;->0x0000
    1f30:	2d c6       	SUB       R5, R5, R0
    1f32:	05 d6       	ORL       R0, R5, R0
    1f34:	87 7d       	LSR       R0, #31			;->0x1F
    1f36:	29 d6       	ORL       R5, R1, R0
    1f38:	ad d6       	ORL       R5, R5, R2
    1f3a:	17 04       	SJMP      $+23                  ;->0x1f68
    1f3c:	91 d6       	ORL       R2, R1, R2
    1f3e:	30 38       	CMP       R3, #0			;->0x00
    1f40:	07 f1       	JNZ       $+7                   ;->0x1f4e
    1f42:	51 10       	MOV       R5, #1			;->0x0001
    1f44:	83 58       	MOV       R4, R3
    1f46:	20 38       	CMP       R2, #0			;->0x00
    1f48:	10 f1       	JNZ       $+16                  ;->0x1f68
    1f4a:	a3 58       	MOV       R5, R3
    1f4c:	0e 04       	SJMP      $+14                  ;->0x1f68
    1f4e:	50 10       	MOV       R5, #0			;->0x0000
    1f50:	4f 1f       	MOV       R4, #255			;->0x00FF
    1f52:	25 70       	CMP       R2, R5
    1f54:	0a f0       	JZ        $+10                  ;->0x1f68
    1f56:	33 10       	MOV       R3, #3			;->0x0003
    1f58:	e9 da       	LSL       R5, R1, R3
    1f5a:	a9 49       	SET       R5, #25			;->0x19
    1f5c:	06 04       	SJMP      $+6                   ;->0x1f68
    1f5e:	50 10       	MOV       R5, #0			;->0x0000
    1f60:	4f 1f       	MOV       R4, #255			;->0x00FF
    1f62:	03 04       	SJMP      $+3                   ;->0x1f68
    1f64:	51 10       	MOV       R5, #1			;->0x0001
    1f66:	40 10       	MOV       R4, #0			;->0x0000
    1f68:	37 10       	MOV       R3, #7			;->0x0007
    1f6a:	dd d4       	ANL       R3, R5, R3
    1f6c:	06 f0       	JZ        $+6                   ;->0x1f78
    1f6e:	3f 10       	MOV       R3, #15			;->0x000F
    1f70:	dd d4       	ANL       R3, R5, R3
    1f72:	34 38       	CMP       R3, #4			;->0x04
    1f74:	02 f0       	JZ        $+2                   ;->0x1f78
    1f76:	2d c1       	ADD       R5, R5, #4
    1f78:	31 10       	MOV       R3, #1			;->0x0001
    1f7a:	9a 7b       	LSL       R3, #26			;->0x1A
    1f7c:	dd d4       	ANL       R3, R5, R3
    1f7e:	08 f0       	JZ        $+8                   ;->0x1f8e
    1f80:	64 c0       	ADD       R4, R4, #1
    1f82:	3f 1f       	MOV       R3, #255			;->0x00FF
    1f84:	43 70       	CMP       R4, R3
    1f86:	03 f0       	JZ        $+3                   ;->0x1f8c
    1f88:	aa 4b       	CLR       R5, #26			;->0x1A
    1f8a:	02 04       	SJMP      $+2                   ;->0x1f8e
    1f8c:	50 10       	MOV       R5, #0			;->0x0000
    1f8e:	2b 7c       	LSR       R5, #3			;->0x03
    1f90:	3f 1f       	MOV       R3, #255			;->0x00FF
    1f92:	43 70       	CMP       R4, R3
    1f94:	04 f1       	JNZ       $+4                   ;->0x1f9c
    1f96:	50 38       	CMP       R5, #0			;->0x00
    1f98:	02 f0       	JZ        $+2                   ;->0x1f9c
    1f9a:	2e 49       	SET       R5, #22			;->0x16
    1f9c:	44 d1       	ZXT.B     R4, R4
    1f9e:	27 7b       	LSL       R4, #23			;->0x17
    1fa0:	0a 40       	LD        R0, [PC + #10]        ;->0x1fc8  :=0x7fffff
    1fa2:	2d d4       	ANL       R5, R5, R0
    1fa4:	b7 7b       	LSL       R6, #31			;->0x1F
    1fa6:	05 d7       	ORL       R0, R5, R4
    1fa8:	80 d7       	ORL       R0, R0, R6
    1faa:	e8 28       	ADD       SP, #8			;->0x08
    1fac:	03 5e       	POP       {R6-R7}
    1fae:	1d 5c       	JMP       LR
    1fb0:	ff ff 0f 00 	.long     0x000fffff ->001048575 
    1fb4:	ff 07 00 00 	.long     0x000007ff ->000002047  [!!!@2@:SJMP      $-1                   ;->0x1fb2	@@: NOP      
    1fb8:	80 03 00 00 	.long     0x00000380 ->000000896  [!!!@4@:JMP       $-8388608             ;->0xff001fb8
    1fbc:	9e 03 00 00 	.long     0x0000039e ->000000926  [!!!@4@:JMP       $-6422528             ;->0xff3c1fbc
    1fc0:	7e 03 00 00 	.long     0x0000037e ->000000894  [!!!@4@:JMP       $+8257536             ;->0xfc1fc0
    1fc4:	5e 03 00 00 	.long     0x0000035e ->000000862  [!!!@4@:JMP       $+6160384             ;->0xbc1fc4
    1fc8:	ff ff 7f 00 	.long     0x007fffff ->008388607 

00001fcc <fputchar>:
##@@@F_:fputchar():
    1fcc:	c8 a0       	ST.W      [R1 + #3], R0
    1fce:	41 10       	MOV       R4, #1			;->0x0001
    1fd0:	a5 7a       	LSL       R4, #13			;->0x0D
    1fd2:	a9 98       	LD.W      R5, [R1 + #2]
    1fd4:	2d d5       	ANL       R5, R5, R4
    1fd6:	fe f1       	JNZ       $-2                   ;->0x1fd2
    1fd8:	41 10       	MOV       R4, #1			;->0x0001
    1fda:	a5 7a       	LSL       R4, #13			;->0x0D
    1fdc:	a9 98       	LD.W      R5, [R1 + #2]
    1fde:	2d d5       	ANL       R5, R5, R4
    1fe0:	fe f0       	JZ        $-2                   ;->0x1fdc
    1fe2:	04 10       	MOV       R0, #4			;->0x0004
    1fe4:	01 30       	SUB       R0, #1			;->0x01
    1fe6:	ff f1       	JNZ       $-1                   ;->0x1fe4
    1fe8:	00 10       	MOV       R0, #0			;->0x0000
    1fea:	1d 5c       	JMP       LR

00001fec <sec_table>:
##@@@F_:.rdata$sec_table$scode_local_8():
    1fec:	00 40 03 00 00 a8 00 00 00 e8 03 00 00 08 00 00     .@..............
    1ffc:	00 f0 03 00 00 08 00 00 00 f8 03 00 00 08 00 00     ................

0000200c <K>:
##@@@F_:.rdata$K$scode_local_10():
    200c:	78 a4 6a d7 56 b7 c7 e8 db 70 20 24 ee ce bd c1     x.j.V....p $....
    201c:	af 0f 7c f5 2a c6 87 47 13 46 30 a8 01 95 46 fd     ..|.*..G.F0...F.
    202c:	d8 98 80 69 af f7 44 8b b1 5b ff ff be d7 5c 89     ...i..D..[....\.
    203c:	22 11 90 6b 93 71 98 fd 8e 43 79 a6 21 08 b4 49     "..k.q...Cy.!..I
    204c:	62 25 1e f6 40 b3 40 c0 51 5a 5e 26 aa c7 b6 e9     b%..@.@.QZ^&....
    205c:	5d 10 2f d6 53 14 44 02 81 e6 a1 d8 c8 fb d3 e7     ]./.S.D.........
    206c:	e6 cd e1 21 d6 07 37 c3 87 0d d5 f4 ed 14 5a 45     ...!..7.......ZE
    207c:	05 e9 e3 a9 f8 a3 ef fc d9 02 6f 67 8a 4c 2a 8d     ..........og.L*.
    208c:	42 39 fa ff 81 f6 71 87 22 61 9d 6d 0c 38 e5 fd     B9....q."a.m.8..
    209c:	44 ea be a4 a9 cf de 4b 60 4b bb f6 70 bc bf be     D......K`K..p...
    20ac:	c6 7e 9b 28 fa 27 a1 ea 85 30 ef d4 05 1d 88 04     .~.(.'...0......
    20bc:	39 d0 d4 d9 e5 99 db e6 f8 7c a2 1f 65 56 ac c4     9........|..eV..
    20cc:	44 22 29 f4 97 ff 2a 43 a7 23 94 ab 39 a0 93 fc     D")...*C.#..9...
    20dc:	c3 59 5b 65 92 cc 0c 8f 7d f4 ef ff d1 5d 84 85     .Y[e....}....]..
    20ec:	4f 7e a8 6f e0 e6 2c fe 14 43 01 a3 a1 11 08 4e     O~.o..,..C.....N
    20fc:	82 7e 53 f7 35 f2 3a bd bb d2 d7 2a 91 d3 86 eb     .~S.5.:....*....

0000210c <S>:
##@@@F_:.rdata$S$scode_local_11():
    210c:	07 0c 11 16 07 0c 11 16 07 0c 11 16 07 0c 11 16     ................
    211c:	05 09 0e 14 05 09 0e 14 05 09 0e 14 05 09 0e 14     ................
    212c:	04 0b 10 17 04 0b 10 17 04 0b 10 17 04 0b 10 17     ................
    213c:	06 0a 0f 15 06 0a 0f 15 06 0a 0f 15 06 0a 0f 15     ................

0000214c <GPIO_PIN>:
##@@@F_:.rdata$GPIO_PIN$scode_local_6():
    214c:	20 00 40 00 00 20 00 00                              .@.. ..

00002154 <EVAL_COM_GPIO_PORT>:
##@@@F_:.rdata$EVAL_COM_GPIO_PORT$scode_local_8():
    2154:	00 00 00 50 00 00 00 50 00 00 00 50 80 00 00 50     ...P...P...P...P

00002164 <EVAL_COM_TX_PIN>:
##@@@F_:.rdata$EVAL_COM_TX_PIN$scode_local_9():
    2164:	08 00 40 00 02 00 00 08                             ..@.....

0000216c <EVAL_COM_TX_PIN_NUM>:
##@@@F_:.rdata$EVAL_COM_TX_PIN_NUM$scode_local_10():
    216c:	03 00 06 00 01 00 0b 00                             ........

00002174 <EVAL_COM_TX_PIN_RMP>:
##@@@F_:.rdata$EVAL_COM_TX_PIN_RMP$scode_local_11():
    2174:	06 06 05 05                                         ....

00002178 <EVAL_COM_RX_PIN>:
##@@@F_:.rdata$EVAL_COM_RX_PIN$scode_local_12():
    2178:	04 00 20 00 01 00 00 04                             .. .....

00002180 <EVAL_COM_RX_PIN_NUM>:
##@@@F_:.rdata$EVAL_COM_RX_PIN_NUM$scode_local_13():
    2180:	02 00 05 00 00 00 0a 00                             ........

00002188 <EVAL_COM_RX_PIN_RMP>:
##@@@F_:.rdata$EVAL_COM_RX_PIN_RMP$scode_local_14():
    2188:	06 06 05 0b                                         ....

0000218c <EVAL_COM_BAUD>:
##@@@F_:.rdata$EVAL_COM_BAUD$scode_local_15():
    218c:	00 c2 01 00 00 c2 01 00 00 c2 01 00 00 c2 01 00     ................

0000219c <EVAL_COM_USART>:
##@@@F_:.rdata$EVAL_COM_USART$scode_local_16():
    219c:	00 0b 00 40 80 1e 00 40 80 09 00 40 00 0a 00 40     ...@...@...@...@

000021ac <ctype_tab>:
    21ac:	00 80 80 80 80 80 80 80 80 80 40 40 40 40 40 80     ..........@@@@@.
    21bc:	80 80 80 80 80 80 80 80 80 80 80 80 80 80 80 80     ................
    21cc:	80 04 08 08 08 08 08 08 08 08 08 08 08 08 08 08     ................
    21dc:	08 21 21 21 21 21 21 21 21 21 21 08 08 08 08 08     .!!!!!!!!!!.....
    21ec:	08 08 03 03 03 03 03 03 02 02 02 02 02 02 02 02     ................
    21fc:	02 02 02 02 02 02 02 02 02 02 02 02 08 08 08 08     ................
    220c:	08 08 11 11 11 11 11 11 10 10 10 10 10 10 10 10     ................
    221c:	10 10 10 10 10 10 10 10 10 10 10 10 08 08 08 08     ................
    222c:	80 00 00 00 00 00 00 00 00 00 00 00 00 00 00 00     ................
	...
##@@@F_:.rodata.str1.4$scode_local_1():
    22b0:	46 6c 61 73 68 20 4d 44 35 20 74 65 73 74 0d 0a     Flash MD5 test..
    22c0:	00 00 00 00 61 64 64 72 3d 30 78 25 30 38 6c 58     ....addr=0x%08lX
    22d0:	2c 20 73 69 7a 65 3d 25 6c 75 20 62 79 74 65 73     , size=%lu bytes
    22e0:	0d 0a 00 00 6d 64 35 3d 00 00 00 00 25 30 32 58     ....md5=....%02X
    22f0:	00 00 00 00 0d 0a 00 00 0d 0a 72 75 6e 74 69 6d     ..........runtim
##@@@F_:.rodata.str1.4$scode_local_4():
    2300:	65 20 70 61 72 61 6d 20 74 65 73 74 20 73 74 61     e param test sta
    2310:	72 74 0d 0a 00 00 00 00 6c 6f 61 64 20 72 65 74     rt......load ret
    2320:	3d 25 64 0d 0a 00 00 00 6c 6f 61 64 3a 20 72 75     =%d.....load: ru
    2330:	6e 5f 74 69 6d 65 3d 25 6c 75 2c 20 73 61 76 65     n_time=%lu, save
    2340:	5f 63 6f 75 6e 74 3d 25 6c 75 2c 20 62 72 69 67     _count=%lu, brig
    2350:	68 74 6e 65 73 73 3d 25 75 2c 20 6d 6f 64 65 3d     htness=%u, mode=
    2360:	25 75 0d 0a 00 00 00 00 75 73 65 20 64 65 66 61     %u......use defa
    2370:	75 6c 74 20 72 75 6e 74 69 6d 65 20 70 61 72 61     ult runtime para
    2380:	6d 0d 0a 00 73 61 76 65 20 72 65 74 3d 25 64 0d     m...save ret=%d.
    2390:	0a 00 00 00 73 61 76 65 3a 20 72 75 6e 5f 74 69     ....save: run_ti
    23a0:	6d 65 3d 25 6c 75 2c 20 73 61 76 65 5f 63 6f 75     me=%lu, save_cou
    23b0:	6e 74 3d 25 6c 75 2c 20 62 72 69 67 68 74 6e 65     nt=%lu, brightne
    23c0:	73 73 3d 25 75 2c 20 6d 6f 64 65 3d 25 75 0d 0a     ss=%u, mode=%u..
    23d0:	00 00 00 00 72 75 6e 74 69 6d 65 20 70 61 72 61     ....runtime para
    23e0:	6d 20 74 65 73 74 20 64 6f 6e 65 0d 0a 00 00 00     m test done.....
##@@@F_:.rodata.str1.4$scode_local_6():
    23f0:	42 6f 6f 74 6c 6f 61 64 65 72 20 49 6e 69 74 21     Bootloader Init!
    2400:	0d 0a 00 00 61 70 70 20 76 65 72 69 66 79 20 6f     ....app verify o
    2410:	6b 0d 0a 00 75 70 64 61 74 65 20 66 77 20 73 74     k...update fw st
    2420:	61 72 74 0d 0a 00 00 00 75 70 64 61 74 65 20 66     art.....update f
    2430:	77 20 64 6f 6e 65 0d 0a 00 00 00 00 63 6c 65 61     w done......clea
    2440:	72 20 66 6c 67 0d 0a 00 6a 75 6d 70 20 74 6f 20     r flg...jump to 
    2450:	61 70 70 0d 0a 00 00 00                             app.....

Disassembly of section .data:

10000000 <FLASH_Wipe_Configuration_RAM>:
##@@@F_:CHECK_RESTRICTION_RAM():
##@@@P_:kf32f_basic_flash.c:982
##@@@L0977_:        if (FLASH_WIPE_CFG_PAGE == WipeMode)   
##@@@L0978_:        {   
##@@@L0979_:
##@@@L0980_:            /* õĮ┐ĶāĮõ┐Īµü»Õī║µśĀÕ░ä */   
##@@@L0981_:            /*---------------- ķģŹńĮ«FLASH_ISPCON0Õ»äÕŁśÕÖ©IFENõĮŹ ----------------*/   
##@@@L0982_:            SFR_SET_BIT_ASM(FLASH_ISPCON0, FLASH_ISPCON0_IFEN_POS);   
10000000:	02 38       	CMP       R0, #2			;->0x02
10000002:	02 f9       	JLS       $+2                   ;->0x10000006
10000004:	00 04       	SJMP      $+0                   ;->0x10000004
##@@@F_:FLASH_Wipe_Configuration_RAM():
10000006:	44 11       	MOV       R4, #20			;->0x0014
10000008:	29 dd       	LSR       R5, R1, R4
##@@@F_:CHECK_RESTRICTION_RAM():
1000000a:	50 38       	CMP       R5, #0			;->0x00
1000000c:	02 f0       	JZ        $+2                   ;->0x10000010
1000000e:	00 04       	SJMP      $+0                   ;->0x1000000e
##@@@F_:FLASH_Unlock_ISP_RAM():
10000010:	1d 45       	LD        R5, [PC + #29]        ;->0x10000084  :=0x40200100
10000012:	1e 44       	LD        R4, [PC + #30]        ;->0x10000088  :=0x87654321
10000014:	ac a2       	ST.W      [R5 + #10], R4
10000016:	1e 44       	LD        R4, [PC + #30]        ;->0x1000008c  :=0x5040302
10000018:	ac a2       	ST.W      [R5 + #10], R4
##@@@F_:FLASH_Unlock_Code_RAM():
1000001a:	1e 44       	LD        R4, [PC + #30]        ;->0x10000090  :=0x789abcde
1000001c:	ec a2       	ST.W      [R5 + #11], R4
1000001e:	1e 44       	LD        R4, [PC + #30]        ;->0x10000094  :=0x16151413
10000020:	ec a2       	ST.W      [R5 + #11], R4
##@@@F_:FLASH_Unlock_User_Config_RAM():
10000022:	1e 44       	LD        R4, [PC + #30]        ;->0x10000098  :=0x879a43de
10000024:	2c a3       	ST.W      [R5 + #12], R4
10000026:	1e 44       	LD        R4, [PC + #30]        ;->0x1000009c  :=0x27262524
10000028:	2c a3       	ST.W      [R5 + #12], R4
##@@@F_:FLASH_Wipe_Configuration_RAM():
1000002a:	4a 10       	MOV       R4, #10			;->0x000A
1000002c:	02 38       	CMP       R0, #2			;->0x02
1000002e:	05 f0       	JZ        $+5                   ;->0x10000038
10000030:	e9 a1       	ST.W      [R5 + #7], R1
10000032:	4b 11       	MOV       R4, #27			;->0x001B
10000034:	01 38       	CMP       R0, #1			;->0x01
10000036:	41 f0       	JZ        $+65                  ;->0x100000b8
10000038:	13 43       	LD        R3, [PC + #19]        ;->0x10000084  :=0x40200100
1000003a:	93 98       	LD.W      R2, [R3 + #2]
##@@@F_:SFR_Config_RAM():
1000003c:	5f 11       	MOV       R5, #31			;->0x001F
1000003e:	55 68       	NOT       R5, R5
10000040:	6a d5       	ANL       R5, R2, R5
10000042:	64 d7       	ORL       R4, R4, R5
##@@@F_:FLASH_Wipe_Configuration_RAM():
10000044:	9c a0       	ST.W      [R3 + #2], R4
##@@@F_:FLASH_Executive_Cmd_RAM():
10000046:	e3 98       	LD.W      R4, [R3 + #3]
##@@@F_:SFR_Config_RAM():
10000048:	16 45       	LD        R5, [PC + #22]        ;->0x100000a0  :=0xfffe
1000004a:	6c d5       	ANL       R5, R4, R5
1000004c:	16 44       	LD        R4, [PC + #22]        ;->0x100000a4  :=0x50af0001
1000004e:	2d d7       	ORL       R5, R5, R4
##@@@F_:FLASH_Executive_Cmd_RAM():
10000050:	dd a0       	ST.W      [R3 + #3], R5
##@@@F_:FLASH_Get_Wipe_Status_RAM():
10000052:	44 10       	MOV       R4, #4			;->0x0004
10000054:	2b 9a       	LD.W      R5, [R3 + #8]
10000056:	2d d5       	ANL       R5, R5, R4
10000058:	fe f1       	JNZ       $-2                   ;->0x10000054
##@@@F_:FLASH_Zone_Config_RAM():
1000005a:	0b 45       	LD        R5, [PC + #11]        ;->0x10000084  :=0x40200100
1000005c:	2c 4e       	CLR       [R5], #4			;->0x04
##@@@F_:FLASH_Clear_NonVolatile_Memory_Unlock_Status_RAM():
1000005e:	35 82       	LD.W      R3, [R5]
##@@@F_:SFR_Config_RAM():
10000060:	10 44       	LD        R4, [PC + #16]        ;->0x100000a0  :=0xfffe
10000062:	23 d5       	ANL       R4, R3, R4
10000064:	10 43       	LD        R3, [PC + #16]        ;->0x100000a4  :=0x50af0001
10000066:	e4 d6       	ORL       R4, R4, R3
##@@@F_:FLASH_Clear_NonVolatile_Memory_Unlock_Status_RAM():
10000068:	54 85       	ST.W      [R5], R4
##@@@F_:FLASH_Clear_Flash_Unlock_Status_RAM():
1000006a:	35 82       	LD.W      R3, [R5]
##@@@F_:SFR_Config_RAM():
1000006c:	0f 44       	LD        R4, [PC + #15]        ;->0x100000a8  :=0xfffd
1000006e:	23 d5       	ANL       R4, R3, R4
10000070:	0f 43       	LD        R3, [PC + #15]        ;->0x100000ac  :=0x50af0002
10000072:	e4 d6       	ORL       R4, R4, R3
##@@@F_:FLASH_Clear_Flash_Unlock_Status_RAM():
10000074:	54 85       	ST.W      [R5], R4
##@@@F_:FLASH_Clear_Config_Unlock_Status_RAM():
10000076:	35 82       	LD.W      R3, [R5]
##@@@F_:SFR_Config_RAM():
10000078:	0e 44       	LD        R4, [PC + #14]        ;->0x100000b0  :=0xfffb
1000007a:	23 d5       	ANL       R4, R3, R4
1000007c:	0e 43       	LD        R3, [PC + #14]        ;->0x100000b4  :=0x50af0004
1000007e:	e4 d6       	ORL       R4, R4, R3
##@@@F_:FLASH_Clear_Config_Unlock_Status_RAM():
10000080:	54 85       	ST.W      [R5], R4
##@@@F_:FLASH_Wipe_Configuration_RAM():
10000082:	1d 5c       	JMP       LR
10000084:	00 01 20 40 	.long     0x40200100 ->1075839232  [!!!@2@:CMN       R0, R0	@@: LD        R0, [PC + #32]        ;->0x10000104  :=0x38204c2b
10000088:	21 43 65 87 	.long     0x87654321 ->-2023406815  [!!!@2@:LD        R3, [PC + #33]        ;->0x1000010c  :=0x39359900	@@: LDS.B     R6, [R5]
1000008c:	02 03 04 05 	.long     0x05040302 ->084148994  [!!!@4@:JMP       $+132356              ;->0x10040a94
10000090:	de bc 9a 78 	.long     0x789abcde ->2023406814  [!!!@2@:LDP.H     R3, [R6] << #3	@@: ASR       R3, #10
10000094:	13 14 15 16 	.long     0x16151413 ->370480147  [!!!@2@:MOV       R1, #67	@@: MOV       R1, #101
10000098:	de 43 9a 87 	.long     0x879a43de ->-2019933218  [!!!@2@:LD        R3, [PC + #222]       ;->0x10000410  :=0x0	@@: LDS.B     R9, [R10]
1000009c:	24 25 26 27 	.long     0x27262524 ->656811300  [!!!@2@:ST.W      [SP + #36], R5	@@: ST.W      [SP + #38], R7
100000a0:	fe ff 00 00 	.long     0x0000fffe ->000065534 
100000a4:	01 00 af 50 	.long     0x50af0001 ->1353646081  [!!!@2@:.short    0x0001	@@: JB        [R5], #15
100000a8:	fd ff 00 00 	.long     0x0000fffd ->000065533 
100000ac:	02 00 af 50 	.long     0x50af0002 ->1353646082  [!!!@2@:.short    0x0002	@@: JB        [R5], #15
100000b0:	fb ff 00 00 	.long     0x0000fffb ->000065531 
100000b4:	04 00 af 50 	.long     0x50af0004 ->1353646084 
100000b8:	2c 4c       	SET       [R5], #4			;->0x04
100000ba:	bf 07       	SJMP      $-65                  ;->0x10000038

100000bc <FLASH_Program_Configuration_RAM>:
##@@@F_:FLASH_Program_Configuration_RAM():
##@@@P_:kf32f_basic_flash.c:1034
##@@@L1029_:  * ĶŠōÕģź  flashProgramStruct: FLASHń╝¢ń©ŗõ┐Īµü»ń╗ōµ×äõĮōµīćķÆłŃĆé   
##@@@L1030_:  * Ķ┐öÕø×  µŚĀŃĆé   
##@@@L1031_:  */   
##@@@L1032_:void __attribute__((section(".indata")))   
##@@@L1033_:FLASH_Program_Configuration_RAM (FLASH_ProgramTypeDef * flashProgramStruct)   
##@@@L1034_:{   
100000bc:	26 5d       	PUSH      R6
##@@@P_:kf32f_basic_flash.c:1041
##@@@L1036_:	uint32_t tmpaddr = 0;   
##@@@L1037_:	uint32_t * tmpptr = NULL;   
##@@@L1038_:
##@@@L1039_:    /* ÕÅéµĢ░µĀĪķ¬ī */   
##@@@L1040_:
##@@@L1041_:	CHECK_RESTRICTION_RAM(CHECK_FLASH_PROGRAM_MODE(flashProgramStruct->m_Mode));   
100000be:	30 82       	LD.W      R3, [R0]
100000c0:	35 39       	CMP       R3, #21			;->0x15
100000c2:	04 f0       	JZ        $+4                   ;->0x100000ca
##@@@F_:CHECK_RESTRICTION_RAM():
##@@@P_:kf32f_basic_flash.c:52 (discriminator 2)
##@@@L0047_:  */   
##@@@L0048_:
##@@@L0049_:void __attribute__((section(".indata")))   
##@@@L0050_:CHECK_RESTRICTION_RAM(int expr)   
##@@@L0051_:{   
##@@@L0052_:	while(!expr)   
100000c4:	35 38       	CMP       R3, #5			;->0x05
100000c6:	02 f0       	JZ        $+2                   ;->0x100000ca
100000c8:	00 04       	SJMP      $+0                   ;->0x100000c8
##@@@F_:FLASH_Program_Configuration_RAM():
##@@@P_:kf32f_basic_flash.c:1042 (discriminator 4)
##@@@L1037_:	uint32_t * tmpptr = NULL;   
##@@@L1038_:
##@@@L1039_:    /* ÕÅéµĢ░µĀĪķ¬ī */   
##@@@L1040_:
##@@@L1041_:	CHECK_RESTRICTION_RAM(CHECK_FLASH_PROGRAM_MODE(flashProgramStruct->m_Mode));   
##@@@L1042_:	CHECK_RESTRICTION_RAM(CHECK_FLASH_PROGRAM_ZONE(flashProgramStruct->m_Zone));   
100000ca:	50 98       	LD.W      R2, [R0 + #1]
##@@@F_:CHECK_RESTRICTION_RAM():
##@@@P_:kf32f_basic_flash.c:52
##@@@L0047_:  */   
##@@@L0048_:
##@@@L0049_:void __attribute__((section(".indata")))   
##@@@L0050_:CHECK_RESTRICTION_RAM(int expr)   
##@@@L0051_:{   
##@@@L0052_:	while(!expr)   
100000cc:	21 38       	CMP       R2, #1			;->0x01
100000ce:	02 f9       	JLS       $+2                   ;->0x100000d2
100000d0:	00 04       	SJMP      $+0                   ;->0x100000d0
##@@@F_:FLASH_Program_Configuration_RAM():
##@@@P_:kf32f_basic_flash.c:1043
##@@@L1038_:
##@@@L1039_:    /* ÕÅéµĢ░µĀĪķ¬ī */   
##@@@L1040_:
##@@@L1041_:	CHECK_RESTRICTION_RAM(CHECK_FLASH_PROGRAM_MODE(flashProgramStruct->m_Mode));   
##@@@L1042_:	CHECK_RESTRICTION_RAM(CHECK_FLASH_PROGRAM_ZONE(flashProgramStruct->m_Zone));   
##@@@L1043_:	CHECK_RESTRICTION_RAM(CHECK_FLASH_ADDR_20BITS(flashProgramStruct->m_Addr));   
100000d2:	a0 98       	LD.W      R4, [R0 + #2]
100000d4:	14 11       	MOV       R1, #20			;->0x0014
100000d6:	6c dc       	LSR       R5, R4, R1
##@@@F_:CHECK_RESTRICTION_RAM():
##@@@P_:kf32f_basic_flash.c:52
##@@@L0047_:  */   
##@@@L0048_:
##@@@L0049_:void __attribute__((section(".indata")))   
##@@@L0050_:CHECK_RESTRICTION_RAM(int expr)   
##@@@L0051_:{   
##@@@L0052_:	while(!expr)   
100000d8:	50 38       	CMP       R5, #0			;->0x00
100000da:	02 f0       	JZ        $+2                   ;->0x100000de
100000dc:	00 04       	SJMP      $+0                   ;->0x100000dc
##@@@F_:FLASH_Program_Configuration_RAM():
##@@@P_:kf32f_basic_flash.c:1044
##@@@L1039_:    /* ÕÅéµĢ░µĀĪķ¬ī */   
##@@@L1040_:
##@@@L1041_:	CHECK_RESTRICTION_RAM(CHECK_FLASH_PROGRAM_MODE(flashProgramStruct->m_Mode));   
##@@@L1042_:	CHECK_RESTRICTION_RAM(CHECK_FLASH_PROGRAM_ZONE(flashProgramStruct->m_Zone));   
##@@@L1043_:	CHECK_RESTRICTION_RAM(CHECK_FLASH_ADDR_20BITS(flashProgramStruct->m_Addr));   
##@@@L1044_:	CHECK_RESTRICTION_RAM(CHECK_FLASH_WRITE_SIZE(flashProgramStruct->m_WriteSize));   
100000de:	c8 98       	LD.W      R1, [R0 + #3]
100000e0:	66 10       	MOV       R6, #6			;->0x0006
100000e2:	a9 dd       	LSR       R5, R1, R6
##@@@F_:CHECK_RESTRICTION_RAM():
##@@@P_:kf32f_basic_flash.c:52
##@@@L0047_:  */   
##@@@L0048_:
##@@@L0049_:void __attribute__((section(".indata")))   
##@@@L0050_:CHECK_RESTRICTION_RAM(int expr)   
##@@@L0051_:{   
##@@@L0052_:	while(!expr)   
100000e4:	50 38       	CMP       R5, #0			;->0x00
100000e6:	02 f0       	JZ        $+2                   ;->0x100000ea
100000e8:	00 04       	SJMP      $+0                   ;->0x100000e8
##@@@F_:FLASH_Unlock_ISP_RAM():
##@@@P_:kf32f_basic_flash.c:124
##@@@L0119_:  */   
##@@@L0120_:void  __attribute__((section(".indata")))   
##@@@L0121_:FLASH_Unlock_ISP_RAM   (void)   
##@@@L0122_:{   
##@@@L0123_:    /* ÕåÖÕģźKEY1 ÕÆī KEY2 */   
##@@@L0124_:    FLASH_NVMUNLOCK = FLASH_NVMUNLOCK_KEY1;   
100000ea:	28 45       	LD        R5, [PC + #40]        ;->0x10000188  :=0x40200100
100000ec:	28 46       	LD        R6, [PC + #40]        ;->0x1000018c  :=0x87654321
100000ee:	ae a2       	ST.W      [R5 + #10], R6
##@@@P_:kf32f_basic_flash.c:125
##@@@L0125_:    FLASH_NVMUNLOCK = FLASH_NVMUNLOCK_KEY2;   
100000f0:	28 46       	LD        R6, [PC + #40]        ;->0x10000190  :=0x5040302
100000f2:	ae a2       	ST.W      [R5 + #10], R6
##@@@F_:FLASH_Unlock_User_Config_RAM():
##@@@P_:kf32f_basic_flash.c:278
##@@@L0273_:  */   
##@@@L0274_:void  __attribute__((section(".indata")))   
##@@@L0275_:FLASH_Unlock_User_Config_RAM (void)   
##@@@L0276_:{   
##@@@L0277_:    /* ÕåÖÕģźKEY1 ÕÆī KEY2 */   
##@@@L0278_:    FLASH_CFGUNLOCK = FLASH_CFGUNLOCK_KEY1;   
100000f4:	28 46       	LD        R6, [PC + #40]        ;->0x10000194  :=0x879a43de
100000f6:	2e a3       	ST.W      [R5 + #12], R6
##@@@P_:kf32f_basic_flash.c:279
##@@@L0279_:    FLASH_CFGUNLOCK = FLASH_CFGUNLOCK_KEY2;   
100000f8:	28 46       	LD        R6, [PC + #40]        ;->0x10000198  :=0x27262524
100000fa:	2e a3       	ST.W      [R5 + #12], R6
##@@@F_:FLASH_Unlock_Code_RAM():
##@@@P_:kf32f_basic_flash.c:201
##@@@L0196_:  */   
##@@@L0197_:void  __attribute__((section(".indata")))   
##@@@L0198_:FLASH_Unlock_Code_RAM (void)   
##@@@L0199_:{   
##@@@L0200_:    /* ÕåÖÕģźKEY1 ÕÆī KEY2 */   
##@@@L0201_:    FLASH_PROUNLOCK = FLASH_PROUNLOCK_KEY1;   
100000fc:	28 46       	LD        R6, [PC + #40]        ;->0x1000019c  :=0x789abcde
100000fe:	ee a2       	ST.W      [R5 + #11], R6
##@@@P_:kf32f_basic_flash.c:202
##@@@L0202_:    FLASH_PROUNLOCK = FLASH_PROUNLOCK_KEY2;   
10000100:	28 46       	LD        R6, [PC + #40]        ;->0x100001a0  :=0x16151413
10000102:	ee a2       	ST.W      [R5 + #11], R6
##@@@F_:FLASH_Program_Configuration_RAM():
##@@@P_:kf32f_basic_flash.c:1059
##@@@L1054_:
##@@@L1055_:
##@@@L1056_:
##@@@L1057_:
##@@@L1058_:    /*---------------- ķģŹńĮ«FLASH_ISPCON0Õ»äÕŁśÕÖ©DWENõĮŹ ----------------*/   
##@@@L1059_:    __asm volatile("SET [%0], #%1"::"r"(&(FLASH_ISPCON0)),"i"(FLASH_ISPCON0_DWEN_POS));   
10000104:	2b 4c       	SET       [R5], #3			;->0x03
##@@@P_:kf32f_basic_flash.c:1061
##@@@L1060_:
##@@@L1061_:    if (flashProgramStruct->m_Zone != FLASH_PROGRAM_CODE)   
10000106:	20 38       	CMP       R2, #0			;->0x00
10000108:	02 f0       	JZ        $+2                   ;->0x1000010c
##@@@P_:kf32f_basic_flash.c:1064
##@@@L1062_:    {   
##@@@L1063_:        /*---------------- ķģŹńĮ«FLASH_ISPCON0Õ»äÕŁśÕÖ©IFENõĮŹ ----------------*/   
##@@@L1064_:        __asm volatile("SET [%0], #%1"::"r"(&(FLASH_ISPCON0)),"i"(FLASH_ISPCON0_IFEN_POS));   
1000010a:	2c 4c       	SET       [R5], #4			;->0x04
##@@@P_:kf32f_basic_flash.c:1073
##@@@L1068_:    {   
##@@@L1069_:    }   
##@@@L1070_:
##@@@L1071_:    /* õĮ┐ńö©õĖ┤µŚČÕÅśķćÅĶ┐øĶĪīĶć¬Õó×’╝īķü┐ÕģŹõ┐«µö╣ń╗ōµ×äõĮōÕåģÕ«╣ */   
##@@@L1072_:	  tmpaddr = flashProgramStruct->m_Addr;   
##@@@L1073_:	  tmpptr =  flashProgramStruct->m_Data;   
1000010c:	00 99       	LD.W      R0, [R0 + #4]
##@@@P_:kf32f_basic_flash.c:1076
##@@@L1074_:
##@@@L1075_:    /* ķģŹńĮ«ń╝¢ń©ŗµ©ĪÕ╝Å */   
##@@@L1076_:    if (flashProgramStruct->m_Mode != FLASH_PROGRAM_WORD)   
1000010e:	35 39       	CMP       R3, #21			;->0x15
10000110:	58 f0       	JZ        $+88                  ;->0x100001c0
##@@@P_:kf32f_basic_flash.c:1082
##@@@L1077_:    {   
##@@@L1078_:        /* ÕŹŖķĪĄń╝¢ń©ŗ */   
##@@@L1079_:        /*----------- ķģŹńĮ«FLASH_ISPCMDÕ»äÕŁśÕÖ©CMD/WSIZEõĮŹ -----------*/   
##@@@L1080_:        tmpreg = flashProgramStruct->m_Mode \   
##@@@L1081_:               | (flashProgramStruct->m_WriteSize << FLASH_ISPCMD_WSIZE0_POS);   
##@@@L1082_:        FLASH_ISPCMD = SFR_Config_RAM(FLASH_ISPCMD,   
10000112:	1e 42       	LD        R2, [PC + #30]        ;->0x10000188  :=0x40200100
10000114:	b2 98       	LD.W      R6, [R2 + #2]
##@@@P_:kf32f_basic_flash.c:1081
##@@@L1076_:    if (flashProgramStruct->m_Mode != FLASH_PROGRAM_WORD)   
##@@@L1077_:    {   
##@@@L1078_:        /* ÕŹŖķĪĄń╝¢ń©ŗ */   
##@@@L1079_:        /*----------- ķģŹńĮ«FLASH_ISPCMDÕ»äÕŁśÕÖ©CMD/WSIZEõĮŹ -----------*/   
##@@@L1080_:        tmpreg = flashProgramStruct->m_Mode \   
##@@@L1081_:               | (flashProgramStruct->m_WriteSize << FLASH_ISPCMD_WSIZE0_POS);   
10000116:	0d 7a       	LSL       R1, #5			;->0x05
##@@@F_:SFR_Config_RAM():
##@@@P_:kf32f_basic_flash.c:60
##@@@L0055_:
##@@@L0056_:/* ÕåÖńē╣µ«ŖÕŖ¤ĶāĮÕ»äÕŁśÕÖ©RAM */   
##@@@L0057_:static inline uint32_t   __attribute__((section(".indata")))   
##@@@L0058_:SFR_Config_RAM (uint32_t SfrMem, uint32_t SfrMask, uint32_t WriteVal)   
##@@@L0059_:{   
##@@@L0060_:    return ((SfrMem & SfrMask) | (WriteVal));   
10000118:	23 45       	LD        R5, [PC + #35]        ;->0x100001a4  :=0xfffff800
1000011a:	6e d5       	ANL       R5, R6, R5
##@@@F_:FLASH_Program_Configuration_RAM():
##@@@P_:kf32f_basic_flash.c:1080
##@@@L1075_:    /* ķģŹńĮ«ń╝¢ń©ŗµ©ĪÕ╝Å */   
##@@@L1076_:    if (flashProgramStruct->m_Mode != FLASH_PROGRAM_WORD)   
##@@@L1077_:    {   
##@@@L1078_:        /* ÕŹŖķĪĄń╝¢ń©ŗ */   
##@@@L1079_:        /*----------- ķģŹńĮ«FLASH_ISPCMDÕ»äÕŁśÕÖ©CMD/WSIZEõĮŹ -----------*/   
##@@@L1080_:        tmpreg = flashProgramStruct->m_Mode \   
1000011c:	49 d7       	ORL       R1, R1, R5
##@@@F_:SFR_Config_RAM():
##@@@P_:kf32f_basic_flash.c:60
##@@@L0055_:
##@@@L0056_:/* ÕåÖńē╣µ«ŖÕŖ¤ĶāĮÕ»äÕŁśÕÖ©RAM */   
##@@@L0057_:static inline uint32_t   __attribute__((section(".indata")))   
##@@@L0058_:SFR_Config_RAM (uint32_t SfrMem, uint32_t SfrMask, uint32_t WriteVal)   
##@@@L0059_:{   
##@@@L0060_:    return ((SfrMem & SfrMask) | (WriteVal));   
1000011e:	d9 d6       	ORL       R3, R1, R3
##@@@F_:FLASH_Program_Configuration_RAM():
##@@@P_:kf32f_basic_flash.c:1082
##@@@L1077_:    {   
##@@@L1078_:        /* ÕŹŖķĪĄń╝¢ń©ŗ */   
##@@@L1079_:        /*----------- ķģŹńĮ«FLASH_ISPCMDÕ»äÕŁśÕÖ©CMD/WSIZEõĮŹ -----------*/   
##@@@L1080_:        tmpreg = flashProgramStruct->m_Mode \   
##@@@L1081_:               | (flashProgramStruct->m_WriteSize << FLASH_ISPCMD_WSIZE0_POS);   
##@@@L1082_:        FLASH_ISPCMD = SFR_Config_RAM(FLASH_ISPCMD,   
10000120:	93 a0       	ST.W      [R2 + #2], R3
##@@@F_:FLASH_Executive_Cmd_RAM():
##@@@P_:kf32f_basic_flash.c:518
##@@@L0513_:{   
##@@@L0514_:    uint32_t tmpreg = 0;   
##@@@L0515_:
##@@@L0516_:    /*---------------- ķģŹńĮ«FLASH_ISPTRGÕ»äÕŁśÕÖ©ISPGOõĮŹ ----------------*/   
##@@@L0517_:    tmpreg = FLASH_ISPTRG_HIGH | FLASH_ISPTRG_ISPGO;   
##@@@L0518_:    FLASH_ISPTRG = SFR_Config_RAM (FLASH_ISPTRG,   
10000122:	da 98       	LD.W      R3, [R2 + #3]
##@@@F_:SFR_Config_RAM():
##@@@P_:kf32f_basic_flash.c:60
##@@@L0055_:
##@@@L0056_:/* ÕåÖńē╣µ«ŖÕŖ¤ĶāĮÕ»äÕŁśÕÖ©RAM */   
##@@@L0057_:static inline uint32_t   __attribute__((section(".indata")))   
##@@@L0058_:SFR_Config_RAM (uint32_t SfrMem, uint32_t SfrMask, uint32_t WriteVal)   
##@@@L0059_:{   
##@@@L0060_:    return ((SfrMem & SfrMask) | (WriteVal));   
10000124:	21 45       	LD        R5, [PC + #33]        ;->0x100001a8  :=0xfffe
10000126:	5b d5       	ANL       R3, R3, R5
10000128:	21 45       	LD        R5, [PC + #33]        ;->0x100001ac  :=0x50af0001
1000012a:	6b d7       	ORL       R5, R3, R5
##@@@F_:FLASH_Executive_Cmd_RAM():
##@@@P_:kf32f_basic_flash.c:518
##@@@L0513_:{   
##@@@L0514_:    uint32_t tmpreg = 0;   
##@@@L0515_:
##@@@L0516_:    /*---------------- ķģŹńĮ«FLASH_ISPTRGÕ»äÕŁśÕÖ©ISPGOõĮŹ ----------------*/   
##@@@L0517_:    tmpreg = FLASH_ISPTRG_HIGH | FLASH_ISPTRG_ISPGO;   
##@@@L0518_:    FLASH_ISPTRG = SFR_Config_RAM (FLASH_ISPTRG,   
1000012c:	d5 a0       	ST.W      [R2 + #3], R5
##@@@P_:kf32f_basic_flash.c:1033
##@@@L1028_:  * µÅÅĶ┐░  FLASHń╝¢ń©ŗµōŹõĮ£ķģŹńĮ«’╝īńö©µłĘķ£ĆĶ”üńĪ«Ķ«żFLASHµō”ÕåÖń®║ķŚ▓ńŖČµĆüŃĆé   RAM   
##@@@L1029_:  * ĶŠōÕģź  flashProgramStruct: FLASHń╝¢ń©ŗõ┐Īµü»ń╗ōµ×äõĮōµīćķÆłŃĆé   
##@@@L1030_:  * Ķ┐öÕø×  µŚĀŃĆé   
##@@@L1031_:  */   
##@@@L1032_:void __attribute__((section(".indata")))   
##@@@L1033_:FLASH_Program_Configuration_RAM (FLASH_ProgramTypeDef * flashProgramStruct)   
1000012e:	11 10       	MOV       R1, #1			;->0x0001
10000130:	89 7a       	LSL       R1, #9			;->0x09
10000132:	4c c2       	ADD       R1, R4, R1
10000134:	00 c7       	SUB       R0, R0, R4
##@@@F_:FLASH_Get_Program_Status_RAM():
##@@@P_:kf32f_basic_flash.c:635
##@@@L0630_:  * Ķ┐öÕø×  ń╝¢ń©ŗńŖČµĆü’╝ī1’╝ÜFLASHµŁŻÕżäõ║Äń╝¢ń©ŗńŖČµĆü’╝ī0’╝ÜFLASHõĖŹÕ£©ń╝¢ń©ŗńŖČµĆüŃĆé   
##@@@L0631_:  */   
##@@@L0632_:FlagStatus  __attribute__((section(".indata")))   
##@@@L0633_:FLASH_Get_Program_Status_RAM (void)   
##@@@L0634_:{   
##@@@L0635_:    if (FLASH_STATE & FLASH_STATE_TBUSY)   
10000136:	38 10       	MOV       R3, #8			;->0x0008
##@@@F_:FLASH_Program_Configuration_RAM():
##@@@P_:kf32f_basic_flash.c:1089
##@@@L1084_:                            tmpreg);   
##@@@L1085_:        FLASH_Executive_Cmd_RAM();   
##@@@L1086_:		unsigned char j;   
##@@@L1087_:		for(j=0;j<=0x3f;j++)//0x3fµ£ĆÕż¦ÕĆ╝   
##@@@L1088_:		{   
##@@@L1089_:			__asm volatile("ST.w [%0], %1"::"r"(tmpaddr),"r"(*tmpptr));   
10000138:	28 e9       	LD.W      R5, [R0 + R4]
1000013a:	45 85       	ST.W      [R4], R5
##@@@P_:kf32f_basic_flash.c:1090
##@@@L1090_:			tmpaddr=tmpaddr+4;   
1000013c:	2c c1       	ADD       R5, R4, #4
##@@@P_:kf32f_basic_flash.c:1033
##@@@L1028_:  * µÅÅĶ┐░  FLASHń╝¢ń©ŗµōŹõĮ£ķģŹńĮ«’╝īńö©µłĘķ£ĆĶ”üńĪ«Ķ«żFLASHµō”ÕåÖń®║ķŚ▓ńŖČµĆüŃĆé   RAM   
##@@@L1029_:  * ĶŠōÕģź  flashProgramStruct: FLASHń╝¢ń©ŗõ┐Īµü»ń╗ōµ×äõĮōµīćķÆłŃĆé   
##@@@L1030_:  * Ķ┐öÕø×  µŚĀŃĆé   
##@@@L1031_:  */   
##@@@L1032_:void __attribute__((section(".indata")))   
##@@@L1033_:FLASH_Program_Configuration_RAM (FLASH_ProgramTypeDef * flashProgramStruct)   
1000013e:	30 c3       	ADD       R6, R0, R4
##@@@P_:kf32f_basic_flash.c:1092
##@@@L1087_:		for(j=0;j<=0x3f;j++)//0x3fµ£ĆÕż¦ÕĆ╝   
##@@@L1088_:		{   
##@@@L1089_:			__asm volatile("ST.w [%0], %1"::"r"(tmpaddr),"r"(*tmpptr));   
##@@@L1090_:			tmpaddr=tmpaddr+4;   
##@@@L1091_:			tmpptr++;   
##@@@L1092_:			__asm volatile("ST.w [%0], %1"::"r"(tmpaddr),"r"(*tmpptr));   
10000140:	76 98       	LD.W      R6, [R6 + #1]
10000142:	56 85       	ST.W      [R5], R6
##@@@P_:kf32f_basic_flash.c:1093
##@@@L1093_:			tmpaddr=tmpaddr+4;   
10000144:	48 28       	ADD       R4, #8			;->0x08
##@@@F_:FLASH_Get_Program_Status_RAM():
##@@@P_:kf32f_basic_flash.c:635 (discriminator 1)
##@@@L0630_:  * Ķ┐öÕø×  ń╝¢ń©ŗńŖČµĆü’╝ī1’╝ÜFLASHµŁŻÕżäõ║Äń╝¢ń©ŗńŖČµĆü’╝ī0’╝ÜFLASHõĖŹÕ£©ń╝¢ń©ŗńŖČµĆüŃĆé   
##@@@L0631_:  */   
##@@@L0632_:FlagStatus  __attribute__((section(".indata")))   
##@@@L0633_:FLASH_Get_Program_Status_RAM (void)   
##@@@L0634_:{   
##@@@L0635_:    if (FLASH_STATE & FLASH_STATE_TBUSY)   
10000146:	2a 9a       	LD.W      R5, [R2 + #8]
10000148:	ed d4       	ANL       R5, R5, R3
1000014a:	fe f1       	JNZ       $-2                   ;->0x10000146
##@@@F_:FLASH_Program_Configuration_RAM():
##@@@P_:kf32f_basic_flash.c:1087
##@@@L1082_:        FLASH_ISPCMD = SFR_Config_RAM(FLASH_ISPCMD,   
##@@@L1083_:                            ~(FLASH_ISPCMD_CMD | FLASH_ISPCMD_WSIZE),   
##@@@L1084_:                            tmpreg);   
##@@@L1085_:        FLASH_Executive_Cmd_RAM();   
##@@@L1086_:		unsigned char j;   
##@@@L1087_:		for(j=0;j<=0x3f;j++)//0x3fµ£ĆÕż¦ÕĆ╝   
1000014c:	41 70       	CMP       R4, R1
1000014e:	f5 f1       	JNZ       $-11                  ;->0x10000138
##@@@F_:FLASH_Get_Wipe_Status_RAM():
##@@@P_:kf32f_basic_flash.c:676 (discriminator 1)
##@@@L0671_:  * Ķ┐öÕø×  ń╝¢ń©ŗńŖČµĆü’╝ī1’╝ÜISPµŁŻÕ£©µē¦ĶĪīµō”ķÖżµł¢ĶĆģÕåÖÕæĮõ╗ż’╝ī0’╝ÜISPÕżäõ║Äń®║ķŚ▓ńŖČµĆüŃĆé   
##@@@L0672_:  */   
##@@@L0673_:FlagStatus   __attribute__((section(".indata")))   
##@@@L0674_:FLASH_Get_Wipe_Status_RAM (void)   
##@@@L0675_:{   
##@@@L0676_:    if (FLASH_STATE & FLASH_STATE_TBIT)   
10000150:	0e 43       	LD        R3, [PC + #14]        ;->0x10000188  :=0x40200100
10000152:	44 10       	MOV       R4, #4			;->0x0004
10000154:	2b 9a       	LD.W      R5, [R3 + #8]
10000156:	2d d5       	ANL       R5, R5, R4
10000158:	fe f1       	JNZ       $-2                   ;->0x10000154
##@@@F_:FLASH_Zone_Config_RAM():
##@@@P_:kf32f_basic_flash.c:340
##@@@L0335_:        __asm volatile("SET [%0], #%1"::"r"(&(FLASH_ISPCON0)),"i"(FLASH_ISPCON0_IFEN_POS));   
##@@@L0336_:    }   
##@@@L0337_:    else   
##@@@L0338_:    {   
##@@@L0339_:        /* NVMµōŹõĮ£ÕŁśÕé©ÕÖ©ķĆēµŗ®FLASHń©ŗÕ║ÅÕī║ */   
##@@@L0340_:        __asm volatile("CLR [%0], #%1"::"r"(&(FLASH_ISPCON0)),"i"(FLASH_ISPCON0_IFEN_POS));   
1000015a:	0c 45       	LD        R5, [PC + #12]        ;->0x10000188  :=0x40200100
1000015c:	2c 4e       	CLR       [R5], #4			;->0x04
##@@@F_:FLASH_Data_Write_Enable_RAM():
##@@@P_:kf32f_basic_flash.c:314
##@@@L0309_:        __asm volatile("SET [%0], #%1"::"r"(&(FLASH_ISPCON0)),"i"(FLASH_ISPCON0_DWEN_POS));   
##@@@L0310_:    }   
##@@@L0311_:    else   
##@@@L0312_:    {   
##@@@L0313_:        /* FLASHÕåÖń╝ōÕŁśń”üµŁóĶó½ÕåÖÕģźµĢ░µŹ« */   
##@@@L0314_:        __asm volatile("CLR [%0], #%1"::"r"(&(FLASH_ISPCON0)),"i"(FLASH_ISPCON0_DWEN_POS));   
1000015e:	2b 4e       	CLR       [R5], #3			;->0x03
##@@@F_:FLASH_Clear_NonVolatile_Memory_Unlock_Status_RAM():
##@@@P_:kf32f_basic_flash.c:95
##@@@L0090_:{   
##@@@L0091_:    uint32_t tmpreg = 0;   
##@@@L0092_:
##@@@L0093_:    /*---------------- ķģŹńĮ«FLASH_ISPCON0Õ»äÕŁśÕÖ©NVMLOCKõĮŹ ----------------*/   
##@@@L0094_:    tmpreg = FLASH_ISPCON0_HIGH | FLASH_ISPCON0_NVMLOCK;   
##@@@L0095_:    FLASH_ISPCON0 = SFR_Config_RAM (FLASH_ISPCON0,   
10000160:	35 82       	LD.W      R3, [R5]
##@@@F_:SFR_Config_RAM():
##@@@P_:kf32f_basic_flash.c:60
##@@@L0055_:
##@@@L0056_:/* ÕåÖńē╣µ«ŖÕŖ¤ĶāĮÕ»äÕŁśÕÖ©RAM */   
##@@@L0057_:static inline uint32_t   __attribute__((section(".indata")))   
##@@@L0058_:SFR_Config_RAM (uint32_t SfrMem, uint32_t SfrMask, uint32_t WriteVal)   
##@@@L0059_:{   
##@@@L0060_:    return ((SfrMem & SfrMask) | (WriteVal));   
10000162:	12 44       	LD        R4, [PC + #18]        ;->0x100001a8  :=0xfffe
10000164:	1b d5       	ANL       R3, R3, R4
10000166:	12 44       	LD        R4, [PC + #18]        ;->0x100001ac  :=0x50af0001
10000168:	23 d7       	ORL       R4, R3, R4
##@@@F_:FLASH_Clear_NonVolatile_Memory_Unlock_Status_RAM():
##@@@P_:kf32f_basic_flash.c:95
##@@@L0090_:{   
##@@@L0091_:    uint32_t tmpreg = 0;   
##@@@L0092_:
##@@@L0093_:    /*---------------- ķģŹńĮ«FLASH_ISPCON0Õ»äÕŁśÕÖ©NVMLOCKõĮŹ ----------------*/   
##@@@L0094_:    tmpreg = FLASH_ISPCON0_HIGH | FLASH_ISPCON0_NVMLOCK;   
##@@@L0095_:    FLASH_ISPCON0 = SFR_Config_RAM (FLASH_ISPCON0,   
1000016a:	54 85       	ST.W      [R5], R4
##@@@F_:FLASH_Clear_Flash_Unlock_Status_RAM():
##@@@P_:kf32f_basic_flash.c:172
##@@@L0167_:{   
##@@@L0168_:    uint32_t tmpreg = 0;   
##@@@L0169_:
##@@@L0170_:    /*---------------- ķģŹńĮ«FLASH_ISPCON0Õ»äÕŁśÕÖ©FLASHLOCKõĮŹ ----------------*/   
##@@@L0171_:    tmpreg = FLASH_ISPCON0_HIGH | FLASH_ISPCON0_FLASHLOCK;   
##@@@L0172_:    FLASH_ISPCON0 = SFR_Config_RAM (FLASH_ISPCON0,   
1000016c:	35 82       	LD.W      R3, [R5]
##@@@F_:SFR_Config_RAM():
##@@@P_:kf32f_basic_flash.c:60
##@@@L0055_:
##@@@L0056_:/* ÕåÖńē╣µ«ŖÕŖ¤ĶāĮÕ»äÕŁśÕÖ©RAM */   
##@@@L0057_:static inline uint32_t   __attribute__((section(".indata")))   
##@@@L0058_:SFR_Config_RAM (uint32_t SfrMem, uint32_t SfrMask, uint32_t WriteVal)   
##@@@L0059_:{   
##@@@L0060_:    return ((SfrMem & SfrMask) | (WriteVal));   
1000016e:	11 44       	LD        R4, [PC + #17]        ;->0x100001b0  :=0xfffd
10000170:	1b d5       	ANL       R3, R3, R4
10000172:	11 44       	LD        R4, [PC + #17]        ;->0x100001b4  :=0x50af0002
10000174:	23 d7       	ORL       R4, R3, R4
##@@@F_:FLASH_Clear_Flash_Unlock_Status_RAM():
##@@@P_:kf32f_basic_flash.c:172
##@@@L0167_:{   
##@@@L0168_:    uint32_t tmpreg = 0;   
##@@@L0169_:
##@@@L0170_:    /*---------------- ķģŹńĮ«FLASH_ISPCON0Õ»äÕŁśÕÖ©FLASHLOCKõĮŹ ----------------*/   
##@@@L0171_:    tmpreg = FLASH_ISPCON0_HIGH | FLASH_ISPCON0_FLASHLOCK;   
##@@@L0172_:    FLASH_ISPCON0 = SFR_Config_RAM (FLASH_ISPCON0,   
10000176:	54 85       	ST.W      [R5], R4
##@@@F_:FLASH_Clear_Config_Unlock_Status_RAM():
##@@@P_:kf32f_basic_flash.c:249
##@@@L0244_:{   
##@@@L0245_:    uint32_t tmpreg = 0;   
##@@@L0246_:
##@@@L0247_:    /*---------------- ķģŹńĮ«FLASH_ISPCON0Õ»äÕŁśÕÖ©CFGLOCKõĮŹ ----------------*/   
##@@@L0248_:    tmpreg = FLASH_ISPCON0_HIGH | FLASH_ISPCON0_CFGLOCK;   
##@@@L0249_:    FLASH_ISPCON0 = SFR_Config_RAM (FLASH_ISPCON0,   
10000178:	35 82       	LD.W      R3, [R5]
##@@@F_:SFR_Config_RAM():
##@@@P_:kf32f_basic_flash.c:60
##@@@L0055_:
##@@@L0056_:/* ÕåÖńē╣µ«ŖÕŖ¤ĶāĮÕ»äÕŁśÕÖ©RAM */   
##@@@L0057_:static inline uint32_t   __attribute__((section(".indata")))   
##@@@L0058_:SFR_Config_RAM (uint32_t SfrMem, uint32_t SfrMask, uint32_t WriteVal)   
##@@@L0059_:{   
##@@@L0060_:    return ((SfrMem & SfrMask) | (WriteVal));   
1000017a:	10 44       	LD        R4, [PC + #16]        ;->0x100001b8  :=0xfffb
1000017c:	1b d5       	ANL       R3, R3, R4
1000017e:	10 44       	LD        R4, [PC + #16]        ;->0x100001bc  :=0x50af0004
10000180:	23 d7       	ORL       R4, R3, R4
##@@@F_:FLASH_Clear_Config_Unlock_Status_RAM():
##@@@P_:kf32f_basic_flash.c:249
##@@@L0244_:{   
##@@@L0245_:    uint32_t tmpreg = 0;   
##@@@L0246_:
##@@@L0247_:    /*---------------- ķģŹńĮ«FLASH_ISPCON0Õ»äÕŁśÕÖ©CFGLOCKõĮŹ ----------------*/   
##@@@L0248_:    tmpreg = FLASH_ISPCON0_HIGH | FLASH_ISPCON0_CFGLOCK;   
##@@@L0249_:    FLASH_ISPCON0 = SFR_Config_RAM (FLASH_ISPCON0,   
10000182:	54 85       	ST.W      [R5], R4
##@@@F_:FLASH_Program_Configuration_RAM():
##@@@P_:kf32f_basic_flash.c:1132
##@@@L1127_:    //õĖŖķöü   
##@@@L1128_:	FLASH_Clear_NonVolatile_Memory_Unlock_Status_RAM ();//µĖģķøČFLASHń╝¢ń©ŗń╗äõ╗ČĶ¦ŻķöüńŖČµĆüõĮŹŃĆé   
##@@@L1129_:	FLASH_Clear_Flash_Unlock_Status_RAM ();//µĖģķøČFLASHĶ¦ŻķöüńŖČµĆüõĮŹŃĆé   
##@@@L1130_:	FLASH_Clear_Config_Unlock_Status_RAM ();//µĖģķøČFLASHķģŹńĮ«Õī║Ķ¦ŻķöüńŖČµĆüõĮŹŃĆé   
##@@@L1131_:
##@@@L1132_:}   
10000184:	06 5d       	POP       R6
10000186:	1d 5c       	JMP       LR
10000188:	00 01 20 40 	.long     0x40200100 ->1075839232  [!!!@2@:CMN       R0, R0	@@: LD        R0, [PC + #32]        ;->0x10000208  :=0x0
1000018c:	21 43 65 87 	.long     0x87654321 ->-2023406815  [!!!@2@:LD        R3, [PC + #33]        ;->0x10000210  :=0x0	@@: LDS.B     R6, [R5]
10000190:	02 03 04 05 	.long     0x05040302 ->084148994  [!!!@4@:JMP       $+132356              ;->0x10040b98
10000194:	de 43 9a 87 	.long     0x879a43de ->-2019933218  [!!!@2@:LD        R3, [PC + #222]       ;->0x1000050c  :=0x0	@@: LDS.B     R9, [R10]
10000198:	24 25 26 27 	.long     0x27262524 ->656811300  [!!!@2@:ST.W      [SP + #36], R5	@@: ST.W      [SP + #38], R7
1000019c:	de bc 9a 78 	.long     0x789abcde ->2023406814  [!!!@2@:LDP.H     R3, [R6] << #3	@@: ASR       R3, #10
100001a0:	13 14 15 16 	.long     0x16151413 ->370480147  [!!!@2@:MOV       R1, #67	@@: MOV       R1, #101
100001a4:	00 f8 ff ff 	.long     0xfffff800 ->-00002048 
100001a8:	fe ff 00 00 	.long     0x0000fffe ->000065534 
100001ac:	01 00 af 50 	.long     0x50af0001 ->1353646081  [!!!@2@:.short    0x0001	@@: JB        [R5], #15
100001b0:	fd ff 00 00 	.long     0x0000fffd ->000065533 
100001b4:	02 00 af 50 	.long     0x50af0002 ->1353646082  [!!!@2@:.short    0x0002	@@: JB        [R5], #15
100001b8:	fb ff 00 00 	.long     0x0000fffb ->000065531 
100001bc:	04 00 af 50 	.long     0x50af0004 ->1353646084 
##@@@P_:kf32f_basic_flash.c:1102
##@@@L1097_:    }   
##@@@L1098_:    else   
##@@@L1099_:    {   
##@@@L1100_:        /* ÕŹĢÕŁŚń╝¢ń©ŗ */   
##@@@L1101_:        /*------------- ķģŹńĮ«FLASH_ISPCMDÕ»äÕŁśÕÖ©CMDõĮŹ --------------*/   
##@@@L1102_:        FLASH_ISPCMD = SFR_Config_RAM (FLASH_ISPCMD,   
100001c0:	0a 45       	LD        R5, [PC + #10]        ;->0x100001e8  :=0x40200100
100001c2:	8d 98       	LD.W      R1, [R5 + #2]
##@@@F_:SFR_Config_RAM():
##@@@P_:kf32f_basic_flash.c:60
##@@@L0055_:
##@@@L0056_:/* ÕåÖńē╣µ«ŖÕŖ¤ĶāĮÕ»äÕŁśÕÖ©RAM */   
##@@@L0057_:static inline uint32_t   __attribute__((section(".indata")))   
##@@@L0058_:SFR_Config_RAM (uint32_t SfrMem, uint32_t SfrMask, uint32_t WriteVal)   
##@@@L0059_:{   
##@@@L0060_:    return ((SfrMem & SfrMask) | (WriteVal));   
100001c4:	2f 11       	MOV       R2, #31			;->0x001F
100001c6:	22 68       	NOT       R2, R2
100001c8:	91 d4       	ANL       R2, R1, R2
100001ca:	da d6       	ORL       R3, R2, R3
##@@@F_:FLASH_Program_Configuration_RAM():
##@@@P_:kf32f_basic_flash.c:1102
##@@@L1097_:    }   
##@@@L1098_:    else   
##@@@L1099_:    {   
##@@@L1100_:        /* ÕŹĢÕŁŚń╝¢ń©ŗ */   
##@@@L1101_:        /*------------- ķģŹńĮ«FLASH_ISPCMDÕ»äÕŁśÕÖ©CMDõĮŹ --------------*/   
##@@@L1102_:        FLASH_ISPCMD = SFR_Config_RAM (FLASH_ISPCMD,   
100001cc:	ab a0       	ST.W      [R5 + #2], R3
##@@@P_:kf32f_basic_flash.c:1108
##@@@L1103_:                            ~FLASH_ISPCMD_CMD,   
##@@@L1104_:                            flashProgramStruct->m_Mode);   
##@@@L1105_:        /* ÕŹĢÕŁŚń╝¢ń©ŗ’╝īÕģłÕŖĀĶĮĮµĢ░µŹ«’╝īÕÉÄĶ¦”ÕÅæÕæĮõ╗ż */   
##@@@L1106_:        /* ÕŖĀĶĮĮ64õĮŹµĢ░µŹ« */   
##@@@L1107_:
##@@@L1108_:    	__asm volatile("ST.w [%0], %1"::"r"(tmpaddr),"r"(*tmpptr));   
100001ce:	50 82       	LD.W      R5, [R0]
100001d0:	45 85       	ST.W      [R4], R5
##@@@P_:kf32f_basic_flash.c:1109
##@@@L1109_:    	tmpaddr=tmpaddr+4;   
100001d2:	24 c1       	ADD       R4, R4, #4
##@@@P_:kf32f_basic_flash.c:1111
##@@@L1110_:    	tmpptr++;   
##@@@L1111_:    	__asm volatile("ST.w [%0], %1"::"r"(tmpaddr),"r"(*tmpptr));   
100001d4:	68 98       	LD.W      R5, [R0 + #1]
100001d6:	45 85       	ST.W      [R4], R5
##@@@F_:FLASH_Executive_Cmd_RAM():
##@@@P_:kf32f_basic_flash.c:518
##@@@L0513_:{   
##@@@L0514_:    uint32_t tmpreg = 0;   
##@@@L0515_:
##@@@L0516_:    /*---------------- ķģŹńĮ«FLASH_ISPTRGÕ»äÕŁśÕÖ©ISPGOõĮŹ ----------------*/   
##@@@L0517_:    tmpreg = FLASH_ISPTRG_HIGH | FLASH_ISPTRG_ISPGO;   
##@@@L0518_:    FLASH_ISPTRG = SFR_Config_RAM (FLASH_ISPTRG,   
100001d8:	04 45       	LD        R5, [PC + #4]         ;->0x100001e8  :=0x40200100
100001da:	dd 98       	LD.W      R3, [R5 + #3]
##@@@F_:SFR_Config_RAM():
##@@@P_:kf32f_basic_flash.c:60
##@@@L0055_:
##@@@L0056_:/* ÕåÖńē╣µ«ŖÕŖ¤ĶāĮÕ»äÕŁśÕÖ©RAM */   
##@@@L0057_:static inline uint32_t   __attribute__((section(".indata")))   
##@@@L0058_:SFR_Config_RAM (uint32_t SfrMem, uint32_t SfrMask, uint32_t WriteVal)   
##@@@L0059_:{   
##@@@L0060_:    return ((SfrMem & SfrMask) | (WriteVal));   
100001dc:	04 44       	LD        R4, [PC + #4]         ;->0x100001ec  :=0xfffe
100001de:	1b d5       	ANL       R3, R3, R4
100001e0:	04 44       	LD        R4, [PC + #4]         ;->0x100001f0  :=0x50af0001
100001e2:	23 d7       	ORL       R4, R3, R4
##@@@F_:FLASH_Executive_Cmd_RAM():
##@@@P_:kf32f_basic_flash.c:518
##@@@L0513_:{   
##@@@L0514_:    uint32_t tmpreg = 0;   
##@@@L0515_:
##@@@L0516_:    /*---------------- ķģŹńĮ«FLASH_ISPTRGÕ»äÕŁśÕÖ©ISPGOõĮŹ ----------------*/   
##@@@L0517_:    tmpreg = FLASH_ISPTRG_HIGH | FLASH_ISPTRG_ISPGO;   
##@@@L0518_:    FLASH_ISPTRG = SFR_Config_RAM (FLASH_ISPTRG,   
100001e4:	ec a0       	ST.W      [R5 + #3], R4
100001e6:	b5 07       	SJMP      $-75                  ;->0x10000150
##@@@F_:FLASH_Program_Configuration_RAM():
100001e8:	00 01 20 40 	.long     0x40200100 ->1075839232  [!!!@2@:CMN       R0, R0	@@: LD        R0, [PC + #32]        ;->0x10000268  :=0x0
100001ec:	fe ff 00 00 	.long     0x0000fffe ->000065534 
100001f0:	01 00 af 50 	.long     0x50af0001 ->1353646081  [!!!@2@:.short    0x0001	@@: JB        [R5], #15

100001f4 <PADDING>:
##@@@F_:.data$static$PADDING$scode_local_9():
100001f4:	80 00 00 00 00 00 00 00 00 00 00 00 00 00 00 00     ................
	...

10000234 <GPIO_PORT>:
##@@@F_:.data$init$GPIO_PORT$scode_local_7():
10000234:	c0 01 00 50 c0 01 00 50 c0 00 00 50                 ...P...P...P

10000240 <SystemCoreClock>:
##@@@F_:.data$init$SystemCoreClock$scode_local_3():
10000240:	00 a2 4a 04                                         ..J.

10000244 <_Ctype>:
10000244:	ad 21 00 00                                         .!..

10000248 <flash_write>:
	...

1000025c <Flash_Buff1.2756>:
	...

1000045c <Flash_Buff2.2757>:
	...

1000065c <systick_tick_count>:
##@@@F_:.bss$data.static$systick_tick_count$scode_local_7():
1000065c:	00 00 00 00                                         ....

10000660 <ee_sec_info>:
	...

100006c0 <ctx>:
	...

10000728 <ota_info>:
	...

10000740 <g_runtime_param>:
	...

1000074c <last_tick.4974>:
##@@@F_:.bss$data.static$last_tick.4974$scode_local_9():
1000074c:	00 00 00 00                                         ....

10000750 <cnt1.4976>:
##@@@F_:.bss$data.static$cnt1.4976$scode_local_10():
10000750:	00 00 00 00                                         ....

10000754 <cur_date>:
	...

1000075c <e10>:
##@@@F_:.bss$comm$cur_date$scode_local_12():
1000075c:	00 00 00 00                                         ....

10000760 <e2>:
10000760:	00 00 00 00                                         ....

10000764 <lf>:
10000764:	00 00 00 00                                         ....

10000768 <S>:
10000768:	00 00 00 00                                         ....

1000076c <__Heap_Start__>:
	...
