	.file	"main.c"
	.text	
.Ltext0:
	.cfi_sections	.debug_frame
	.section .rodata.str1.4
	.type	.rodata.str1.4$scode_local_1, @function
	.rodata.str1.4$scode_local_1:
	.align	2
.LC0:
	.string	"Flash MD5 test\r\n"
	.align	2
.LC1:
	.string	"addr=0x%08lX, size=%lu bytes\r\n"
	.align	2
.LC2:
	.string	"md5="
	.align	2
.LC3:
	.string	"%02X"
	.align	2
.LC4:
	.string	"\r\n"
	.section .text$md5_flash_test
	.type	.text$md5_flash_test$scode_local_2, @function
	.text$md5_flash_test$scode_local_2:
	.align	1
	.export	md5_flash_test
	.type	md5_flash_test, @function
md5_flash_test:
.LFB1:
.LM1:
	.cfi_startproc
	PUSH	{r6, r7, lr}
	.cfi_def_cfa_offset 12
	SUB	sp,#16
	.cfi_def_cfa_offset 28
.LM2:
	LD	r0,#12288
	LD	r1,#100352
	MOV	r2,sp
	LJMP	md5_flash
.LVL0:
.LM3:
	LD	r0,#1073744256
	LD	r1,#.LC0
	LJMP	fprintf
.LVL1:
.LM4:
	LD	r0,#1073744256
	LD	r1,#.LC1
	LD	r2,#12288
	LD	r3,#100352
	LJMP	fprintf
.LVL2:
.LM5:
	LD	r0,#1073744256
	LD	r1,#.LC2
	LJMP	fprintf
.LVL3:
	MOV	r6,sp
.LM6:
	MOV	r7,sp
	ADD	r7,#16
.LVL4:
.L2:
.LM7:
	LD	r0,#1073744256
	LD	r1,#.LC3
	LD.b	r2,[r6++]
	LJMP	fprintf
.LVL5:
.LM8:
	CMP	r6,r7
	JNZ	.L2
.LM9:
	LD	r0,#1073744256
	LD	r1,#.LC4
	LJMP	fprintf
.LVL6:
.LM10:
	ADD	sp,#16
	.cfi_def_cfa_offset 12
	POP	{r6, r7}
	.cfi_def_cfa_offset 4
	POP	lr
	.cfi_def_cfa_offset 0
	JMP	lr
	.cfi_endproc
.LFE1:
	.size	md5_flash_test, .-md5_flash_test
	.section .text$runtime_param_set_default
	.type	.text$runtime_param_set_default$scode_local_3, @function
	.text$runtime_param_set_default$scode_local_3:
	.align	1
	.export	runtime_param_set_default
	.type	runtime_param_set_default, @function
runtime_param_set_default:
.LFB2:
.LM11:
	.cfi_startproc
.LM12:
	LD	r5,#g_runtime_param
	MOV	r4,#0
	ST.w	[r5],r4
.LM13:
	ST.w	[r5+#1],r4
.LM14:
	MOV	r3,#10
	ST.h	[r5+#4],r3
.LM15:
	MOV	r3,#1
	ST.b	[r5+#10],r3
.LM16:
	ST.b	[r5+#11],r4
.LM17:
	JMP	lr
	.cfi_endproc
.LFE2:
	.size	runtime_param_set_default, .-runtime_param_set_default
	.section .rodata.str1.4
	.type	.rodata.str1.4$scode_local_4, @function
	.rodata.str1.4$scode_local_4:
	.align	2
.LC5:
	.string	"\r\nruntime param test start\r\n"
	.align	2
.LC6:
	.string	"load ret=%d\r\n"
	.align	2
.LC7:
	.string	"load: run_time=%lu, save_count=%lu, brightness=%u, mode=%u\r\n"
	.align	2
.LC8:
	.string	"use default runtime param\r\n"
	.align	2
.LC9:
	.string	"save ret=%d\r\n"
	.align	2
.LC10:
	.string	"save: run_time=%lu, save_count=%lu, brightness=%u, mode=%u\r\n"
	.align	2
.LC11:
	.string	"runtime param test done\r\n"
	.section .text$runtime_param_test
	.type	.text$runtime_param_test$scode_local_5, @function
	.text$runtime_param_test$scode_local_5:
	.align	1
	.export	runtime_param_test
	.type	runtime_param_test, @function
runtime_param_test:
.LFB3:
.LM18:
	.cfi_startproc
	PUSH	{r6, r7, lr}
	.cfi_def_cfa_offset 12
	SUB	sp,#4
	.cfi_def_cfa_offset 16
.LM19:
	LD	r0,#1073744256
	LD	r1,#.LC5
	LJMP	fprintf
.LVL7:
.LM20:
	LD	r6,#g_runtime_param
	MOV	r0,#0
	MOV	r1,r6
	MOV	r2,#12
	LJMP	ee_load
.LVL8:
	MOV	r7,r0
.LVL9:
.LM21:
	LD	r0,#1073744256
.LVL10:
	LD	r1,#.LC6
	MOV	r2,r7
	LJMP	fprintf
.LVL11:
.LM22:
	CMP	r7,#0
	JZ	.L9
.LBB4:
.LBB5:
.LM23:
	MOV	r5,#0
	ST.w	[r6],r5
.LM24:
	ST.w	[r6+#1],r5
.LM25:
	MOV	r4,#10
	ST.h	[r6+#4],r4
.LM26:
	MOV	r4,#1
	ST.b	[r6+#10],r4
.LM27:
	ST.b	[r6+#11],r5
.LBE5:
.LBE4:
.LM28:
	LD	r0,#1073744256
	LD	r1,#.LC8
	LJMP	fprintf
.LVL12:
.L8:
.LM29:
	LD.w	r5,[r6]
	ADD	r5,#60
	ST.w	[r6],r5
.LM30:
	LD.w	r4,[r6+#1]
	ADD	r5,r4,#1
	ST.w	[r6+#1],r5
.LM31:
	LD.h	r4,[r6+#4]
	ADD	r5,r4,#1
	ST.h	[r6+#4],r5
.LM32:
	LD.b	r5,[r6+#10]
	ADD	r5,r5,#1
	ST.b	[r6+#10],r5
.LM33:
	MOV	r0,#0
	LD	r1,#g_runtime_param
	MOV	r2,#12
	LJMP	ee_save
.LVL13:
	MOV	r2,r0
.LVL14:
.LM34:
	LD	r0,#1073744256
.LVL15:
	LD	r1,#.LC9
	LJMP	fprintf
.LVL16:
.LM35:
	LD.w	r3,[r6+#1]
	LD.h	r4,[r6+#4]
	LD.b	r5,[r6+#10]
	ST.w	[sp],r5
	LD	r0,#1073744256
	LD	r1,#.LC10
	LD.w	r2,[r6]
	LJMP	fprintf
.LVL17:
.LM36:
	LD	r0,#1073744256
	LD	r1,#.LC11
	LJMP	fprintf
.LVL18:
.LM37:
	ADD	sp,#4
	.cfi_remember_state
	.cfi_def_cfa_offset 12
	POP	{r6, r7}
	.cfi_def_cfa_offset 4
	POP	lr
	.cfi_def_cfa_offset 0
	JMP	lr
.LVL19:
.L9:
	.cfi_restore_state
.LM38:
	LD.w	r3,[r6+#1]
	LD.h	r4,[r6+#4]
	LD.b	r5,[r6+#10]
	ST.w	[sp],r5
	LD	r0,#1073744256
	LD	r1,#.LC7
	LD.w	r2,[r6]
	LJMP	fprintf
.LVL20:
	JMP	.L8
	.cfi_endproc
.LFE3:
	.size	runtime_param_test, .-runtime_param_test
	.section .rodata.str1.4
	.type	.rodata.str1.4$scode_local_6, @function
	.rodata.str1.4$scode_local_6:
	.align	2
.LC12:
	.string	"Bootloader Init!\r\n"
	.align	2
.LC13:
	.string	"app verify ok\r\n"
	.align	2
.LC14:
	.string	"update fw start\r\n"
	.align	2
.LC15:
	.string	"update fw done\r\n"
	.align	2
.LC16:
	.string	"clear flg\r\n"
	.align	2
.LC17:
	.string	"jump to app\r\n"
	.section .text.startup.main
	.type	.text.startup.main$scode_local_7, @function
	.text.startup.main$scode_local_7:
	.align	1
	.export	main
	.type	main, @function
main:
.LFB4:
.LM39:
	.cfi_startproc
	PUSH	{r6, r7, r8, r9, r10, r11, lr}
	.cfi_def_cfa_offset 28
.LM40:
	LJMP	SystemInit
.LVL21:
.LM41:
	LD	r5,#SystemCoreClock
	LD.w	r0,[r5]
	LD	r3,#1000
	MOV	r8,r3
	DIVU	r0,r0,r3
	LJMP	systick_timer_init
.LVL22:
.LM42:
	MOV	r0,#2
	LJMP	kf_eval_usart_init
.LVL23:
.LM43:
	MOV	r0,#0
	LJMP	kf_eval_led_init
.LVL24:
.LM44:
	MOV	r0,#1
	LJMP	kf_eval_led_init
.LVL25:
.LM45:
	MOV	r0,#2
	LJMP	kf_eval_led_init
.LVL26:
.LM46:
	LD	r0,#1073744256
	LD	r1,#.LC12
	LJMP	fprintf
.LVL27:
.LM47:
	LJMP	runtime_param_test
.LVL28:
	LD	r6,#last_tick.4974
	LD	r7,#cnt1.4976
.LBB6:
.LM48:
	MOV	r9,r6
.LBB7:
.LM49:
	MOV	r11,r7
.LM50:
	LD	r4,#2999
	MOV	r10,r4
	JMP	.L22
.L12:
.LBE7:
.LM51:
	LD	r0,#12288
	LJMP	is_app_valid
.LVL29:
	CMP	r0,#0
	JNZ	.L23
.L13:
.LM52:
	LJMP	systick_tick_get
.LVL30:
.LM53:
	LD.w	r5,[r6]
	CMP	r0,r5
	JNZ	.L24
.LVL31:
.L22:
.LM54:
	LJMP	ota_app_verify
.LVL32:
	CMP	r0,#0
	JNZ	.L12
.LM55:
	LD	r0,#1073744256
	LD	r1,#.LC13
	LJMP	fprintf
.LVL33:
.LM56:
	LD	r0,#1073744256
	LD	r1,#.LC14
	LJMP	fprintf
.LVL34:
.LM57:
	LJMP	ota_app_update
.LVL35:
.LM58:
	LD	r0,#1073744256
	LD	r1,#.LC15
	LJMP	fprintf
.LVL36:
.LM59:
	LJMP	ota_info_clear
.LVL37:
.LM60:
	LD	r0,#1073744256
	LD	r1,#.LC16
	LJMP	fprintf
.LVL38:
.LM61:
	LD	r0,#12288
	LJMP	is_app_valid
.LVL39:
	CMP	r0,#0
	JZ	.L13
.L23:
.LM62:
	LD	r0,#1073744256
	LD	r1,#.LC17
	LJMP	fprintf
.LVL40:
.LM63:
	LD	r0,#12288
	LJMP	jump_to_app
.LVL41:
.LM64:
	LJMP	systick_tick_get
.LVL42:
.LM65:
	LD.w	r5,[r6]
	CMP	r0,r5
	JZ	.L22
.L24:
.LBB8:
.LM66:
	ST.w	[r9],r0
.LM67:
	LD.h	r3,[r7]
	ADD	r5,r3,#1
	ZXT.h	r5,r5
	ST.h	[r7],r5
.LM68:
	MOV	r3,r8
	DIVU	r4,r5,r3
	MULS	r4,r4,r3 ;
	NOP
	SUB	r4,r5,r4
	ZXT.h	r4,r4
	CMP	r4,#0
	JZ	.L25
.LM69:
	CMP	r5,r10
	JLS	.L22
.LM70:
	MOV	r5,#0
	ST.h	[r11],r5
	JMP	.L22
.L25:
.LM71:
	MOV	r0,#2
.LVL43:
	LJMP	kf_eval_led_toggle
.LVL44:
	JMP	.L22
.LBE8:
.LBE6:
	.cfi_endproc
.LFE4:
	.size	main, .-main
	.export	g_runtime_param
	.section .bss$comm$g_runtime_param
	.type	.bss$comm$g_runtime_param$scode_local_8, @function
	.bss$comm$g_runtime_param$scode_local_8:
	.align	2
	.type	g_runtime_param, @object
	.size	g_runtime_param, 12
g_runtime_param:
	.fill 12, 1
	.section .bss$data.static$last_tick.4974
	.type	.bss$data.static$last_tick.4974$scode_local_9, @function
	.bss$data.static$last_tick.4974$scode_local_9:
	.align	2
	.type	last_tick.4974, @object
	.size	last_tick.4974, 4
last_tick.4974:
	.fill 4, 1
	.section .bss$data.static$cnt1.4976
	.type	.bss$data.static$cnt1.4976$scode_local_10, @function
	.bss$data.static$cnt1.4976$scode_local_10:
	.align	1
	.type	cnt1.4976, @object
	.size	cnt1.4976, 2
cnt1.4976:
	.fill 2, 1
	.text	
.Letext0: