	.file	"md5.c"
	.text	
.Ltext0:
	.cfi_sections	.debug_frame
	.section .text$rotateLeft
	.type	.text$rotateLeft$scode_local_1, @function
	.text$rotateLeft$scode_local_1:
	.align	1
	.export	rotateLeft
	.type	rotateLeft, @function
rotateLeft:
.LFB1:
.LM1:
	.cfi_startproc
.LVL0:
.LM2:
	MOV	r5,#32
	SUB	r1,r5,r1
.LVL1:
.LM3:
	ROR	r0,r1
.LVL2:
	JMP	lr
	.cfi_endproc
.LFE1:
	.size	rotateLeft, .-rotateLeft
	.section .text$md5Init
	.type	.text$md5Init$scode_local_2, @function
	.text$md5Init$scode_local_2:
	.align	1
	.export	md5Init
	.type	md5Init, @function
md5Init:
.LFB2:
.LM4:
	.cfi_startproc
.LM5:
	LD	r3,#ctx
	MOV	r4,#0
	MOV	r5,#0
	ST.w	[r3],r4
	ST.w	[r3+#1],r5
.LM6:
	LD	r5,#1732584193
	ST.w	[r3+#2],r5
.LM7:
	LD	r5,#-271733879
	ST.w	[r3+#3],r5
.LM8:
	LD	r5,#-1732584194
	ST.w	[r3+#4],r5
.LM9:
	LD	r5,#271733878
	ST.w	[r3+#5],r5
.LM10:
	JMP	lr
	.cfi_endproc
.LFE2:
	.size	md5Init, .-md5Init
	.section .text$md5Step
	.type	.text$md5Step$scode_local_3, @function
	.text$md5Step$scode_local_3:
	.align	1
	.export	md5Step
	.type	md5Step, @function
md5Step:
.LFB5:
.LM11:
	.cfi_startproc
.LVL3:
	PUSH	{r6, r7, r8, r9, r10, r11, r12, lr}
	.cfi_def_cfa_offset 32
	SUB	sp,#24
	.cfi_def_cfa_offset 56
	MOV	r11,r0
	MOV	r10,r1
.LM12:
	LD.w	r1,[r0]
.LVL4:
	MOV	r0,r1
.LVL5:
	ST.w	[sp],r1
.LVL6:
.LM13:
	MOV	r3,r11
	LD.w	r3,[r3+#1]
	ST.w	[sp+#1],r3
.LVL7:
.LM14:
	MOV	r4,r11
	LD.w	r4,[r4+#2]
	ST.w	[sp+#2],r4
.LVL8:
.LM15:
	MOV	r5,r11
	LD.w	r5,[r5+#3]
	ST.w	[sp+#3],r5
.LVL9:
	LD	r6,#K
	MOV	r3,r5
.LVL10:
.LM16:
	MOV	r2,r4
.LM17:
	LD.w	r4,[sp+#1]
.LVL11:
.LM18:
	MOV	r5,#0
.LVL12:
.LBB10:
.LBB11:
.LM19:
	MOV	r12,#15
.LBB12:
.LBB13:
.LM20:
	MOV	r1,#32
	MOV	lr,r2
	MOV	r9,r6
	MOV	r8,r0
	JMP	.L9
.LVL13:
.L5:
.LBE13:
.LBE12:
.LM21:
	NOT	r7,r4
	ANL	r7,r7,r3
	ST.w	[sp+#4],r7
	MOV	r0,lr
	ANL	r7,r0,r4
	LD.w	r6,[sp+#4]
	ORL	r7,r6,r7
.LVL14:
.L8:
.LM22:
	LD.w	r6,[r9++]
.LVL15:
	ADD	r7,r7,r6
.LVL16:
	LSL	r2,#2
.LVL17:
	MOV	r0,r10
	LD.w	r2,[r0+r2]
	ADD	r7,r7,r2
	ADD	r7,r8
	LD	r6,#S
	LD.b	r6,[r6+r5]
.LVL18:
	ZXT.b	r2,r6
.LBB15:
.LBB14:
.LM23:
	SUB	r2,r1,r2
	ROR	r7,r2
.LBE14:
.LBE15:
.LM24:
	ADD	r7,r7,r4
.LVL19:
	ADD	r5,r5,#1
	MOV	r8,r3
.LBE11:
.LM25:
	CMP	r5,#64
	JZ	.L13
.LVL20:
	MOV	r3,lr
.LVL21:
	MOV	lr,r4
.LVL22:
.LM26:
	MOV	r4,r7
.LVL23:
.L9:
	ZXT.h	r2,r5
.LBB16:
.LM27:
	MOV	r7,#4
	LSR	r6,r2,r7
	CMP	r6,#1
	JZ	.L6
	CMP	r6,#0
	JZ	.L5
	CMP	r6,#2
	JZ	.L14
.LM28:
	NOT	r7,r3
	ORL	r7,r7,r4
	XRL	r7,lr
.LVL24:
.LM29:
	MOV	r6,#7
	MULS	r2,r2,r6 ;
	NOP
.LM30:
	ANL	r2,r12
.LVL25:
.LM31:
	JMP	.L8
.LVL26:
.L6:
.LM32:
	NOT	r7,r3
	ANL	r7,lr
	ANL	r6,r3,r4
	ORL	r7,r7,r6
.LVL27:
.LM33:
	MOV	r0,#5
	MULS	r2,r2,r0 ;
	NOP
	ADD	r2,r2,#1
.LM34:
	ANL	r2,r12
.LVL28:
.LM35:
	JMP	.L8
.LVL29:
.L14:
.LM36:
	MOV	r6,lr
	XRL	r7,r6,r4
	XRL	r7,r7,r3
.LVL30:
.LM37:
	MOV	r0,#3
	MULS	r2,r2,r0 ;
	NOP
	ADD	r2,r2,#5
.LM38:
	ANL	r2,r12
.LVL31:
.LM39:
	JMP	.L8
.LVL32:
.L13:
	MOV	r9,r7
	MOV	r2,lr
.LBE16:
.LBE10:
.LM40:
	LD.w	r7,[sp]
.LVL33:
	ADD	r3,r3,r7
.LVL34:
	ST.w	[r11],r3
.LM41:
	LD.w	r7,[sp+#1]
	ADD	r7,r9
	MOV	r0,r11
.LVL35:
	ST.w	[r0+#1],r7
.LM42:
	LD.w	r5,[sp+#2]
	ADD	r4,r4,r5
.LVL36:
	MOV	r6,r4
.LVL37:
	ST.w	[r0+#2],r4
.LM43:
	LD.w	r0,[sp+#3]
	ADD	r2,r2,r0
	MOV	r1,r11
	ST.w	[r1+#3],r2
.LM44:
	ADD	sp,#24
	.cfi_def_cfa_offset 32
	POP	{r6, r7, r8, r9, r10, r11, r12}
	.cfi_def_cfa_offset 4
.LVL38:
	POP	lr
	.cfi_def_cfa_offset 0
.LVL39:
	JMP	lr
	.cfi_endproc
.LFE5:
	.size	md5Step, .-md5Step
	.section .text$md5Update
	.type	.text$md5Update$scode_local_4, @function
	.text$md5Update$scode_local_4:
	.align	1
	.export	md5Update
	.type	md5Update, @function
md5Update:
.LFB3:
.LM45:
	.cfi_startproc
.LVL40:
	PUSH	{r6, r7, r8, r9, r10, r11, lr}
	.cfi_def_cfa_offset 28
	SUB	sp,#64
	.cfi_def_cfa_offset 92
	MOV	r9,r0
	MOV	r8,r1
.LM46:
	LD	r6,#ctx
	MOV	r0,#63
.LVL41:
	LD.w	r2,[r6]
	ANL	r1,r0,r2
.LVL42:
.LM47:
	MOV	r4,r8
	MOV	r5,#0
	LD.w	r2,[r6]
	LD.w	r3,[r6+#1]
	ADD		r2,r2,r4
	ADDC	r3,r3,r5
	ST.w	[r6],r2
	ST.w	[r6+#1],r3
.LVL43:
.LBB17:
.LM48:
	CMP	r8,r5
	JZ	.L15
	MOV	r4,r5
	MOV	r10,r5
.LM49:
	MOV	r11,r0
.LM50:
	LD	r7,#ctx+88
.LVL44:
.L16:
.LM51:
	MOV	r3,r9
	LD.b	r4,[r3+r4]
	ZXT.b	r4,r4
	ADD	r5,r6,r1
	ST.b	[r5+#24],r4
	ADD	r1,r1,#1
	ZXT.h	r1,r1
.LVL45:
.LM52:
	MOV	r4,r11
	ANL	r5,r1,r4
	JNZ	.L17
.LVL46:
	LD	r5,#ctx+24
	MOV	r4,sp
.LVL47:
.L18:
.LBB18:
.LM53:
	LD.b	r2,[r5+#3]
	LSL	r2,#24
.LM54:
	LD.b	r3,[r5+#2]
	LSL	r3,#16
.LM55:
	ORL	r3,r2,r3
.LM56:
	LD.b	r2,[r5]
.LM57:
	ORL	r3,r3,r2
.LM58:
	LD.b	r2,[r5+#1]
	LSL	r2,#8
	ORL	r3,r3,r2
.LM59:
	ST.w	[r4++],r3
.LVL48:
	ADD	r5,r5,#4
.LM60:
	CMP	r5,r7
	JNZ	.L18
.LBE18:
.LM61:
	LD	r0,#ctx+8
	MOV	r1,sp
.LVL49:
	LJMP	md5Step
.LVL50:
.LM62:
	MOV	r1,#0
.LVL51:
.L17:
.LM63:
	ADD	r10,#1
	ZXT.h	r10,r10
.LVL52:
	MOV	r4,r10
	CMP	r8,r10
	JHI	.L16
.LVL53:
.L15:
.LBE17:
.LM64:
	ADD	sp,#64
	.cfi_def_cfa_offset 28
	POP	{r6, r7, r8, r9, r10, r11}
	.cfi_def_cfa_offset 4
.LVL54:
	POP	lr
	.cfi_def_cfa_offset 0
	JMP	lr
	.cfi_endproc
.LFE3:
	.size	md5Update, .-md5Update
	.section .text$md5Finalize
	.type	.text$md5Finalize$scode_local_5, @function
	.text$md5Finalize$scode_local_5:
	.align	1
	.export	md5Finalize
	.type	md5Finalize, @function
md5Finalize:
.LFB4:
.LM65:
	.cfi_startproc
.LVL55:
	PUSH	{r6, r7, r8, lr}
	.cfi_def_cfa_offset 16
	SUB	sp,#64
	.cfi_def_cfa_offset 80
	MOV	r7,r0
.LM66:
	LD	r6,#ctx
	MOV	r5,#63
	LD.w	r2,[r6]
	ANL	r5,r2,r5
.LVL56:
.LM67:
	CMP	r5,#55
	JHI	.L24
.LM68:
	MOV	r8,#56
	SUB	r8,r5
	ZXT.h	r8,r8
.L25:
.LVL57:
.LM69:
	LD	r0,#PADDING
.LVL58:
	MOV	r1,r8
	LJMP	md5Update
.LVL59:
.LM70:
	MOV	r4,r8
	MOV	r5,#0
	LD.w	r2,[r6]
	LD.w	r3,[r6+#1]
	SUB		r4,r2,r4
	SUBC	r5,r3,r5
	ST.w	[r6],r4
	ST.w	[r6+#1],r5
.LVL60:
	LD	r3,#ctx+24
	MOV	r6,sp
.LM71:
	LD	r0,#ctx+80
.LVL61:
.L26:
.LBB19:
.LM72:
	LD.b	r1,[r3+#3]
	LSL	r1,#24
.LM73:
	LD.b	r2,[r3+#2]
	LSL	r2,#16
.LM74:
	ORL	r2,r1,r2
.LM75:
	LD.b	r1,[r3]
.LM76:
	ORL	r2,r2,r1
.LM77:
	LD.b	r1,[r3+#1]
	LSL	r1,#8
	ORL	r2,r2,r1
.LM78:
	ST.w	[r6++],r2
	ADD	r3,r3,#4
.LM79:
	CMP	r3,r0
	JNZ	.L26
.LBE19:
.LM80:
	MOV	r2,#3
	LSL	r3,r4,r2
	ST.w	[sp+#14],r3
.LM81:
	LSR	r4,#29
	LSL	r5,r5,r2
	ORL	r5,r4,r5
	ST.w	[sp+#15],r5
.LM82:
	LD	r0,#ctx+8
	MOV	r1,sp
	LJMP	md5Step
.LVL62:
	LD	r3,#ctx+8
	LD	r5,#ctx+88
.LM83:
	LD	r6,#ctx+104
.LBB20:
.LM84:
	LD	r0,#65280
.LM85:
	LD	r1,#16711680
.LVL63:
.L27:
.LM86:
	LD.w	r4,[r3++]
	ST.b	[r5],r4
.LM87:
	ANL	r2,r4,r0
	LSR	r2,#8
	ST.b	[r5+#1],r2
.LM88:
	ANL	r2,r4,r1
	LSR	r2,#16
	ST.b	[r5+#2],r2
.LM89:
	LSR	r4,#24
	ST.b	[r5+#3],r4
	ADD	r5,r5,#4
.LM90:
	CMP	r5,r6
	JNZ	.L27
.LBE20:
.LM91:
	MOV	r0,r7
	LD	r1,#ctx+88
	MOV	r2,#16
	LJMP	memcpy
.LVL64:
.LM92:
	ADD	sp,#64
	.cfi_remember_state
	.cfi_def_cfa_offset 16
	POP	{r6, r7, r8}
	.cfi_def_cfa_offset 4
.LVL65:
	POP	lr
	.cfi_def_cfa_offset 0
	JMP	lr
.LVL66:
.L24:
	.cfi_restore_state
.LM93:
	MOV	r8,#120
	SUB	r8,r5
	ZXT.h	r8,r8
	JMP	.L25
	.cfi_endproc
.LFE4:
	.size	md5Finalize, .-md5Finalize
	.section .text$md5String
	.type	.text$md5String$scode_local_6, @function
	.text$md5String$scode_local_6:
	.align	1
	.export	md5String
	.type	md5String, @function
md5String:
.LFB6:
.LM94:
	.cfi_startproc
.LVL67:
	PUSH	{r6, r7, lr}
	.cfi_def_cfa_offset 12
	MOV	r7,r0
	MOV	r6,r1
.LBB21:
.LBB22:
.LM95:
	LD	r3,#ctx
	MOV	r4,#0
	MOV	r5,#0
	ST.w	[r3],r4
	ST.w	[r3+#1],r5
.LM96:
	LD	r5,#1732584193
	ST.w	[r3+#2],r5
.LM97:
	LD	r5,#-271733879
	ST.w	[r3+#3],r5
.LM98:
	LD	r5,#-1732584194
	ST.w	[r3+#4],r5
.LM99:
	LD	r5,#271733878
	ST.w	[r3+#5],r5
.LBE22:
.LBE21:
.LM100:
	LJMP	strlen
.LVL68:
	MOV	r1,r0
	MOV	r0,r7
	LJMP	md5Update
.LVL69:
.LM101:
	MOV	r0,r6
	LJMP	md5Finalize
.LVL70:
.LM102:
	POP	{r6, r7}
	.cfi_def_cfa_offset 4
.LVL71:
	POP	lr
	.cfi_def_cfa_offset 0
	JMP	lr
	.cfi_endproc
.LFE6:
	.size	md5String, .-md5String
	.section .text$md5Flash
	.type	.text$md5Flash$scode_local_7, @function
	.text$md5Flash$scode_local_7:
	.align	1
	.export	md5Flash
	.type	md5Flash, @function
md5Flash:
.LFB7:
.LM103:
	.cfi_startproc
.LVL72:
	PUSH	{r6, r7, r8, r9, r10, r11, lr}
	.cfi_def_cfa_offset 28
	MOV	r5,#128
	SUB	sp,r5
	.cfi_def_cfa_offset 156
	MOV	r10,r0
	MOV	r8,r1
	MOV	r11,r2
.LVL73:
.LBB23:
.LBB24:
.LM104:
	LD	r3,#ctx
	MOV	r4,#0
	MOV	r5,#0
	ST.w	[r3],r4
	ST.w	[r3+#1],r5
.LM105:
	LD	r5,#1732584193
	ST.w	[r3+#2],r5
.LM106:
	LD	r5,#-271733879
	ST.w	[r3+#3],r5
.LM107:
	LD	r5,#-1732584194
	ST.w	[r3+#4],r5
.LM108:
	LD	r5,#271733878
	ST.w	[r3+#5],r5
.LBE24:
.LBE23:
.LM109:
	MOV	r7,#0
	MOV	r9,#128
	CMP	r1,r7
	JZ	.L34
.LVL74:
.L36:
.LM110:
	MOV	r5,r8
	SUB	r6,r5,r7
	CMP	r6,r9
	JLS	.L33
.LVL75:
	MOV	r6,#128
.L33:
.LVL76:
.LM111:
	MOV	r5,r10
.LVL77:
	ADD	r0,r7,r5
	MOV	r1,sp
	MOV	r2,r6
	LJMP	flash_read_nbyte
.LVL78:
.LM112:
	MOV	r0,sp
	MOV	r1,r6
	LJMP	md5Update
.LVL79:
.LM113:
	ADD	r7,r7,r6
.LVL80:
.LM114:
	CMP	r8,r7
	JHI	.L36
.LVL81:
.L34:
.LM115:
	MOV	r0,r11
	LJMP	md5Finalize
.LVL82:
.LM116:
	MOV	r5,#128
	ADD	sp,r5
	.cfi_def_cfa_offset 28
	POP	{r6, r7, r8, r9, r10, r11}
	.cfi_def_cfa_offset 4
.LVL83:
	POP	lr
	.cfi_def_cfa_offset 0
	JMP	lr
	.cfi_endproc
.LFE7:
	.size	md5Flash, .-md5Flash
	.export	ctx
	.section .bss$comm$ctx
	.type	.bss$comm$ctx$scode_local_8, @function
	.bss$comm$ctx$scode_local_8:
	.align	2
	.type	ctx, @object
	.size	ctx, 104
ctx:
	.fill 104, 1
	.section .data$static$PADDING
	.type	.data$static$PADDING$scode_local_9, @function
	.data$static$PADDING$scode_local_9:
	.align	2
	.type	PADDING, @object
	.size	PADDING, 64
PADDING:
	.byte	-128
	.byte	0
	.byte	0
	.byte	0
	.byte	0
	.byte	0
	.byte	0
	.byte	0
	.byte	0
	.byte	0
	.byte	0
	.byte	0
	.byte	0
	.byte	0
	.byte	0
	.byte	0
	.byte	0
	.byte	0
	.byte	0
	.byte	0
	.byte	0
	.byte	0
	.byte	0
	.byte	0
	.byte	0
	.byte	0
	.byte	0
	.byte	0
	.byte	0
	.byte	0
	.byte	0
	.byte	0
	.byte	0
	.byte	0
	.byte	0
	.byte	0
	.byte	0
	.byte	0
	.byte	0
	.byte	0
	.byte	0
	.byte	0
	.byte	0
	.byte	0
	.byte	0
	.byte	0
	.byte	0
	.byte	0
	.byte	0
	.byte	0
	.byte	0
	.byte	0
	.byte	0
	.byte	0
	.byte	0
	.byte	0
	.byte	0
	.byte	0
	.byte	0
	.byte	0
	.byte	0
	.byte	0
	.byte	0
	.byte	0
	.section .rdata$K
	.type	.rdata$K$scode_local_10, @function
	.rdata$K$scode_local_10:
	.align	2
	.type	K, @object
	.size	K, 256
K:
	.long	-680876936
	.long	-389564586
	.long	606105819
	.long	-1044525330
	.long	-176418897
	.long	1200080426
	.long	-1473231341
	.long	-45705983
	.long	1770035416
	.long	-1958414417
	.long	-42063
	.long	-1990404162
	.long	1804603682
	.long	-40341101
	.long	-1502002290
	.long	1236535329
	.long	-165796510
	.long	-1069501632
	.long	643717713
	.long	-373897302
	.long	-701558691
	.long	38016083
	.long	-660478335
	.long	-405537848
	.long	568446438
	.long	-1019803690
	.long	-187363961
	.long	1163531501
	.long	-1444681467
	.long	-51403784
	.long	1735328473
	.long	-1926607734
	.long	-378558
	.long	-2022574463
	.long	1839030562
	.long	-35309556
	.long	-1530992060
	.long	1272893353
	.long	-155497632
	.long	-1094730640
	.long	681279174
	.long	-358537222
	.long	-722521979
	.long	76029189
	.long	-640364487
	.long	-421815835
	.long	530742520
	.long	-995338651
	.long	-198630844
	.long	1126891415
	.long	-1416354905
	.long	-57434055
	.long	1700485571
	.long	-1894986606
	.long	-1051523
	.long	-2054922799
	.long	1873313359
	.long	-30611744
	.long	-1560198380
	.long	1309151649
	.long	-145523070
	.long	-1120210379
	.long	718787259
	.long	-343485551
	.section .rdata$S
	.type	.rdata$S$scode_local_11, @function
	.rdata$S$scode_local_11:
	.align	2
	.type	S, @object
	.size	S, 64
S:
	.byte	7
	.byte	12
	.byte	17
	.byte	22
	.byte	7
	.byte	12
	.byte	17
	.byte	22
	.byte	7
	.byte	12
	.byte	17
	.byte	22
	.byte	7
	.byte	12
	.byte	17
	.byte	22
	.byte	5
	.byte	9
	.byte	14
	.byte	20
	.byte	5
	.byte	9
	.byte	14
	.byte	20
	.byte	5
	.byte	9
	.byte	14
	.byte	20
	.byte	5
	.byte	9
	.byte	14
	.byte	20
	.byte	4
	.byte	11
	.byte	16
	.byte	23
	.byte	4
	.byte	11
	.byte	16
	.byte	23
	.byte	4
	.byte	11
	.byte	16
	.byte	23
	.byte	4
	.byte	11
	.byte	16
	.byte	23
	.byte	6
	.byte	10
	.byte	15
	.byte	21
	.byte	6
	.byte	10
	.byte	15
	.byte	21
	.byte	6
	.byte	10
	.byte	15
	.byte	21
	.byte	6
	.byte	10
	.byte	15
	.byte	21
	.text	
.Letext0: