	.file	"soft_timer.c"
	.text	
.Ltext0:
	.cfi_sections	.debug_frame
	.section .text$softtimer_tick_get
	.type	.text$softtimer_tick_get$scode_local_1, @function
	.text$softtimer_tick_get$scode_local_1:
	.align	1
	.export	softtimer_tick_get
	.type	softtimer_tick_get, @function
softtimer_tick_get:
.LFB0:
.LM1:
	.cfi_startproc
.LM2:
	LD	r5,#cur_date
	LD.w	r0,[r5]
	JMP	lr
	.cfi_endproc
.LFE0:
	.size	softtimer_tick_get, .-softtimer_tick_get
	.section .text$softtimer_tick_cnt_up
	.type	.text$softtimer_tick_cnt_up$scode_local_2, @function
	.text$softtimer_tick_cnt_up$scode_local_2:
	.align	1
	.export	softtimer_tick_cnt_up
	.type	softtimer_tick_cnt_up, @function
softtimer_tick_cnt_up:
.LFB1:
.LM3:
	.cfi_startproc
.LM4:
	LD	r5,#cur_date
	LD.w	r3,[r5]
	ADD	r4,r3,#1
	ST.w	[r5],r4
.LM5:
	JMP	lr
	.cfi_endproc
.LFE1:
	.size	softtimer_tick_cnt_up, .-softtimer_tick_cnt_up
	.section .text$SOFTTIMER_getTimeoutValue
	.type	.text$SOFTTIMER_getTimeoutValue$scode_local_3, @function
	.text$SOFTTIMER_getTimeoutValue$scode_local_3:
	.align	1
	.export	SOFTTIMER_getTimeoutValue
	.type	SOFTTIMER_getTimeoutValue, @function
SOFTTIMER_getTimeoutValue:
.LFB2:
.LM6:
	.cfi_startproc
.LVL0:
	ZXT.b	r0,r0
.LM7:
	LSL	r0,#4
.LVL1:
.LM8:
	LD	r5,#timeTable
	LD.w	r0,[r5+r0]
	JMP	lr
	.cfi_endproc
.LFE2:
	.size	SOFTTIMER_getTimeoutValue, .-SOFTTIMER_getTimeoutValue
	.section .text$SOFTTIMER_setTimeoutValue
	.type	.text$SOFTTIMER_setTimeoutValue$scode_local_4, @function
	.text$SOFTTIMER_setTimeoutValue$scode_local_4:
	.align	1
	.export	SOFTTIMER_setTimeoutValue
	.type	SOFTTIMER_setTimeoutValue, @function
SOFTTIMER_setTimeoutValue:
.LFB3:
.LM9:
	.cfi_startproc
.LVL2:
	ZXT.b	r0,r0
.LM10:
	LD	r4,#cur_date
	LD.w	r3,[r4]
	ADD	r1,r1,r3
.LVL3:
	LD	r5,#timeTable
	LSL	r0,#4
.LVL4:
	ADD	r3,r5,r0
	ST.w	[r5+r0],r1
.LM11:
	LD	r2,#86399999
.LM12:
	LD.h	r4,[r4+#2]
.LM13:
	CMP	r1,r2
	JHI	.L8
.LM14:
	ST.h	[r3+#4],r4
.LM15:
	JMP	lr
.L8:
.LM16:
	ADD	r4,r4,#1
	ST.h	[r3+#4],r4
.LM17:
	LD	r4,#86400000
	SUB	r1,r1,r4
	ST.w	[r5+r0],r1
.LM18:
	JMP	lr
	.cfi_endproc
.LFE3:
	.size	SOFTTIMER_setTimeoutValue, .-SOFTTIMER_setTimeoutValue
	.section .text$SOFTTIMER_start
	.type	.text$SOFTTIMER_start$scode_local_5, @function
	.text$SOFTTIMER_start$scode_local_5:
	.align	1
	.export	SOFTTIMER_start
	.type	SOFTTIMER_start, @function
SOFTTIMER_start:
.LFB4:
.LM19:
	.cfi_startproc
.LVL5:
	ZXT.b	r0,r0
.LM20:
	LSL	r0,#4
.LVL6:
	LD	r5,#timeTable+8
	ADD	r0,r0,r5
	MOV	r5,#1
	ST.b	[r0+#2],r5
.LM21:
	JMP	lr
	.cfi_endproc
.LFE4:
	.size	SOFTTIMER_start, .-SOFTTIMER_start
	.section .text$SOFTTIMER_suspend
	.type	.text$SOFTTIMER_suspend$scode_local_6, @function
	.text$SOFTTIMER_suspend$scode_local_6:
	.align	1
	.export	SOFTTIMER_suspend
	.type	SOFTTIMER_suspend, @function
SOFTTIMER_suspend:
.LFB5:
.LM22:
	.cfi_startproc
.LVL7:
	ZXT.b	r0,r0
.LM23:
	LSL	r0,#4
.LVL8:
	LD	r5,#timeTable+8
	ADD	r0,r0,r5
	MOV	r5,#0
	ST.b	[r0+#2],r5
.LM24:
	JMP	lr
	.cfi_endproc
.LFE5:
	.size	SOFTTIMER_suspend, .-SOFTTIMER_suspend
	.section .rodata.str1.4
	.type	.rodata.str1.4$scode_local_7, @function
	.rodata.str1.4$scode_local_7:
	.align	2
.LC0:
	.string	"register timer%d successfully\r\n"
	.align	2
.LC1:
	.string	"register failed\r\n"
	.section .text$SOFTTIMER_register
	.type	.text$SOFTTIMER_register$scode_local_8, @function
	.text$SOFTTIMER_register$scode_local_8:
	.align	1
	.export	SOFTTIMER_register
	.type	SOFTTIMER_register, @function
SOFTTIMER_register:
.LFB6:
.LM25:
	.cfi_startproc
.LVL9:
	PUSH	{r6, r7, r8, r9, lr}
	.cfi_def_cfa_offset 20
	ZXT.b	r0,r0
.LM26:
	MOV	r6,#255
.LM27:
	LD	r5,#86400000
	CMP	r1,r5
	JLS	.L19
.LVL10:
.L12:
.LM28:
	MOV	r0,r6
	POP	{r6, r7, r8, r9}
	.cfi_remember_state
	.cfi_def_cfa_offset 4
	POP	lr
	.cfi_def_cfa_offset 0
	JMP	lr
.LVL11:
.L19:
	.cfi_restore_state
	LD	r4,#timeTable+10
.LM29:
	MOV	r5,#0
.L16:
	ZXT.b	r6,r5
.LM30:
	LD.b	r3,[r4]
	CMP	r3,#0
	JZ	.L20
.LVL12:
	ADD	r5,r5,#1
	ADD	r4,#16
.LM31:
	CMP	r5,#5
	JNZ	.L16
.LM32:
	LD	r0,#1073744256
	LD	r1,#.LC1
.LVL13:
	LJMP	fprintf
.LVL14:
.LM33:
	MOV	r6,#255
.LM34:
	MOV	r0,r6
	POP	{r6, r7, r8, r9}
	.cfi_remember_state
	.cfi_def_cfa_offset 4
	POP	lr
	.cfi_def_cfa_offset 0
	JMP	lr
.LVL15:
.L20:
	.cfi_restore_state
.LM35:
	LD	r3,#timeTable
	MOV	r9,r3
	MOV	r7,#4
	LSL	r4,r5,r7
	ADD	r7,r3,r4
	ST.b	[r7+#11],r0
.LM36:
	ST.w	[r7+#1],r1
.LM37:
	LD	r0,#cur_date
	LD.w	r3,[r0]
	ADD	r1,r1,r3
.LVL16:
	MOV	r3,r9
	ST.w	[r3+r4],r1
.LM38:
	LD	r3,#86399999
.LM39:
	LD.h	r0,[r0+#2]
.LM40:
	CMP	r1,r3
	JHI	.L21
.LM41:
	ST.h	[r7+#4],r0
.LVL17:
.L15:
.LM42:
	ADD	r4,r9
.LVL18:
	ST.w	[r4+#3],r2
.LM43:
	MOV	r3,#1
	ST.b	[r4+#10],r3
.LM44:
	LD	r0,#1073744256
	LD	r1,#.LC0
	MOV	r2,r5
.LVL19:
	LJMP	fprintf
.LVL20:
.LM45:
	JMP	.L12
.LVL21:
.L21:
.LM46:
	ADD	r0,r0,#1
	ST.h	[r7+#4],r0
.LM47:
	LD	r0,#86400000
	SUB	r1,r1,r0
	MOV	r7,r9
.LVL22:
	ST.w	[r7+r4],r1
	JMP	.L15
	.cfi_endproc
.LFE6:
	.size	SOFTTIMER_register, .-SOFTTIMER_register
	.section .rodata.str1.4
	.type	.rodata.str1.4$scode_local_9, @function
	.rodata.str1.4$scode_local_9:
	.align	2
.LC2:
	.string	"unregister timer%d\r\n"
	.section .text$SOFTTIMER_unregister
	.type	.text$SOFTTIMER_unregister$scode_local_10, @function
	.text$SOFTTIMER_unregister$scode_local_10:
	.align	1
	.export	SOFTTIMER_unregister
	.type	SOFTTIMER_unregister, @function
SOFTTIMER_unregister:
.LFB7:
.LM48:
	.cfi_startproc
.LVL23:
	PUSH	{r6, r7, lr}
	.cfi_def_cfa_offset 12
	MOV	r6,r0
.LM49:
	MOV	r7,#255
	LD.b	r5,[r0]
	CMP	r5,r7
	JZ	.L22
.LM50:
	LD	r0,#1073744256
.LVL24:
	LD	r1,#.LC2
	MOV	r2,r6
	LJMP	fprintf
.LVL25:
.LM51:
	LD	r4,#timeTable
	LD.b	r3,[r6]
	LSL	r3,#4
	ADD	r3,r4,r3
	MOV	r5,#0
	ST.b	[r3+#11],r5
.LM52:
	LD.b	r3,[r6]
	LSL	r3,#4
	ST.w	[r4+r3],r5
.LM53:
	LD.b	r3,[r6]
	LSL	r3,#4
	ADD	r3,r4,r3
	ST.h	[r3+#4],r5
.LM54:
	LD.b	r3,[r6]
	LSL	r3,#4
	ADD	r3,r4,r3
	ST.w	[r3+#3],r5
.LM55:
	LD.b	r3,[r6]
	LSL	r3,#4
	ADD	r4,r4,r3
	ST.b	[r4+#10],r5
.LM56:
	ST.b	[r6],r7
.L22:
.LM57:
	POP	{r6, r7}
	.cfi_def_cfa_offset 4
	POP	lr
	.cfi_def_cfa_offset 0
	JMP	lr
	.cfi_endproc
.LFE7:
	.size	SOFTTIMER_unregister, .-SOFTTIMER_unregister
	.section .text$SOFTTIMER_Handle
	.type	.text$SOFTTIMER_Handle$scode_local_11, @function
	.text$SOFTTIMER_Handle$scode_local_11:
	.align	1
	.export	SOFTTIMER_Handle
	.type	SOFTTIMER_Handle, @function
SOFTTIMER_Handle:
.LFB8:
.LM58:
	.cfi_startproc
	PUSH	{r6, r7, r8, r9, r10, r11, r12, lr}
	.cfi_def_cfa_offset 32
	SUB	sp,#4
	.cfi_def_cfa_offset 36
.LM59:
	LD	r2,#cur_date
	MOV	r9,r2
	LD.w	r5,[r2]
	LD	r4,#86399999
	CMP	r5,r4
	JLS	.L25
.LM60:
	LD	r4,#86400000
	SUB	r5,r5,r4
	ST.w	[r2],r5
.LM61:
	LD.h	r3,[r2+#2]
	ADD	r5,r3,#1
	ST.h	[r2+#2],r5
.L25:
.LVL26:
	LD	r4,#timeTable
	MOV	r11,r4
	MOV	r7,r4
.LM62:
	MOV	r6,#0
	MOV	r8,r6
.LM63:
	LD	r5,#cur_date
	MOV	r12,r5
.LVL27:
.L30:
.LM64:
	LD.b	r5,[r7+#10]
	CMP	r5,#1
	JZ	.L35
.L26:
	ADD	r8,#1
	ADD	r6,#16
	ADD	r7,#16
.LM65:
	CMP	r6,#80
	JNZ	.L30
.LM66:
	ADD	sp,#4
	.cfi_remember_state
	.cfi_def_cfa_offset 32
	POP	{r6, r7, r8, r9, r10, r11, r12}
	.cfi_def_cfa_offset 4
	POP	lr
	.cfi_def_cfa_offset 0
	JMP	lr
.L35:
	.cfi_restore_state
.LM67:
	MOV	r2,r11
	ADD	r2,r2,r6
	MOV	r10,r2
.LM68:
	MOV	r3,r9
	LD.h	r3,[r3+#2]
	ZXT.h	r5,r3
	LD.h	r2,[r2+#4]
	ZXT.h	r4,r2
	CMP	r4,r5
	JHI	.L26
.LM69:
	LD.w	r5,[r12]
	LD.w	r4,[r7]
	CMP	r4,r5
	JHI	.L26
.LM70:
	MOV	r3,r10
	LD.w	r5,[r3+#3]
	CMP	r5,#0
	JZ	.L27
.LM71:
	LJMP	r5
.LVL28:
.L27:
.LM72:
	LD.b	r4,[r7+#11]
	ST.w	[sp],r4
	CMP	r4,#0
	JZ	.L36
.LM73:
	MOV	r2,r10
	LD.w	r2,[r2+#1]
	LD.w	r3,[r9]
	ADD	r5,r2,r3
	ST.w	[r7],r5
.LM74:
	LD	r4,#86399999
	CMP	r5,r4
	JLS	.L29
.LM75:
	MOV	r2,r12
	LD.h	r2,[r2+#2]
	ADD	r5,r2,#1
	MOV	r3,r10
	ST.h	[r3+#4],r5
.LM76:
	LD.w	r3,[r7]
	LD	r4,#86400000
	SUB	r5,r3,r4
	ST.w	[r7],r5
	JMP	.L26
.L29:
.LM77:
	MOV	r5,r12
	LD.h	r5,[r5+#2]
	MOV	r3,r5
	MOV	r5,r10
	ST.h	[r5+#4],r3
	JMP	.L26
.L36:
.LM78:
	LD	r0,#1073744256
	LD	r1,#.LC2
	MOV	r2,r8
	LJMP	fprintf
.LVL29:
.LM79:
	LD.w	r5,[sp]
	ST.b	[r7+#10],r5
.LM80:
	ST.b	[r7+#11],r5
.LM81:
	ST.w	[r7],r5
.LM82:
	MOV	r2,r10
	ST.h	[r2+#4],r5
.LM83:
	ST.w	[r2+#3],r5
	JMP	.L26
	.cfi_endproc
.LFE8:
	.size	SOFTTIMER_Handle, .-SOFTTIMER_Handle
	.export	cur_date
	.section .bss$comm$cur_date
	.type	.bss$comm$cur_date$scode_local_12, @function
	.bss$comm$cur_date$scode_local_12:
	.align	2
	.type	cur_date, @object
	.size	cur_date, 8
cur_date:
	.fill 8, 1
	.export	timeTable
	.section .bss$comm$timeTable
	.type	.bss$comm$timeTable$scode_local_13, @function
	.bss$comm$timeTable$scode_local_13:
	.align	2
	.type	timeTable, @object
	.size	timeTable, 80
timeTable:
	.fill 80, 1
	.text	
.Letext0: