	.file	"bsp_delay.c"
	.text	
.Ltext0:
	.cfi_sections	.debug_frame
	.section .text$delay_ms_timer
	.type	.text$delay_ms_timer$scode_local_1, @function
	.text$delay_ms_timer$scode_local_1:
	.align	1
	.export	delay_ms_timer
	.type	delay_ms_timer, @function
delay_ms_timer:
.LFB1:
.LM1:
	.cfi_startproc
.LVL0:
	PUSH	{r6, lr}
	.cfi_def_cfa_offset 8
	SUB	sp,#4
	.cfi_def_cfa_offset 12
	ST.w	[sp],r0
.LM2:
	LJMP	systick_tick_get
.LVL1:
	MOV	r6,r0
.LVL2:
.L2:
.LM3:
	LJMP	systick_tick_get
.LVL3:
	LD.w	r5,[sp]
	SUB	r0,r0,r6
	CMP	r5,r0
	JHI	.L2
.LM4:
	ADD	sp,#4
	.cfi_def_cfa_offset 8
	POP	r6
	.cfi_def_cfa_offset 4
.LVL4:
	POP	lr
	.cfi_def_cfa_offset 0
	JMP	lr
	.cfi_endproc
.LFE1:
	.size	delay_ms_timer, .-delay_ms_timer
	.section .text$delay_ms_for
	.type	.text$delay_ms_for$scode_local_2, @function
	.text$delay_ms_for$scode_local_2:
	.align	1
	.export	delay_ms_for
	.type	delay_ms_for, @function
delay_ms_for:
.LFB2:
.LM5:
	.cfi_startproc
.LVL5:
	SUB	sp,#12
	.cfi_def_cfa_offset 12
	ST.w	[sp+#2],r0
.LM6:
	MOV	r5,#0
	ST.w	[sp+#1],r5
.LVL6:
	LD.w	r5,[sp+#1]
	LD.w	r4,[sp+#2]
	CMP	r4,r5
	JLS	.L5
.LM7:
	LD	r3,#6050
.LVL7:
.L9:
	ST.w	[sp],r3
.L7:
.LM8:
	LD.w	r5,[sp]
	SUB	r4,r5,#1
.LVL8:
	ST.w	[sp],r4
.LVL9:
	CMP	r5,#0
	JNZ	.L7
.LM9:
	LD.w	r5,[sp+#1]
	ADD	r5,r5,#1
.LVL10:
	ST.w	[sp+#1],r5
.LVL11:
	LD.w	r5,[sp+#1]
.LVL12:
	LD.w	r4,[sp+#2]
	CMP	r4,r5
	JHI	.L9
.L5:
.LM10:
	ADD	sp,#12
	.cfi_def_cfa_offset 0
	JMP	lr
	.cfi_endproc
.LFE2:
	.size	delay_ms_for, .-delay_ms_for
	.section .text$delay_us_systick
	.type	.text$delay_us_systick$scode_local_3, @function
	.text$delay_us_systick$scode_local_3:
	.align	1
	.export	delay_us_systick
	.type	delay_us_systick, @function
delay_us_systick:
.LFB3:
.LM11:
	.cfi_startproc
.LVL13:
.LM12:
	LD	r5,#fac_us
	LD.b	r5,[r5]
	MULS	r0,r0,r5 ;
	NOP
.LVL14:
	LD	r2,#1075839136
	ST.w	[r2+#1],r0
.LM13:
	MOV	r5,#0
	ST.w	[r2+#2],r5
.LM14:
	LD.w	r5,[r2]
	SET	r5,#0
	ST.w	[r2],r5
.LM15:
	LD	r3,#65537
.L13:
.LM16:
	LD	r4,#1075839136
	LD.w	r5,[r2]
.LVL15:
.LM17:
	ANL	r5,r5,r3
.LVL16:
	CMP	r5,#1
	JZ	.L13
.LM18:
	LD.w	r5,[r4]
	CLR	r5,#0
	ST.w	[r4],r5
.LM19:
	MOV	r5,#0
	ST.w	[r4+#2],r5
.LM20:
	JMP	lr
	.cfi_endproc
.LFE3:
	.size	delay_us_systick, .-delay_us_systick
	.section .text$delay_ms_systick
	.type	.text$delay_ms_systick$scode_local_4, @function
	.text$delay_ms_systick$scode_local_4:
	.align	1
	.export	delay_ms_systick
	.type	delay_ms_systick, @function
delay_ms_systick:
.LFB4:
.LM21:
	.cfi_startproc
.LVL17:
.LM22:
	LD	r5,#fac_ms
	LD.h	r5,[r5]
	MULS	r0,r0,r5 ;
	NOP
.LVL18:
	LD	r2,#1075839136
	ST.w	[r2+#1],r0
.LM23:
	MOV	r5,#0
	ST.w	[r2+#2],r5
.LM24:
	LD.w	r5,[r2]
	SET	r5,#0
	ST.w	[r2],r5
.LM25:
	LD	r3,#65537
.L19:
.LM26:
	LD	r4,#1075839136
	LD.w	r5,[r2]
.LVL19:
.LM27:
	ANL	r5,r5,r3
.LVL20:
	CMP	r5,#1
	JZ	.L19
.LM28:
	LD.w	r5,[r4]
	CLR	r5,#0
	ST.w	[r4],r5
.LM29:
	MOV	r5,#0
	ST.w	[r4+#2],r5
.LM30:
	JMP	lr
	.cfi_endproc
.LFE4:
	.size	delay_ms_systick, .-delay_ms_systick
	.text	
.Letext0: